; ModuleID = 'll/.algorithm.cpp.o.bc'
source_filename = "/home/misha/sweet/repos/libcxx-llvm-ir/llvm-project/libcxx/src/algorithm.cpp"
target datalayout = "e-m:e-p270:32:32-p271:32:32-p272:64:64-i64:64-f80:128-n8:16:32:64-S128"
target triple = "x86_64-unknown-linux-gnu"

%"struct.std::__1::__less" = type { i8 }
%"struct.std::__1::__less.0" = type { i8 }
%"struct.std::__1::__less.1" = type { i8 }
%"struct.std::__1::__less.2" = type { i8 }
%"struct.std::__1::__less.3" = type { i8 }
%"struct.std::__1::__less.4" = type { i8 }
%"struct.std::__1::__less.5" = type { i8 }
%"struct.std::__1::__less.6" = type { i8 }
%"struct.std::__1::__less.7" = type { i8 }
%"struct.std::__1::__less.8" = type { i8 }
%"struct.std::__1::__less.9" = type { i8 }
%"struct.std::__1::__less.10" = type { i8 }
%"struct.std::__1::__less.11" = type { i8 }
%"struct.std::__1::__less.12" = type { i8 }
%"struct.std::__1::__less.13" = type { i8 }

$_ZNSt3__16__sortIRNS_6__lessIccEEPcEEvT0_S5_T_ = comdat any

$_ZNSt3__17__sort5IRNS_6__lessIccEEPcEEjT0_S5_S5_S5_S5_T_ = comdat any

$_ZNSt3__127__insertion_sort_incompleteIRNS_6__lessIccEEPcEEbT0_S5_T_ = comdat any

$_ZNSt3__16__sortIRNS_6__lessIwwEEPwEEvT0_S5_T_ = comdat any

$_ZNSt3__17__sort5IRNS_6__lessIwwEEPwEEjT0_S5_S5_S5_S5_T_ = comdat any

$_ZNSt3__127__insertion_sort_incompleteIRNS_6__lessIwwEEPwEEbT0_S5_T_ = comdat any

$_ZNSt3__16__sortIRNS_6__lessIaaEEPaEEvT0_S5_T_ = comdat any

$_ZNSt3__17__sort5IRNS_6__lessIaaEEPaEEjT0_S5_S5_S5_S5_T_ = comdat any

$_ZNSt3__127__insertion_sort_incompleteIRNS_6__lessIaaEEPaEEbT0_S5_T_ = comdat any

$_ZNSt3__16__sortIRNS_6__lessIhhEEPhEEvT0_S5_T_ = comdat any

$_ZNSt3__17__sort5IRNS_6__lessIhhEEPhEEjT0_S5_S5_S5_S5_T_ = comdat any

$_ZNSt3__127__insertion_sort_incompleteIRNS_6__lessIhhEEPhEEbT0_S5_T_ = comdat any

$_ZNSt3__16__sortIRNS_6__lessIssEEPsEEvT0_S5_T_ = comdat any

$_ZNSt3__17__sort5IRNS_6__lessIssEEPsEEjT0_S5_S5_S5_S5_T_ = comdat any

$_ZNSt3__127__insertion_sort_incompleteIRNS_6__lessIssEEPsEEbT0_S5_T_ = comdat any

$_ZNSt3__16__sortIRNS_6__lessIttEEPtEEvT0_S5_T_ = comdat any

$_ZNSt3__17__sort5IRNS_6__lessIttEEPtEEjT0_S5_S5_S5_S5_T_ = comdat any

$_ZNSt3__127__insertion_sort_incompleteIRNS_6__lessIttEEPtEEbT0_S5_T_ = comdat any

$_ZNSt3__16__sortIRNS_6__lessIiiEEPiEEvT0_S5_T_ = comdat any

$_ZNSt3__17__sort5IRNS_6__lessIiiEEPiEEjT0_S5_S5_S5_S5_T_ = comdat any

$_ZNSt3__127__insertion_sort_incompleteIRNS_6__lessIiiEEPiEEbT0_S5_T_ = comdat any

$_ZNSt3__16__sortIRNS_6__lessIjjEEPjEEvT0_S5_T_ = comdat any

$_ZNSt3__17__sort5IRNS_6__lessIjjEEPjEEjT0_S5_S5_S5_S5_T_ = comdat any

$_ZNSt3__127__insertion_sort_incompleteIRNS_6__lessIjjEEPjEEbT0_S5_T_ = comdat any

$_ZNSt3__16__sortIRNS_6__lessIllEEPlEEvT0_S5_T_ = comdat any

$_ZNSt3__17__sort5IRNS_6__lessIllEEPlEEjT0_S5_S5_S5_S5_T_ = comdat any

$_ZNSt3__127__insertion_sort_incompleteIRNS_6__lessIllEEPlEEbT0_S5_T_ = comdat any

$_ZNSt3__16__sortIRNS_6__lessImmEEPmEEvT0_S5_T_ = comdat any

$_ZNSt3__17__sort5IRNS_6__lessImmEEPmEEjT0_S5_S5_S5_S5_T_ = comdat any

$_ZNSt3__127__insertion_sort_incompleteIRNS_6__lessImmEEPmEEbT0_S5_T_ = comdat any

$_ZNSt3__16__sortIRNS_6__lessIxxEEPxEEvT0_S5_T_ = comdat any

$_ZNSt3__17__sort5IRNS_6__lessIxxEEPxEEjT0_S5_S5_S5_S5_T_ = comdat any

$_ZNSt3__127__insertion_sort_incompleteIRNS_6__lessIxxEEPxEEbT0_S5_T_ = comdat any

$_ZNSt3__16__sortIRNS_6__lessIyyEEPyEEvT0_S5_T_ = comdat any

$_ZNSt3__17__sort5IRNS_6__lessIyyEEPyEEjT0_S5_S5_S5_S5_T_ = comdat any

$_ZNSt3__127__insertion_sort_incompleteIRNS_6__lessIyyEEPyEEbT0_S5_T_ = comdat any

$_ZNSt3__16__sortIRNS_6__lessIffEEPfEEvT0_S5_T_ = comdat any

$_ZNSt3__17__sort5IRNS_6__lessIffEEPfEEjT0_S5_S5_S5_S5_T_ = comdat any

$_ZNSt3__127__insertion_sort_incompleteIRNS_6__lessIffEEPfEEbT0_S5_T_ = comdat any

$_ZNSt3__16__sortIRNS_6__lessIddEEPdEEvT0_S5_T_ = comdat any

$_ZNSt3__17__sort5IRNS_6__lessIddEEPdEEjT0_S5_S5_S5_S5_T_ = comdat any

$_ZNSt3__127__insertion_sort_incompleteIRNS_6__lessIddEEPdEEbT0_S5_T_ = comdat any

$_ZNSt3__16__sortIRNS_6__lessIeeEEPeEEvT0_S5_T_ = comdat any

$_ZNSt3__17__sort5IRNS_6__lessIeeEEPeEEjT0_S5_S5_S5_S5_T_ = comdat any

$_ZNSt3__127__insertion_sort_incompleteIRNS_6__lessIeeEEPeEEbT0_S5_T_ = comdat any

; Function Attrs: uwtable
define weak_odr void @_ZNSt3__16__sortIRNS_6__lessIccEEPcEEvT0_S5_T_(i8* %0, i8* %1, %"struct.std::__1::__less"* nonnull align 1 dereferenceable(1) %2) local_unnamed_addr #0 comdat {
  br label %4

4:                                                ; preds = %245, %3
  %5 = phi i8* [ %1, %3 ], [ %229, %245 ]
  %6 = phi i8* [ %0, %3 ], [ %13, %245 ]
  %7 = ptrtoint i8* %5 to i64
  %8 = getelementptr inbounds i8, i8* %5, i64 -1
  %9 = ptrtoint i8* %5 to i64
  br label %10

10:                                               ; preds = %255, %4
  %11 = phi i8* [ %6, %4 ], [ %256, %255 ]
  br label %12

12:                                               ; preds = %259, %10
  %13 = phi i8* [ %11, %10 ], [ %261, %259 ]
  %14 = ptrtoint i8* %13 to i64
  %15 = sub i64 %7, %14
  switch i64 %15, label %78 [
    i64 0, label %262
    i64 1, label %262
    i64 2, label %16
    i64 3, label %22
    i64 4, label %42
    i64 5, label %72
  ]

16:                                               ; preds = %12
  %17 = getelementptr inbounds i8, i8* %5, i64 -1
  %18 = load i8, i8* %17, align 1, !tbaa !3
  %19 = load i8, i8* %13, align 1, !tbaa !3
  %20 = icmp slt i8 %18, %19
  br i1 %20, label %21, label %262

21:                                               ; preds = %16
  store i8 %18, i8* %13, align 1, !tbaa !3
  store i8 %19, i8* %17, align 1, !tbaa !3
  br label %262

22:                                               ; preds = %12
  %23 = getelementptr inbounds i8, i8* %13, i64 1
  %24 = getelementptr inbounds i8, i8* %5, i64 -1
  %25 = load i8, i8* %23, align 1, !tbaa !3
  %26 = load i8, i8* %13, align 1, !tbaa !3
  %27 = icmp slt i8 %25, %26
  %28 = load i8, i8* %24, align 1, !tbaa !3
  %29 = icmp slt i8 %28, %25
  br i1 %27, label %36, label %30

30:                                               ; preds = %22
  br i1 %29, label %31, label %262

31:                                               ; preds = %30
  store i8 %28, i8* %23, align 1, !tbaa !3
  store i8 %25, i8* %24, align 1, !tbaa !3
  %32 = load i8, i8* %23, align 1, !tbaa !3
  %33 = load i8, i8* %13, align 1, !tbaa !3
  %34 = icmp slt i8 %32, %33
  br i1 %34, label %35, label %262

35:                                               ; preds = %31
  store i8 %32, i8* %13, align 1, !tbaa !3
  store i8 %33, i8* %23, align 1, !tbaa !3
  br label %262

36:                                               ; preds = %22
  br i1 %29, label %37, label %38

37:                                               ; preds = %36
  store i8 %28, i8* %13, align 1, !tbaa !3
  store i8 %26, i8* %24, align 1, !tbaa !3
  br label %262

38:                                               ; preds = %36
  store i8 %25, i8* %13, align 1, !tbaa !3
  store i8 %26, i8* %23, align 1, !tbaa !3
  %39 = load i8, i8* %24, align 1, !tbaa !3
  %40 = icmp slt i8 %39, %26
  br i1 %40, label %41, label %262

41:                                               ; preds = %38
  store i8 %39, i8* %23, align 1, !tbaa !3
  store i8 %26, i8* %24, align 1, !tbaa !3
  br label %262

42:                                               ; preds = %12
  %43 = getelementptr inbounds i8, i8* %13, i64 1
  %44 = getelementptr inbounds i8, i8* %13, i64 2
  %45 = getelementptr inbounds i8, i8* %5, i64 -1
  %46 = load i8, i8* %43, align 1, !tbaa !3
  %47 = load i8, i8* %13, align 1, !tbaa !3
  %48 = icmp slt i8 %46, %47
  %49 = load i8, i8* %44, align 1, !tbaa !3
  %50 = icmp slt i8 %49, %46
  br i1 %48, label %55, label %51

51:                                               ; preds = %42
  br i1 %50, label %52, label %60

52:                                               ; preds = %51
  store i8 %49, i8* %43, align 1, !tbaa !3
  store i8 %46, i8* %44, align 1, !tbaa !3
  %53 = icmp slt i8 %49, %47
  br i1 %53, label %54, label %60

54:                                               ; preds = %52
  store i8 %49, i8* %13, align 1, !tbaa !3
  store i8 %47, i8* %43, align 1, !tbaa !3
  br label %60

55:                                               ; preds = %42
  br i1 %50, label %56, label %57

56:                                               ; preds = %55
  store i8 %49, i8* %13, align 1, !tbaa !3
  store i8 %47, i8* %44, align 1, !tbaa !3
  br label %60

57:                                               ; preds = %55
  store i8 %46, i8* %13, align 1, !tbaa !3
  store i8 %47, i8* %43, align 1, !tbaa !3
  %58 = icmp slt i8 %49, %47
  br i1 %58, label %59, label %60

59:                                               ; preds = %57
  store i8 %49, i8* %43, align 1, !tbaa !3
  store i8 %47, i8* %44, align 1, !tbaa !3
  br label %60

60:                                               ; preds = %59, %57, %56, %54, %52, %51
  %61 = phi i8 [ %47, %56 ], [ %49, %51 ], [ %46, %54 ], [ %46, %52 ], [ %47, %59 ], [ %49, %57 ]
  %62 = load i8, i8* %45, align 1, !tbaa !3
  %63 = icmp slt i8 %62, %61
  br i1 %63, label %64, label %262

64:                                               ; preds = %60
  store i8 %62, i8* %44, align 1, !tbaa !3
  store i8 %61, i8* %45, align 1, !tbaa !3
  %65 = load i8, i8* %44, align 1, !tbaa !3
  %66 = load i8, i8* %43, align 1, !tbaa !3
  %67 = icmp slt i8 %65, %66
  br i1 %67, label %68, label %262

68:                                               ; preds = %64
  store i8 %65, i8* %43, align 1, !tbaa !3
  store i8 %66, i8* %44, align 1, !tbaa !3
  %69 = load i8, i8* %13, align 1, !tbaa !3
  %70 = icmp slt i8 %65, %69
  br i1 %70, label %71, label %262

71:                                               ; preds = %68
  store i8 %65, i8* %13, align 1, !tbaa !3
  store i8 %69, i8* %43, align 1, !tbaa !3
  br label %262

72:                                               ; preds = %12
  %73 = getelementptr inbounds i8, i8* %13, i64 1
  %74 = getelementptr inbounds i8, i8* %13, i64 2
  %75 = getelementptr inbounds i8, i8* %13, i64 3
  %76 = getelementptr inbounds i8, i8* %5, i64 -1
  %77 = tail call i32 @_ZNSt3__17__sort5IRNS_6__lessIccEEPcEEjT0_S5_S5_S5_S5_T_(i8* %13, i8* nonnull %73, i8* nonnull %74, i8* nonnull %75, i8* nonnull %76, %"struct.std::__1::__less"* nonnull align 1 dereferenceable(1) %2)
  br label %262

78:                                               ; preds = %12
  %79 = icmp slt i64 %15, 31
  br i1 %79, label %80, label %123

80:                                               ; preds = %78
  %81 = getelementptr inbounds i8, i8* %13, i64 2
  %82 = getelementptr inbounds i8, i8* %13, i64 1
  %83 = load i8, i8* %82, align 1, !tbaa !3
  %84 = load i8, i8* %13, align 1, !tbaa !3
  %85 = icmp slt i8 %83, %84
  %86 = load i8, i8* %81, align 1, !tbaa !3
  %87 = icmp slt i8 %86, %83
  br i1 %85, label %92, label %88

88:                                               ; preds = %80
  br i1 %87, label %89, label %97

89:                                               ; preds = %88
  store i8 %86, i8* %82, align 1, !tbaa !3
  store i8 %83, i8* %81, align 1, !tbaa !3
  %90 = icmp slt i8 %86, %84
  br i1 %90, label %91, label %97

91:                                               ; preds = %89
  store i8 %86, i8* %13, align 1, !tbaa !3
  store i8 %84, i8* %82, align 1, !tbaa !3
  br label %97

92:                                               ; preds = %80
  br i1 %87, label %93, label %94

93:                                               ; preds = %92
  store i8 %86, i8* %13, align 1, !tbaa !3
  store i8 %84, i8* %81, align 1, !tbaa !3
  br label %97

94:                                               ; preds = %92
  store i8 %83, i8* %13, align 1, !tbaa !3
  store i8 %84, i8* %82, align 1, !tbaa !3
  %95 = icmp slt i8 %86, %84
  br i1 %95, label %96, label %97

96:                                               ; preds = %94
  store i8 %86, i8* %82, align 1, !tbaa !3
  store i8 %84, i8* %81, align 1, !tbaa !3
  br label %97

97:                                               ; preds = %96, %94, %93, %91, %89, %88
  %98 = phi i8 [ %86, %88 ], [ %83, %89 ], [ %83, %91 ], [ %84, %93 ], [ %86, %94 ], [ %84, %96 ]
  %99 = getelementptr inbounds i8, i8* %13, i64 3
  %100 = icmp eq i8* %99, %5
  br i1 %100, label %262, label %101

101:                                              ; preds = %97, %121
  %102 = phi i8 [ %122, %121 ], [ %98, %97 ]
  %103 = phi i8* [ %119, %121 ], [ %99, %97 ]
  %104 = phi i8* [ %103, %121 ], [ %81, %97 ]
  %105 = load i8, i8* %103, align 1, !tbaa !3
  %106 = icmp slt i8 %105, %102
  br i1 %106, label %107, label %118

107:                                              ; preds = %101, %112
  %108 = phi i8 [ %114, %112 ], [ %102, %101 ]
  %109 = phi i8* [ %110, %112 ], [ %103, %101 ]
  %110 = phi i8* [ %113, %112 ], [ %104, %101 ]
  store i8 %108, i8* %109, align 1, !tbaa !3
  %111 = icmp eq i8* %110, %13
  br i1 %111, label %116, label %112

112:                                              ; preds = %107
  %113 = getelementptr inbounds i8, i8* %110, i64 -1
  %114 = load i8, i8* %113, align 1, !tbaa !3
  %115 = icmp slt i8 %105, %114
  br i1 %115, label %107, label %116

116:                                              ; preds = %112, %107
  %117 = phi i8* [ %13, %107 ], [ %110, %112 ]
  store i8 %105, i8* %117, align 1, !tbaa !3
  br label %118

118:                                              ; preds = %116, %101
  %119 = getelementptr inbounds i8, i8* %103, i64 1
  %120 = icmp eq i8* %119, %5
  br i1 %120, label %262, label %121

121:                                              ; preds = %118
  %122 = load i8, i8* %103, align 1, !tbaa !3
  br label %101

123:                                              ; preds = %78
  %124 = icmp sgt i64 %15, 999
  %125 = lshr i64 %15, 1
  %126 = getelementptr inbounds i8, i8* %13, i64 %125
  br i1 %124, label %127, label %132

127:                                              ; preds = %123
  %128 = lshr i64 %15, 2
  %129 = getelementptr inbounds i8, i8* %13, i64 %128
  %130 = getelementptr inbounds i8, i8* %126, i64 %128
  %131 = tail call i32 @_ZNSt3__17__sort5IRNS_6__lessIccEEPcEEjT0_S5_S5_S5_S5_T_(i8* %13, i8* %129, i8* %126, i8* %130, i8* nonnull %8, %"struct.std::__1::__less"* nonnull align 1 dereferenceable(1) %2)
  br label %150

132:                                              ; preds = %123
  %133 = load i8, i8* %126, align 1, !tbaa !3
  %134 = load i8, i8* %13, align 1, !tbaa !3
  %135 = icmp slt i8 %133, %134
  %136 = load i8, i8* %8, align 1, !tbaa !3
  %137 = icmp slt i8 %136, %133
  br i1 %135, label %144, label %138

138:                                              ; preds = %132
  br i1 %137, label %139, label %150

139:                                              ; preds = %138
  store i8 %136, i8* %126, align 1, !tbaa !3
  store i8 %133, i8* %8, align 1, !tbaa !3
  %140 = load i8, i8* %126, align 1, !tbaa !3
  %141 = load i8, i8* %13, align 1, !tbaa !3
  %142 = icmp slt i8 %140, %141
  br i1 %142, label %143, label %150

143:                                              ; preds = %139
  store i8 %140, i8* %13, align 1, !tbaa !3
  store i8 %141, i8* %126, align 1, !tbaa !3
  br label %150

144:                                              ; preds = %132
  br i1 %137, label %145, label %146

145:                                              ; preds = %144
  store i8 %136, i8* %13, align 1, !tbaa !3
  store i8 %134, i8* %8, align 1, !tbaa !3
  br label %150

146:                                              ; preds = %144
  store i8 %133, i8* %13, align 1, !tbaa !3
  store i8 %134, i8* %126, align 1, !tbaa !3
  %147 = load i8, i8* %8, align 1, !tbaa !3
  %148 = icmp slt i8 %147, %134
  br i1 %148, label %149, label %150

149:                                              ; preds = %146
  store i8 %147, i8* %126, align 1, !tbaa !3
  store i8 %134, i8* %8, align 1, !tbaa !3
  br label %150

150:                                              ; preds = %149, %146, %145, %143, %139, %138, %127
  %151 = phi i32 [ %131, %127 ], [ 1, %145 ], [ 0, %138 ], [ 2, %143 ], [ 1, %139 ], [ 2, %149 ], [ 1, %146 ]
  %152 = load i8, i8* %13, align 1, !tbaa !3
  %153 = load i8, i8* %126, align 1, !tbaa !3
  %154 = icmp slt i8 %152, %153
  br i1 %154, label %199, label %155

155:                                              ; preds = %150, %194
  %156 = phi i8* [ %157, %194 ], [ %8, %150 ]
  %157 = getelementptr inbounds i8, i8* %156, i64 -1
  %158 = icmp eq i8* %13, %157
  br i1 %158, label %159, label %194

159:                                              ; preds = %155
  %160 = getelementptr inbounds i8, i8* %13, i64 1
  %161 = load i8, i8* %8, align 1, !tbaa !3
  %162 = icmp slt i8 %152, %161
  br i1 %162, label %174, label %163

163:                                              ; preds = %159
  %164 = icmp eq i8* %160, %8
  br i1 %164, label %262, label %165

165:                                              ; preds = %163, %171
  %166 = phi i8* [ %172, %171 ], [ %160, %163 ]
  %167 = load i8, i8* %166, align 1, !tbaa !3
  %168 = icmp slt i8 %152, %167
  br i1 %168, label %169, label %171

169:                                              ; preds = %165
  store i8 %161, i8* %166, align 1, !tbaa !3
  store i8 %167, i8* %8, align 1, !tbaa !3
  %170 = getelementptr inbounds i8, i8* %166, i64 1
  br label %174

171:                                              ; preds = %165
  %172 = getelementptr inbounds i8, i8* %166, i64 1
  %173 = icmp eq i8* %172, %8
  br i1 %173, label %262, label %165

174:                                              ; preds = %169, %159
  %175 = phi i8* [ %160, %159 ], [ %170, %169 ]
  %176 = icmp eq i8* %175, %8
  br i1 %176, label %262, label %177

177:                                              ; preds = %174, %193
  %178 = phi i8* [ %185, %193 ], [ %175, %174 ]
  %179 = phi i8* [ %188, %193 ], [ %8, %174 ]
  %180 = load i8, i8* %13, align 1, !tbaa !3
  br label %181

181:                                              ; preds = %181, %177
  %182 = phi i8* [ %178, %177 ], [ %185, %181 ]
  %183 = load i8, i8* %182, align 1, !tbaa !3
  %184 = icmp slt i8 %180, %183
  %185 = getelementptr inbounds i8, i8* %182, i64 1
  br i1 %184, label %186, label %181

186:                                              ; preds = %181, %186
  %187 = phi i8* [ %188, %186 ], [ %179, %181 ]
  %188 = getelementptr inbounds i8, i8* %187, i64 -1
  %189 = load i8, i8* %188, align 1, !tbaa !3
  %190 = icmp slt i8 %180, %189
  br i1 %190, label %186, label %191

191:                                              ; preds = %186
  %192 = icmp ult i8* %182, %188
  br i1 %192, label %193, label %259

193:                                              ; preds = %191
  store i8 %189, i8* %182, align 1, !tbaa !3
  store i8 %183, i8* %188, align 1, !tbaa !3
  br label %177

194:                                              ; preds = %155
  %195 = load i8, i8* %157, align 1, !tbaa !3
  %196 = icmp slt i8 %195, %153
  br i1 %196, label %197, label %155

197:                                              ; preds = %194
  store i8 %195, i8* %13, align 1, !tbaa !3
  store i8 %152, i8* %157, align 1, !tbaa !3
  %198 = add i32 %151, 1
  br label %199

199:                                              ; preds = %197, %150
  %200 = phi i32 [ %151, %150 ], [ %198, %197 ]
  %201 = phi i8* [ %8, %150 ], [ %157, %197 ]
  %202 = getelementptr inbounds i8, i8* %13, i64 1
  %203 = icmp ult i8* %202, %201
  br i1 %203, label %204, label %226

204:                                              ; preds = %199, %222
  %205 = phi i8* [ %225, %222 ], [ %126, %199 ]
  %206 = phi i32 [ %223, %222 ], [ %200, %199 ]
  %207 = phi i8* [ %214, %222 ], [ %202, %199 ]
  %208 = phi i8* [ %217, %222 ], [ %201, %199 ]
  %209 = load i8, i8* %205, align 1, !tbaa !3
  br label %210

210:                                              ; preds = %210, %204
  %211 = phi i8* [ %207, %204 ], [ %214, %210 ]
  %212 = load i8, i8* %211, align 1, !tbaa !3
  %213 = icmp slt i8 %212, %209
  %214 = getelementptr inbounds i8, i8* %211, i64 1
  br i1 %213, label %210, label %215

215:                                              ; preds = %210, %215
  %216 = phi i8* [ %217, %215 ], [ %208, %210 ]
  %217 = getelementptr inbounds i8, i8* %216, i64 -1
  %218 = load i8, i8* %217, align 1, !tbaa !3
  %219 = icmp slt i8 %218, %209
  br i1 %219, label %220, label %215

220:                                              ; preds = %215
  %221 = icmp ugt i8* %211, %217
  br i1 %221, label %226, label %222

222:                                              ; preds = %220
  store i8 %218, i8* %211, align 1, !tbaa !3
  store i8 %212, i8* %217, align 1, !tbaa !3
  %223 = add i32 %206, 1
  %224 = icmp eq i8* %205, %211
  %225 = select i1 %224, i8* %217, i8* %205
  br label %204

226:                                              ; preds = %220, %199
  %227 = phi i8* [ %126, %199 ], [ %205, %220 ]
  %228 = phi i32 [ %200, %199 ], [ %206, %220 ]
  %229 = phi i8* [ %202, %199 ], [ %211, %220 ]
  %230 = icmp eq i8* %229, %227
  br i1 %230, label %237, label %231

231:                                              ; preds = %226
  %232 = load i8, i8* %227, align 1, !tbaa !3
  %233 = load i8, i8* %229, align 1, !tbaa !3
  %234 = icmp slt i8 %232, %233
  br i1 %234, label %235, label %237

235:                                              ; preds = %231
  store i8 %232, i8* %229, align 1, !tbaa !3
  store i8 %233, i8* %227, align 1, !tbaa !3
  %236 = add i32 %228, 1
  br label %237

237:                                              ; preds = %226, %235, %231
  %238 = phi i32 [ %236, %235 ], [ %228, %231 ], [ %228, %226 ]
  %239 = icmp eq i32 %238, 0
  br i1 %239, label %240, label %247

240:                                              ; preds = %237
  %241 = tail call zeroext i1 @_ZNSt3__127__insertion_sort_incompleteIRNS_6__lessIccEEPcEEbT0_S5_T_(i8* nonnull %13, i8* %229, %"struct.std::__1::__less"* nonnull align 1 dereferenceable(1) %2)
  %242 = getelementptr inbounds i8, i8* %229, i64 1
  %243 = tail call zeroext i1 @_ZNSt3__127__insertion_sort_incompleteIRNS_6__lessIccEEPcEEbT0_S5_T_(i8* nonnull %242, i8* %5, %"struct.std::__1::__less"* nonnull align 1 dereferenceable(1) %2)
  br i1 %243, label %244, label %246

244:                                              ; preds = %240
  br i1 %241, label %262, label %245

245:                                              ; preds = %244, %257
  br label %4

246:                                              ; preds = %240
  br i1 %241, label %259, label %247

247:                                              ; preds = %237, %246
  %248 = ptrtoint i8* %13 to i64
  %249 = ptrtoint i8* %229 to i64
  %250 = sub i64 %249, %248
  %251 = sub i64 %9, %249
  %252 = icmp slt i64 %250, %251
  br i1 %252, label %253, label %257

253:                                              ; preds = %247
  tail call void @_ZNSt3__16__sortIRNS_6__lessIccEEPcEEvT0_S5_T_(i8* %13, i8* %229, %"struct.std::__1::__less"* nonnull align 1 dereferenceable(1) %2)
  %254 = getelementptr inbounds i8, i8* %229, i64 1
  br label %255

255:                                              ; preds = %259, %259, %253
  %256 = phi i8* [ %254, %253 ], [ %261, %259 ], [ %261, %259 ]
  br label %10

257:                                              ; preds = %247
  %258 = getelementptr inbounds i8, i8* %229, i64 1
  tail call void @_ZNSt3__16__sortIRNS_6__lessIccEEPcEEvT0_S5_T_(i8* nonnull %258, i8* %5, %"struct.std::__1::__less"* nonnull align 1 dereferenceable(1) %2)
  br label %245

259:                                              ; preds = %191, %246
  %260 = phi i32 [ 2, %246 ], [ 4, %191 ]
  %261 = phi i8* [ %242, %246 ], [ %182, %191 ]
  switch i32 %260, label %262 [
    i32 0, label %255
    i32 4, label %12
    i32 2, label %255
  ]

262:                                              ; preds = %244, %174, %12, %12, %259, %163, %171, %118, %97, %71, %68, %64, %60, %41, %38, %37, %35, %31, %30, %16, %21, %72
  ret void
}

; Function Attrs: nounwind uwtable
define linkonce_odr hidden i32 @_ZNSt3__17__sort5IRNS_6__lessIccEEPcEEjT0_S5_S5_S5_S5_T_(i8* %0, i8* %1, i8* %2, i8* %3, i8* %4, %"struct.std::__1::__less"* nonnull align 1 dereferenceable(1) %5) local_unnamed_addr #1 comdat {
  %7 = load i8, i8* %1, align 1, !tbaa !3
  %8 = load i8, i8* %0, align 1, !tbaa !3
  %9 = icmp slt i8 %7, %8
  %10 = load i8, i8* %2, align 1, !tbaa !3
  %11 = icmp slt i8 %10, %7
  br i1 %9, label %19, label %12

12:                                               ; preds = %6
  br i1 %11, label %13, label %25

13:                                               ; preds = %12
  store i8 %10, i8* %1, align 1, !tbaa !3
  store i8 %7, i8* %2, align 1, !tbaa !3
  %14 = load i8, i8* %1, align 1, !tbaa !3
  %15 = load i8, i8* %0, align 1, !tbaa !3
  %16 = icmp slt i8 %14, %15
  br i1 %16, label %17, label %25

17:                                               ; preds = %13
  store i8 %14, i8* %0, align 1, !tbaa !3
  store i8 %15, i8* %1, align 1, !tbaa !3
  %18 = load i8, i8* %2, align 1, !tbaa !3
  br label %25

19:                                               ; preds = %6
  br i1 %11, label %20, label %21

20:                                               ; preds = %19
  store i8 %10, i8* %0, align 1, !tbaa !3
  store i8 %8, i8* %2, align 1, !tbaa !3
  br label %25

21:                                               ; preds = %19
  store i8 %7, i8* %0, align 1, !tbaa !3
  store i8 %8, i8* %1, align 1, !tbaa !3
  %22 = load i8, i8* %2, align 1, !tbaa !3
  %23 = icmp slt i8 %22, %8
  br i1 %23, label %24, label %25

24:                                               ; preds = %21
  store i8 %22, i8* %1, align 1, !tbaa !3
  store i8 %8, i8* %2, align 1, !tbaa !3
  br label %25

25:                                               ; preds = %24, %21, %20, %17, %13, %12
  %26 = phi i8 [ %8, %20 ], [ %10, %12 ], [ %18, %17 ], [ %7, %13 ], [ %8, %24 ], [ %22, %21 ]
  %27 = phi i32 [ 1, %20 ], [ 0, %12 ], [ 2, %17 ], [ 1, %13 ], [ 2, %24 ], [ 1, %21 ]
  %28 = load i8, i8* %3, align 1, !tbaa !3
  %29 = icmp slt i8 %28, %26
  br i1 %29, label %30, label %42

30:                                               ; preds = %25
  store i8 %28, i8* %2, align 1, !tbaa !3
  store i8 %26, i8* %3, align 1, !tbaa !3
  %31 = add nuw nsw i32 %27, 1
  %32 = load i8, i8* %2, align 1, !tbaa !3
  %33 = load i8, i8* %1, align 1, !tbaa !3
  %34 = icmp slt i8 %32, %33
  br i1 %34, label %35, label %42

35:                                               ; preds = %30
  store i8 %32, i8* %1, align 1, !tbaa !3
  store i8 %33, i8* %2, align 1, !tbaa !3
  %36 = add nuw nsw i32 %27, 2
  %37 = load i8, i8* %1, align 1, !tbaa !3
  %38 = load i8, i8* %0, align 1, !tbaa !3
  %39 = icmp slt i8 %37, %38
  br i1 %39, label %40, label %42

40:                                               ; preds = %35
  store i8 %37, i8* %0, align 1, !tbaa !3
  store i8 %38, i8* %1, align 1, !tbaa !3
  %41 = add nuw nsw i32 %27, 3
  br label %42

42:                                               ; preds = %25, %30, %35, %40
  %43 = phi i32 [ %41, %40 ], [ %36, %35 ], [ %31, %30 ], [ %27, %25 ]
  %44 = load i8, i8* %4, align 1, !tbaa !3
  %45 = load i8, i8* %3, align 1, !tbaa !3
  %46 = icmp slt i8 %44, %45
  br i1 %46, label %47, label %64

47:                                               ; preds = %42
  store i8 %44, i8* %3, align 1, !tbaa !3
  store i8 %45, i8* %4, align 1, !tbaa !3
  %48 = add nuw nsw i32 %43, 1
  %49 = load i8, i8* %3, align 1, !tbaa !3
  %50 = load i8, i8* %2, align 1, !tbaa !3
  %51 = icmp slt i8 %49, %50
  br i1 %51, label %52, label %64

52:                                               ; preds = %47
  store i8 %49, i8* %2, align 1, !tbaa !3
  store i8 %50, i8* %3, align 1, !tbaa !3
  %53 = add nuw nsw i32 %43, 2
  %54 = load i8, i8* %2, align 1, !tbaa !3
  %55 = load i8, i8* %1, align 1, !tbaa !3
  %56 = icmp slt i8 %54, %55
  br i1 %56, label %57, label %64

57:                                               ; preds = %52
  store i8 %54, i8* %1, align 1, !tbaa !3
  store i8 %55, i8* %2, align 1, !tbaa !3
  %58 = add nuw nsw i32 %43, 3
  %59 = load i8, i8* %1, align 1, !tbaa !3
  %60 = load i8, i8* %0, align 1, !tbaa !3
  %61 = icmp slt i8 %59, %60
  br i1 %61, label %62, label %64

62:                                               ; preds = %57
  store i8 %59, i8* %0, align 1, !tbaa !3
  store i8 %60, i8* %1, align 1, !tbaa !3
  %63 = add nuw nsw i32 %43, 4
  br label %64

64:                                               ; preds = %47, %57, %62, %52, %42
  %65 = phi i32 [ %63, %62 ], [ %58, %57 ], [ %53, %52 ], [ %48, %47 ], [ %43, %42 ]
  ret i32 %65
}

; Function Attrs: uwtable
define weak_odr zeroext i1 @_ZNSt3__127__insertion_sort_incompleteIRNS_6__lessIccEEPcEEbT0_S5_T_(i8* %0, i8* %1, %"struct.std::__1::__less"* nonnull align 1 dereferenceable(1) %2) local_unnamed_addr #0 comdat {
  %4 = ptrtoint i8* %1 to i64
  %5 = ptrtoint i8* %0 to i64
  %6 = sub i64 %4, %5
  switch i64 %6, label %69 [
    i64 0, label %119
    i64 1, label %119
    i64 2, label %7
    i64 3, label %13
    i64 4, label %33
    i64 5, label %63
  ]

7:                                                ; preds = %3
  %8 = getelementptr inbounds i8, i8* %1, i64 -1
  %9 = load i8, i8* %8, align 1, !tbaa !3
  %10 = load i8, i8* %0, align 1, !tbaa !3
  %11 = icmp slt i8 %9, %10
  br i1 %11, label %12, label %119

12:                                               ; preds = %7
  store i8 %9, i8* %0, align 1, !tbaa !3
  store i8 %10, i8* %8, align 1, !tbaa !3
  br label %119

13:                                               ; preds = %3
  %14 = getelementptr inbounds i8, i8* %0, i64 1
  %15 = getelementptr inbounds i8, i8* %1, i64 -1
  %16 = load i8, i8* %14, align 1, !tbaa !3
  %17 = load i8, i8* %0, align 1, !tbaa !3
  %18 = icmp slt i8 %16, %17
  %19 = load i8, i8* %15, align 1, !tbaa !3
  %20 = icmp slt i8 %19, %16
  br i1 %18, label %27, label %21

21:                                               ; preds = %13
  br i1 %20, label %22, label %119

22:                                               ; preds = %21
  store i8 %19, i8* %14, align 1, !tbaa !3
  store i8 %16, i8* %15, align 1, !tbaa !3
  %23 = load i8, i8* %14, align 1, !tbaa !3
  %24 = load i8, i8* %0, align 1, !tbaa !3
  %25 = icmp slt i8 %23, %24
  br i1 %25, label %26, label %119

26:                                               ; preds = %22
  store i8 %23, i8* %0, align 1, !tbaa !3
  store i8 %24, i8* %14, align 1, !tbaa !3
  br label %119

27:                                               ; preds = %13
  br i1 %20, label %28, label %29

28:                                               ; preds = %27
  store i8 %19, i8* %0, align 1, !tbaa !3
  store i8 %17, i8* %15, align 1, !tbaa !3
  br label %119

29:                                               ; preds = %27
  store i8 %16, i8* %0, align 1, !tbaa !3
  store i8 %17, i8* %14, align 1, !tbaa !3
  %30 = load i8, i8* %15, align 1, !tbaa !3
  %31 = icmp slt i8 %30, %17
  br i1 %31, label %32, label %119

32:                                               ; preds = %29
  store i8 %30, i8* %14, align 1, !tbaa !3
  store i8 %17, i8* %15, align 1, !tbaa !3
  br label %119

33:                                               ; preds = %3
  %34 = getelementptr inbounds i8, i8* %0, i64 1
  %35 = getelementptr inbounds i8, i8* %0, i64 2
  %36 = getelementptr inbounds i8, i8* %1, i64 -1
  %37 = load i8, i8* %34, align 1, !tbaa !3
  %38 = load i8, i8* %0, align 1, !tbaa !3
  %39 = icmp slt i8 %37, %38
  %40 = load i8, i8* %35, align 1, !tbaa !3
  %41 = icmp slt i8 %40, %37
  br i1 %39, label %46, label %42

42:                                               ; preds = %33
  br i1 %41, label %43, label %51

43:                                               ; preds = %42
  store i8 %40, i8* %34, align 1, !tbaa !3
  store i8 %37, i8* %35, align 1, !tbaa !3
  %44 = icmp slt i8 %40, %38
  br i1 %44, label %45, label %51

45:                                               ; preds = %43
  store i8 %40, i8* %0, align 1, !tbaa !3
  store i8 %38, i8* %34, align 1, !tbaa !3
  br label %51

46:                                               ; preds = %33
  br i1 %41, label %47, label %48

47:                                               ; preds = %46
  store i8 %40, i8* %0, align 1, !tbaa !3
  store i8 %38, i8* %35, align 1, !tbaa !3
  br label %51

48:                                               ; preds = %46
  store i8 %37, i8* %0, align 1, !tbaa !3
  store i8 %38, i8* %34, align 1, !tbaa !3
  %49 = icmp slt i8 %40, %38
  br i1 %49, label %50, label %51

50:                                               ; preds = %48
  store i8 %40, i8* %34, align 1, !tbaa !3
  store i8 %38, i8* %35, align 1, !tbaa !3
  br label %51

51:                                               ; preds = %50, %48, %47, %45, %43, %42
  %52 = phi i8 [ %38, %47 ], [ %40, %42 ], [ %37, %45 ], [ %37, %43 ], [ %38, %50 ], [ %40, %48 ]
  %53 = load i8, i8* %36, align 1, !tbaa !3
  %54 = icmp slt i8 %53, %52
  br i1 %54, label %55, label %119

55:                                               ; preds = %51
  store i8 %53, i8* %35, align 1, !tbaa !3
  store i8 %52, i8* %36, align 1, !tbaa !3
  %56 = load i8, i8* %35, align 1, !tbaa !3
  %57 = load i8, i8* %34, align 1, !tbaa !3
  %58 = icmp slt i8 %56, %57
  br i1 %58, label %59, label %119

59:                                               ; preds = %55
  store i8 %56, i8* %34, align 1, !tbaa !3
  store i8 %57, i8* %35, align 1, !tbaa !3
  %60 = load i8, i8* %0, align 1, !tbaa !3
  %61 = icmp slt i8 %56, %60
  br i1 %61, label %62, label %119

62:                                               ; preds = %59
  store i8 %56, i8* %0, align 1, !tbaa !3
  store i8 %60, i8* %34, align 1, !tbaa !3
  br label %119

63:                                               ; preds = %3
  %64 = getelementptr inbounds i8, i8* %0, i64 1
  %65 = getelementptr inbounds i8, i8* %0, i64 2
  %66 = getelementptr inbounds i8, i8* %0, i64 3
  %67 = getelementptr inbounds i8, i8* %1, i64 -1
  %68 = tail call i32 @_ZNSt3__17__sort5IRNS_6__lessIccEEPcEEjT0_S5_S5_S5_S5_T_(i8* %0, i8* nonnull %64, i8* nonnull %65, i8* nonnull %66, i8* nonnull %67, %"struct.std::__1::__less"* nonnull align 1 dereferenceable(1) %2)
  br label %119

69:                                               ; preds = %3
  %70 = getelementptr inbounds i8, i8* %0, i64 2
  %71 = getelementptr inbounds i8, i8* %0, i64 1
  %72 = load i8, i8* %71, align 1, !tbaa !3
  %73 = load i8, i8* %0, align 1, !tbaa !3
  %74 = icmp slt i8 %72, %73
  %75 = load i8, i8* %70, align 1, !tbaa !3
  %76 = icmp slt i8 %75, %72
  br i1 %74, label %81, label %77

77:                                               ; preds = %69
  br i1 %76, label %78, label %86

78:                                               ; preds = %77
  store i8 %75, i8* %71, align 1, !tbaa !3
  store i8 %72, i8* %70, align 1, !tbaa !3
  %79 = icmp slt i8 %75, %73
  br i1 %79, label %80, label %86

80:                                               ; preds = %78
  store i8 %75, i8* %0, align 1, !tbaa !3
  store i8 %73, i8* %71, align 1, !tbaa !3
  br label %86

81:                                               ; preds = %69
  br i1 %76, label %82, label %83

82:                                               ; preds = %81
  store i8 %75, i8* %0, align 1, !tbaa !3
  store i8 %73, i8* %70, align 1, !tbaa !3
  br label %86

83:                                               ; preds = %81
  store i8 %72, i8* %0, align 1, !tbaa !3
  store i8 %73, i8* %71, align 1, !tbaa !3
  %84 = icmp slt i8 %75, %73
  br i1 %84, label %85, label %86

85:                                               ; preds = %83
  store i8 %75, i8* %71, align 1, !tbaa !3
  store i8 %73, i8* %70, align 1, !tbaa !3
  br label %86

86:                                               ; preds = %77, %78, %80, %82, %83, %85
  %87 = phi i8 [ %75, %77 ], [ %72, %78 ], [ %72, %80 ], [ %73, %82 ], [ %75, %83 ], [ %73, %85 ]
  %88 = getelementptr inbounds i8, i8* %0, i64 3
  %89 = icmp eq i8* %88, %1
  br i1 %89, label %119, label %90

90:                                               ; preds = %86, %114
  %91 = phi i8 [ %115, %114 ], [ %87, %86 ]
  %92 = phi i8* [ %112, %114 ], [ %88, %86 ]
  %93 = phi i32 [ %111, %114 ], [ 0, %86 ]
  %94 = phi i8* [ %92, %114 ], [ %70, %86 ]
  %95 = load i8, i8* %92, align 1, !tbaa !3
  %96 = icmp slt i8 %95, %91
  br i1 %96, label %97, label %110

97:                                               ; preds = %90, %102
  %98 = phi i8 [ %104, %102 ], [ %91, %90 ]
  %99 = phi i8* [ %100, %102 ], [ %92, %90 ]
  %100 = phi i8* [ %103, %102 ], [ %94, %90 ]
  store i8 %98, i8* %99, align 1, !tbaa !3
  %101 = icmp eq i8* %100, %0
  br i1 %101, label %106, label %102

102:                                              ; preds = %97
  %103 = getelementptr inbounds i8, i8* %100, i64 -1
  %104 = load i8, i8* %103, align 1, !tbaa !3
  %105 = icmp slt i8 %95, %104
  br i1 %105, label %97, label %106

106:                                              ; preds = %97, %102
  %107 = phi i8* [ %0, %97 ], [ %100, %102 ]
  store i8 %95, i8* %107, align 1, !tbaa !3
  %108 = add i32 %93, 1
  %109 = icmp eq i32 %108, 8
  br i1 %109, label %116, label %110

110:                                              ; preds = %106, %90
  %111 = phi i32 [ %108, %106 ], [ %93, %90 ]
  %112 = getelementptr inbounds i8, i8* %92, i64 1
  %113 = icmp eq i8* %112, %1
  br i1 %113, label %119, label %114

114:                                              ; preds = %110
  %115 = load i8, i8* %92, align 1, !tbaa !3
  br label %90

116:                                              ; preds = %106
  %117 = getelementptr inbounds i8, i8* %92, i64 1
  %118 = icmp eq i8* %117, %1
  br label %119

119:                                              ; preds = %110, %116, %86, %62, %59, %55, %51, %32, %29, %28, %26, %22, %21, %7, %12, %3, %3, %63
  %120 = phi i1 [ true, %63 ], [ true, %3 ], [ true, %3 ], [ true, %12 ], [ true, %7 ], [ true, %21 ], [ true, %22 ], [ true, %26 ], [ true, %28 ], [ true, %29 ], [ true, %32 ], [ true, %51 ], [ true, %55 ], [ true, %59 ], [ true, %62 ], [ true, %86 ], [ %118, %116 ], [ true, %110 ]
  ret i1 %120
}

; Function Attrs: uwtable
define weak_odr void @_ZNSt3__16__sortIRNS_6__lessIwwEEPwEEvT0_S5_T_(i32* %0, i32* %1, %"struct.std::__1::__less.0"* nonnull align 1 dereferenceable(1) %2) local_unnamed_addr #0 comdat {
  br label %4

4:                                                ; preds = %246, %3
  %5 = phi i32* [ %1, %3 ], [ %230, %246 ]
  %6 = phi i32* [ %0, %3 ], [ %13, %246 ]
  %7 = ptrtoint i32* %5 to i64
  %8 = getelementptr inbounds i32, i32* %5, i64 -1
  %9 = ptrtoint i32* %5 to i64
  br label %10

10:                                               ; preds = %256, %4
  %11 = phi i32* [ %6, %4 ], [ %257, %256 ]
  br label %12

12:                                               ; preds = %260, %10
  %13 = phi i32* [ %11, %10 ], [ %262, %260 ]
  %14 = ptrtoint i32* %13 to i64
  %15 = sub i64 %7, %14
  %16 = ashr exact i64 %15, 2
  switch i64 %16, label %79 [
    i64 0, label %263
    i64 1, label %263
    i64 2, label %17
    i64 3, label %23
    i64 4, label %43
    i64 5, label %73
  ]

17:                                               ; preds = %12
  %18 = getelementptr inbounds i32, i32* %5, i64 -1
  %19 = load i32, i32* %18, align 4, !tbaa !6
  %20 = load i32, i32* %13, align 4, !tbaa !6
  %21 = icmp slt i32 %19, %20
  br i1 %21, label %22, label %263

22:                                               ; preds = %17
  store i32 %19, i32* %13, align 4, !tbaa !6
  store i32 %20, i32* %18, align 4, !tbaa !6
  br label %263

23:                                               ; preds = %12
  %24 = getelementptr inbounds i32, i32* %13, i64 1
  %25 = getelementptr inbounds i32, i32* %5, i64 -1
  %26 = load i32, i32* %24, align 4, !tbaa !6
  %27 = load i32, i32* %13, align 4, !tbaa !6
  %28 = icmp slt i32 %26, %27
  %29 = load i32, i32* %25, align 4, !tbaa !6
  %30 = icmp slt i32 %29, %26
  br i1 %28, label %37, label %31

31:                                               ; preds = %23
  br i1 %30, label %32, label %263

32:                                               ; preds = %31
  store i32 %29, i32* %24, align 4, !tbaa !6
  store i32 %26, i32* %25, align 4, !tbaa !6
  %33 = load i32, i32* %24, align 4, !tbaa !6
  %34 = load i32, i32* %13, align 4, !tbaa !6
  %35 = icmp slt i32 %33, %34
  br i1 %35, label %36, label %263

36:                                               ; preds = %32
  store i32 %33, i32* %13, align 4, !tbaa !6
  store i32 %34, i32* %24, align 4, !tbaa !6
  br label %263

37:                                               ; preds = %23
  br i1 %30, label %38, label %39

38:                                               ; preds = %37
  store i32 %29, i32* %13, align 4, !tbaa !6
  store i32 %27, i32* %25, align 4, !tbaa !6
  br label %263

39:                                               ; preds = %37
  store i32 %26, i32* %13, align 4, !tbaa !6
  store i32 %27, i32* %24, align 4, !tbaa !6
  %40 = load i32, i32* %25, align 4, !tbaa !6
  %41 = icmp slt i32 %40, %27
  br i1 %41, label %42, label %263

42:                                               ; preds = %39
  store i32 %40, i32* %24, align 4, !tbaa !6
  store i32 %27, i32* %25, align 4, !tbaa !6
  br label %263

43:                                               ; preds = %12
  %44 = getelementptr inbounds i32, i32* %13, i64 1
  %45 = getelementptr inbounds i32, i32* %13, i64 2
  %46 = getelementptr inbounds i32, i32* %5, i64 -1
  %47 = load i32, i32* %44, align 4, !tbaa !6
  %48 = load i32, i32* %13, align 4, !tbaa !6
  %49 = icmp slt i32 %47, %48
  %50 = load i32, i32* %45, align 4, !tbaa !6
  %51 = icmp slt i32 %50, %47
  br i1 %49, label %56, label %52

52:                                               ; preds = %43
  br i1 %51, label %53, label %61

53:                                               ; preds = %52
  store i32 %50, i32* %44, align 4, !tbaa !6
  store i32 %47, i32* %45, align 4, !tbaa !6
  %54 = icmp slt i32 %50, %48
  br i1 %54, label %55, label %61

55:                                               ; preds = %53
  store i32 %50, i32* %13, align 4, !tbaa !6
  store i32 %48, i32* %44, align 4, !tbaa !6
  br label %61

56:                                               ; preds = %43
  br i1 %51, label %57, label %58

57:                                               ; preds = %56
  store i32 %50, i32* %13, align 4, !tbaa !6
  store i32 %48, i32* %45, align 4, !tbaa !6
  br label %61

58:                                               ; preds = %56
  store i32 %47, i32* %13, align 4, !tbaa !6
  store i32 %48, i32* %44, align 4, !tbaa !6
  %59 = icmp slt i32 %50, %48
  br i1 %59, label %60, label %61

60:                                               ; preds = %58
  store i32 %50, i32* %44, align 4, !tbaa !6
  store i32 %48, i32* %45, align 4, !tbaa !6
  br label %61

61:                                               ; preds = %60, %58, %57, %55, %53, %52
  %62 = phi i32 [ %48, %57 ], [ %50, %52 ], [ %47, %55 ], [ %47, %53 ], [ %48, %60 ], [ %50, %58 ]
  %63 = load i32, i32* %46, align 4, !tbaa !6
  %64 = icmp slt i32 %63, %62
  br i1 %64, label %65, label %263

65:                                               ; preds = %61
  store i32 %63, i32* %45, align 4, !tbaa !6
  store i32 %62, i32* %46, align 4, !tbaa !6
  %66 = load i32, i32* %45, align 4, !tbaa !6
  %67 = load i32, i32* %44, align 4, !tbaa !6
  %68 = icmp slt i32 %66, %67
  br i1 %68, label %69, label %263

69:                                               ; preds = %65
  store i32 %66, i32* %44, align 4, !tbaa !6
  store i32 %67, i32* %45, align 4, !tbaa !6
  %70 = load i32, i32* %13, align 4, !tbaa !6
  %71 = icmp slt i32 %66, %70
  br i1 %71, label %72, label %263

72:                                               ; preds = %69
  store i32 %66, i32* %13, align 4, !tbaa !6
  store i32 %70, i32* %44, align 4, !tbaa !6
  br label %263

73:                                               ; preds = %12
  %74 = getelementptr inbounds i32, i32* %13, i64 1
  %75 = getelementptr inbounds i32, i32* %13, i64 2
  %76 = getelementptr inbounds i32, i32* %13, i64 3
  %77 = getelementptr inbounds i32, i32* %5, i64 -1
  %78 = tail call i32 @_ZNSt3__17__sort5IRNS_6__lessIwwEEPwEEjT0_S5_S5_S5_S5_T_(i32* %13, i32* nonnull %74, i32* nonnull %75, i32* nonnull %76, i32* nonnull %77, %"struct.std::__1::__less.0"* nonnull align 1 dereferenceable(1) %2)
  br label %263

79:                                               ; preds = %12
  %80 = icmp slt i64 %15, 124
  br i1 %80, label %81, label %124

81:                                               ; preds = %79
  %82 = getelementptr inbounds i32, i32* %13, i64 2
  %83 = getelementptr inbounds i32, i32* %13, i64 1
  %84 = load i32, i32* %83, align 4, !tbaa !6
  %85 = load i32, i32* %13, align 4, !tbaa !6
  %86 = icmp slt i32 %84, %85
  %87 = load i32, i32* %82, align 4, !tbaa !6
  %88 = icmp slt i32 %87, %84
  br i1 %86, label %93, label %89

89:                                               ; preds = %81
  br i1 %88, label %90, label %98

90:                                               ; preds = %89
  store i32 %87, i32* %83, align 4, !tbaa !6
  store i32 %84, i32* %82, align 4, !tbaa !6
  %91 = icmp slt i32 %87, %85
  br i1 %91, label %92, label %98

92:                                               ; preds = %90
  store i32 %87, i32* %13, align 4, !tbaa !6
  store i32 %85, i32* %83, align 4, !tbaa !6
  br label %98

93:                                               ; preds = %81
  br i1 %88, label %94, label %95

94:                                               ; preds = %93
  store i32 %87, i32* %13, align 4, !tbaa !6
  store i32 %85, i32* %82, align 4, !tbaa !6
  br label %98

95:                                               ; preds = %93
  store i32 %84, i32* %13, align 4, !tbaa !6
  store i32 %85, i32* %83, align 4, !tbaa !6
  %96 = icmp slt i32 %87, %85
  br i1 %96, label %97, label %98

97:                                               ; preds = %95
  store i32 %87, i32* %83, align 4, !tbaa !6
  store i32 %85, i32* %82, align 4, !tbaa !6
  br label %98

98:                                               ; preds = %97, %95, %94, %92, %90, %89
  %99 = phi i32 [ %87, %89 ], [ %84, %90 ], [ %84, %92 ], [ %85, %94 ], [ %87, %95 ], [ %85, %97 ]
  %100 = getelementptr inbounds i32, i32* %13, i64 3
  %101 = icmp eq i32* %100, %5
  br i1 %101, label %263, label %102

102:                                              ; preds = %98, %122
  %103 = phi i32 [ %123, %122 ], [ %99, %98 ]
  %104 = phi i32* [ %120, %122 ], [ %100, %98 ]
  %105 = phi i32* [ %104, %122 ], [ %82, %98 ]
  %106 = load i32, i32* %104, align 4, !tbaa !6
  %107 = icmp slt i32 %106, %103
  br i1 %107, label %108, label %119

108:                                              ; preds = %102, %113
  %109 = phi i32 [ %115, %113 ], [ %103, %102 ]
  %110 = phi i32* [ %111, %113 ], [ %104, %102 ]
  %111 = phi i32* [ %114, %113 ], [ %105, %102 ]
  store i32 %109, i32* %110, align 4, !tbaa !6
  %112 = icmp eq i32* %111, %13
  br i1 %112, label %117, label %113

113:                                              ; preds = %108
  %114 = getelementptr inbounds i32, i32* %111, i64 -1
  %115 = load i32, i32* %114, align 4, !tbaa !6
  %116 = icmp slt i32 %106, %115
  br i1 %116, label %108, label %117

117:                                              ; preds = %113, %108
  %118 = phi i32* [ %13, %108 ], [ %111, %113 ]
  store i32 %106, i32* %118, align 4, !tbaa !6
  br label %119

119:                                              ; preds = %117, %102
  %120 = getelementptr inbounds i32, i32* %104, i64 1
  %121 = icmp eq i32* %120, %5
  br i1 %121, label %263, label %122

122:                                              ; preds = %119
  %123 = load i32, i32* %104, align 4, !tbaa !6
  br label %102

124:                                              ; preds = %79
  %125 = icmp sgt i64 %15, 3996
  %126 = sdiv i64 %16, 2
  %127 = getelementptr inbounds i32, i32* %13, i64 %126
  br i1 %125, label %128, label %133

128:                                              ; preds = %124
  %129 = sdiv i64 %16, 4
  %130 = getelementptr inbounds i32, i32* %13, i64 %129
  %131 = getelementptr inbounds i32, i32* %127, i64 %129
  %132 = tail call i32 @_ZNSt3__17__sort5IRNS_6__lessIwwEEPwEEjT0_S5_S5_S5_S5_T_(i32* %13, i32* %130, i32* %127, i32* %131, i32* nonnull %8, %"struct.std::__1::__less.0"* nonnull align 1 dereferenceable(1) %2)
  br label %151

133:                                              ; preds = %124
  %134 = load i32, i32* %127, align 4, !tbaa !6
  %135 = load i32, i32* %13, align 4, !tbaa !6
  %136 = icmp slt i32 %134, %135
  %137 = load i32, i32* %8, align 4, !tbaa !6
  %138 = icmp slt i32 %137, %134
  br i1 %136, label %145, label %139

139:                                              ; preds = %133
  br i1 %138, label %140, label %151

140:                                              ; preds = %139
  store i32 %137, i32* %127, align 4, !tbaa !6
  store i32 %134, i32* %8, align 4, !tbaa !6
  %141 = load i32, i32* %127, align 4, !tbaa !6
  %142 = load i32, i32* %13, align 4, !tbaa !6
  %143 = icmp slt i32 %141, %142
  br i1 %143, label %144, label %151

144:                                              ; preds = %140
  store i32 %141, i32* %13, align 4, !tbaa !6
  store i32 %142, i32* %127, align 4, !tbaa !6
  br label %151

145:                                              ; preds = %133
  br i1 %138, label %146, label %147

146:                                              ; preds = %145
  store i32 %137, i32* %13, align 4, !tbaa !6
  store i32 %135, i32* %8, align 4, !tbaa !6
  br label %151

147:                                              ; preds = %145
  store i32 %134, i32* %13, align 4, !tbaa !6
  store i32 %135, i32* %127, align 4, !tbaa !6
  %148 = load i32, i32* %8, align 4, !tbaa !6
  %149 = icmp slt i32 %148, %135
  br i1 %149, label %150, label %151

150:                                              ; preds = %147
  store i32 %148, i32* %127, align 4, !tbaa !6
  store i32 %135, i32* %8, align 4, !tbaa !6
  br label %151

151:                                              ; preds = %150, %147, %146, %144, %140, %139, %128
  %152 = phi i32 [ %132, %128 ], [ 1, %146 ], [ 0, %139 ], [ 2, %144 ], [ 1, %140 ], [ 2, %150 ], [ 1, %147 ]
  %153 = load i32, i32* %13, align 4, !tbaa !6
  %154 = load i32, i32* %127, align 4, !tbaa !6
  %155 = icmp slt i32 %153, %154
  br i1 %155, label %200, label %156

156:                                              ; preds = %151, %195
  %157 = phi i32* [ %158, %195 ], [ %8, %151 ]
  %158 = getelementptr inbounds i32, i32* %157, i64 -1
  %159 = icmp eq i32* %13, %158
  br i1 %159, label %160, label %195

160:                                              ; preds = %156
  %161 = getelementptr inbounds i32, i32* %13, i64 1
  %162 = load i32, i32* %8, align 4, !tbaa !6
  %163 = icmp slt i32 %153, %162
  br i1 %163, label %175, label %164

164:                                              ; preds = %160
  %165 = icmp eq i32* %161, %8
  br i1 %165, label %263, label %166

166:                                              ; preds = %164, %172
  %167 = phi i32* [ %173, %172 ], [ %161, %164 ]
  %168 = load i32, i32* %167, align 4, !tbaa !6
  %169 = icmp slt i32 %153, %168
  br i1 %169, label %170, label %172

170:                                              ; preds = %166
  store i32 %162, i32* %167, align 4, !tbaa !6
  store i32 %168, i32* %8, align 4, !tbaa !6
  %171 = getelementptr inbounds i32, i32* %167, i64 1
  br label %175

172:                                              ; preds = %166
  %173 = getelementptr inbounds i32, i32* %167, i64 1
  %174 = icmp eq i32* %173, %8
  br i1 %174, label %263, label %166

175:                                              ; preds = %170, %160
  %176 = phi i32* [ %161, %160 ], [ %171, %170 ]
  %177 = icmp eq i32* %176, %8
  br i1 %177, label %263, label %178

178:                                              ; preds = %175, %194
  %179 = phi i32* [ %186, %194 ], [ %176, %175 ]
  %180 = phi i32* [ %189, %194 ], [ %8, %175 ]
  %181 = load i32, i32* %13, align 4, !tbaa !6
  br label %182

182:                                              ; preds = %182, %178
  %183 = phi i32* [ %179, %178 ], [ %186, %182 ]
  %184 = load i32, i32* %183, align 4, !tbaa !6
  %185 = icmp slt i32 %181, %184
  %186 = getelementptr inbounds i32, i32* %183, i64 1
  br i1 %185, label %187, label %182

187:                                              ; preds = %182, %187
  %188 = phi i32* [ %189, %187 ], [ %180, %182 ]
  %189 = getelementptr inbounds i32, i32* %188, i64 -1
  %190 = load i32, i32* %189, align 4, !tbaa !6
  %191 = icmp slt i32 %181, %190
  br i1 %191, label %187, label %192

192:                                              ; preds = %187
  %193 = icmp ult i32* %183, %189
  br i1 %193, label %194, label %260

194:                                              ; preds = %192
  store i32 %190, i32* %183, align 4, !tbaa !6
  store i32 %184, i32* %189, align 4, !tbaa !6
  br label %178

195:                                              ; preds = %156
  %196 = load i32, i32* %158, align 4, !tbaa !6
  %197 = icmp slt i32 %196, %154
  br i1 %197, label %198, label %156

198:                                              ; preds = %195
  store i32 %196, i32* %13, align 4, !tbaa !6
  store i32 %153, i32* %158, align 4, !tbaa !6
  %199 = add i32 %152, 1
  br label %200

200:                                              ; preds = %198, %151
  %201 = phi i32 [ %152, %151 ], [ %199, %198 ]
  %202 = phi i32* [ %8, %151 ], [ %158, %198 ]
  %203 = getelementptr inbounds i32, i32* %13, i64 1
  %204 = icmp ult i32* %203, %202
  br i1 %204, label %205, label %227

205:                                              ; preds = %200, %223
  %206 = phi i32* [ %226, %223 ], [ %127, %200 ]
  %207 = phi i32 [ %224, %223 ], [ %201, %200 ]
  %208 = phi i32* [ %215, %223 ], [ %203, %200 ]
  %209 = phi i32* [ %218, %223 ], [ %202, %200 ]
  %210 = load i32, i32* %206, align 4, !tbaa !6
  br label %211

211:                                              ; preds = %211, %205
  %212 = phi i32* [ %208, %205 ], [ %215, %211 ]
  %213 = load i32, i32* %212, align 4, !tbaa !6
  %214 = icmp slt i32 %213, %210
  %215 = getelementptr inbounds i32, i32* %212, i64 1
  br i1 %214, label %211, label %216

216:                                              ; preds = %211, %216
  %217 = phi i32* [ %218, %216 ], [ %209, %211 ]
  %218 = getelementptr inbounds i32, i32* %217, i64 -1
  %219 = load i32, i32* %218, align 4, !tbaa !6
  %220 = icmp slt i32 %219, %210
  br i1 %220, label %221, label %216

221:                                              ; preds = %216
  %222 = icmp ugt i32* %212, %218
  br i1 %222, label %227, label %223

223:                                              ; preds = %221
  store i32 %219, i32* %212, align 4, !tbaa !6
  store i32 %213, i32* %218, align 4, !tbaa !6
  %224 = add i32 %207, 1
  %225 = icmp eq i32* %206, %212
  %226 = select i1 %225, i32* %218, i32* %206
  br label %205

227:                                              ; preds = %221, %200
  %228 = phi i32* [ %127, %200 ], [ %206, %221 ]
  %229 = phi i32 [ %201, %200 ], [ %207, %221 ]
  %230 = phi i32* [ %203, %200 ], [ %212, %221 ]
  %231 = icmp eq i32* %230, %228
  br i1 %231, label %238, label %232

232:                                              ; preds = %227
  %233 = load i32, i32* %228, align 4, !tbaa !6
  %234 = load i32, i32* %230, align 4, !tbaa !6
  %235 = icmp slt i32 %233, %234
  br i1 %235, label %236, label %238

236:                                              ; preds = %232
  store i32 %233, i32* %230, align 4, !tbaa !6
  store i32 %234, i32* %228, align 4, !tbaa !6
  %237 = add i32 %229, 1
  br label %238

238:                                              ; preds = %227, %236, %232
  %239 = phi i32 [ %237, %236 ], [ %229, %232 ], [ %229, %227 ]
  %240 = icmp eq i32 %239, 0
  br i1 %240, label %241, label %248

241:                                              ; preds = %238
  %242 = tail call zeroext i1 @_ZNSt3__127__insertion_sort_incompleteIRNS_6__lessIwwEEPwEEbT0_S5_T_(i32* nonnull %13, i32* %230, %"struct.std::__1::__less.0"* nonnull align 1 dereferenceable(1) %2)
  %243 = getelementptr inbounds i32, i32* %230, i64 1
  %244 = tail call zeroext i1 @_ZNSt3__127__insertion_sort_incompleteIRNS_6__lessIwwEEPwEEbT0_S5_T_(i32* nonnull %243, i32* %5, %"struct.std::__1::__less.0"* nonnull align 1 dereferenceable(1) %2)
  br i1 %244, label %245, label %247

245:                                              ; preds = %241
  br i1 %242, label %263, label %246

246:                                              ; preds = %245, %258
  br label %4

247:                                              ; preds = %241
  br i1 %242, label %260, label %248

248:                                              ; preds = %238, %247
  %249 = ptrtoint i32* %13 to i64
  %250 = ptrtoint i32* %230 to i64
  %251 = sub i64 %250, %249
  %252 = sub i64 %9, %250
  %253 = icmp slt i64 %251, %252
  br i1 %253, label %254, label %258

254:                                              ; preds = %248
  tail call void @_ZNSt3__16__sortIRNS_6__lessIwwEEPwEEvT0_S5_T_(i32* %13, i32* %230, %"struct.std::__1::__less.0"* nonnull align 1 dereferenceable(1) %2)
  %255 = getelementptr inbounds i32, i32* %230, i64 1
  br label %256

256:                                              ; preds = %260, %260, %254
  %257 = phi i32* [ %255, %254 ], [ %262, %260 ], [ %262, %260 ]
  br label %10

258:                                              ; preds = %248
  %259 = getelementptr inbounds i32, i32* %230, i64 1
  tail call void @_ZNSt3__16__sortIRNS_6__lessIwwEEPwEEvT0_S5_T_(i32* nonnull %259, i32* %5, %"struct.std::__1::__less.0"* nonnull align 1 dereferenceable(1) %2)
  br label %246

260:                                              ; preds = %192, %247
  %261 = phi i32 [ 2, %247 ], [ 4, %192 ]
  %262 = phi i32* [ %243, %247 ], [ %183, %192 ]
  switch i32 %261, label %263 [
    i32 0, label %256
    i32 4, label %12
    i32 2, label %256
  ]

263:                                              ; preds = %245, %175, %12, %12, %260, %164, %172, %119, %98, %72, %69, %65, %61, %42, %39, %38, %36, %32, %31, %17, %22, %73
  ret void
}

; Function Attrs: nounwind uwtable
define linkonce_odr hidden i32 @_ZNSt3__17__sort5IRNS_6__lessIwwEEPwEEjT0_S5_S5_S5_S5_T_(i32* %0, i32* %1, i32* %2, i32* %3, i32* %4, %"struct.std::__1::__less.0"* nonnull align 1 dereferenceable(1) %5) local_unnamed_addr #1 comdat {
  %7 = load i32, i32* %1, align 4, !tbaa !6
  %8 = load i32, i32* %0, align 4, !tbaa !6
  %9 = icmp slt i32 %7, %8
  %10 = load i32, i32* %2, align 4, !tbaa !6
  %11 = icmp slt i32 %10, %7
  br i1 %9, label %19, label %12

12:                                               ; preds = %6
  br i1 %11, label %13, label %25

13:                                               ; preds = %12
  store i32 %10, i32* %1, align 4, !tbaa !6
  store i32 %7, i32* %2, align 4, !tbaa !6
  %14 = load i32, i32* %1, align 4, !tbaa !6
  %15 = load i32, i32* %0, align 4, !tbaa !6
  %16 = icmp slt i32 %14, %15
  br i1 %16, label %17, label %25

17:                                               ; preds = %13
  store i32 %14, i32* %0, align 4, !tbaa !6
  store i32 %15, i32* %1, align 4, !tbaa !6
  %18 = load i32, i32* %2, align 4, !tbaa !6
  br label %25

19:                                               ; preds = %6
  br i1 %11, label %20, label %21

20:                                               ; preds = %19
  store i32 %10, i32* %0, align 4, !tbaa !6
  store i32 %8, i32* %2, align 4, !tbaa !6
  br label %25

21:                                               ; preds = %19
  store i32 %7, i32* %0, align 4, !tbaa !6
  store i32 %8, i32* %1, align 4, !tbaa !6
  %22 = load i32, i32* %2, align 4, !tbaa !6
  %23 = icmp slt i32 %22, %8
  br i1 %23, label %24, label %25

24:                                               ; preds = %21
  store i32 %22, i32* %1, align 4, !tbaa !6
  store i32 %8, i32* %2, align 4, !tbaa !6
  br label %25

25:                                               ; preds = %24, %21, %20, %17, %13, %12
  %26 = phi i32 [ %8, %20 ], [ %10, %12 ], [ %18, %17 ], [ %7, %13 ], [ %8, %24 ], [ %22, %21 ]
  %27 = phi i32 [ 1, %20 ], [ 0, %12 ], [ 2, %17 ], [ 1, %13 ], [ 2, %24 ], [ 1, %21 ]
  %28 = load i32, i32* %3, align 4, !tbaa !6
  %29 = icmp slt i32 %28, %26
  br i1 %29, label %30, label %42

30:                                               ; preds = %25
  store i32 %28, i32* %2, align 4, !tbaa !6
  store i32 %26, i32* %3, align 4, !tbaa !6
  %31 = add nuw nsw i32 %27, 1
  %32 = load i32, i32* %2, align 4, !tbaa !6
  %33 = load i32, i32* %1, align 4, !tbaa !6
  %34 = icmp slt i32 %32, %33
  br i1 %34, label %35, label %42

35:                                               ; preds = %30
  store i32 %32, i32* %1, align 4, !tbaa !6
  store i32 %33, i32* %2, align 4, !tbaa !6
  %36 = add nuw nsw i32 %27, 2
  %37 = load i32, i32* %1, align 4, !tbaa !6
  %38 = load i32, i32* %0, align 4, !tbaa !6
  %39 = icmp slt i32 %37, %38
  br i1 %39, label %40, label %42

40:                                               ; preds = %35
  store i32 %37, i32* %0, align 4, !tbaa !6
  store i32 %38, i32* %1, align 4, !tbaa !6
  %41 = add nuw nsw i32 %27, 3
  br label %42

42:                                               ; preds = %25, %30, %35, %40
  %43 = phi i32 [ %41, %40 ], [ %36, %35 ], [ %31, %30 ], [ %27, %25 ]
  %44 = load i32, i32* %4, align 4, !tbaa !6
  %45 = load i32, i32* %3, align 4, !tbaa !6
  %46 = icmp slt i32 %44, %45
  br i1 %46, label %47, label %64

47:                                               ; preds = %42
  store i32 %44, i32* %3, align 4, !tbaa !6
  store i32 %45, i32* %4, align 4, !tbaa !6
  %48 = add nuw nsw i32 %43, 1
  %49 = load i32, i32* %3, align 4, !tbaa !6
  %50 = load i32, i32* %2, align 4, !tbaa !6
  %51 = icmp slt i32 %49, %50
  br i1 %51, label %52, label %64

52:                                               ; preds = %47
  store i32 %49, i32* %2, align 4, !tbaa !6
  store i32 %50, i32* %3, align 4, !tbaa !6
  %53 = add nuw nsw i32 %43, 2
  %54 = load i32, i32* %2, align 4, !tbaa !6
  %55 = load i32, i32* %1, align 4, !tbaa !6
  %56 = icmp slt i32 %54, %55
  br i1 %56, label %57, label %64

57:                                               ; preds = %52
  store i32 %54, i32* %1, align 4, !tbaa !6
  store i32 %55, i32* %2, align 4, !tbaa !6
  %58 = add nuw nsw i32 %43, 3
  %59 = load i32, i32* %1, align 4, !tbaa !6
  %60 = load i32, i32* %0, align 4, !tbaa !6
  %61 = icmp slt i32 %59, %60
  br i1 %61, label %62, label %64

62:                                               ; preds = %57
  store i32 %59, i32* %0, align 4, !tbaa !6
  store i32 %60, i32* %1, align 4, !tbaa !6
  %63 = add nuw nsw i32 %43, 4
  br label %64

64:                                               ; preds = %47, %57, %62, %52, %42
  %65 = phi i32 [ %63, %62 ], [ %58, %57 ], [ %53, %52 ], [ %48, %47 ], [ %43, %42 ]
  ret i32 %65
}

; Function Attrs: uwtable
define weak_odr zeroext i1 @_ZNSt3__127__insertion_sort_incompleteIRNS_6__lessIwwEEPwEEbT0_S5_T_(i32* %0, i32* %1, %"struct.std::__1::__less.0"* nonnull align 1 dereferenceable(1) %2) local_unnamed_addr #0 comdat {
  %4 = ptrtoint i32* %1 to i64
  %5 = ptrtoint i32* %0 to i64
  %6 = sub i64 %4, %5
  %7 = ashr exact i64 %6, 2
  switch i64 %7, label %70 [
    i64 0, label %120
    i64 1, label %120
    i64 2, label %8
    i64 3, label %14
    i64 4, label %34
    i64 5, label %64
  ]

8:                                                ; preds = %3
  %9 = getelementptr inbounds i32, i32* %1, i64 -1
  %10 = load i32, i32* %9, align 4, !tbaa !6
  %11 = load i32, i32* %0, align 4, !tbaa !6
  %12 = icmp slt i32 %10, %11
  br i1 %12, label %13, label %120

13:                                               ; preds = %8
  store i32 %10, i32* %0, align 4, !tbaa !6
  store i32 %11, i32* %9, align 4, !tbaa !6
  br label %120

14:                                               ; preds = %3
  %15 = getelementptr inbounds i32, i32* %0, i64 1
  %16 = getelementptr inbounds i32, i32* %1, i64 -1
  %17 = load i32, i32* %15, align 4, !tbaa !6
  %18 = load i32, i32* %0, align 4, !tbaa !6
  %19 = icmp slt i32 %17, %18
  %20 = load i32, i32* %16, align 4, !tbaa !6
  %21 = icmp slt i32 %20, %17
  br i1 %19, label %28, label %22

22:                                               ; preds = %14
  br i1 %21, label %23, label %120

23:                                               ; preds = %22
  store i32 %20, i32* %15, align 4, !tbaa !6
  store i32 %17, i32* %16, align 4, !tbaa !6
  %24 = load i32, i32* %15, align 4, !tbaa !6
  %25 = load i32, i32* %0, align 4, !tbaa !6
  %26 = icmp slt i32 %24, %25
  br i1 %26, label %27, label %120

27:                                               ; preds = %23
  store i32 %24, i32* %0, align 4, !tbaa !6
  store i32 %25, i32* %15, align 4, !tbaa !6
  br label %120

28:                                               ; preds = %14
  br i1 %21, label %29, label %30

29:                                               ; preds = %28
  store i32 %20, i32* %0, align 4, !tbaa !6
  store i32 %18, i32* %16, align 4, !tbaa !6
  br label %120

30:                                               ; preds = %28
  store i32 %17, i32* %0, align 4, !tbaa !6
  store i32 %18, i32* %15, align 4, !tbaa !6
  %31 = load i32, i32* %16, align 4, !tbaa !6
  %32 = icmp slt i32 %31, %18
  br i1 %32, label %33, label %120

33:                                               ; preds = %30
  store i32 %31, i32* %15, align 4, !tbaa !6
  store i32 %18, i32* %16, align 4, !tbaa !6
  br label %120

34:                                               ; preds = %3
  %35 = getelementptr inbounds i32, i32* %0, i64 1
  %36 = getelementptr inbounds i32, i32* %0, i64 2
  %37 = getelementptr inbounds i32, i32* %1, i64 -1
  %38 = load i32, i32* %35, align 4, !tbaa !6
  %39 = load i32, i32* %0, align 4, !tbaa !6
  %40 = icmp slt i32 %38, %39
  %41 = load i32, i32* %36, align 4, !tbaa !6
  %42 = icmp slt i32 %41, %38
  br i1 %40, label %47, label %43

43:                                               ; preds = %34
  br i1 %42, label %44, label %52

44:                                               ; preds = %43
  store i32 %41, i32* %35, align 4, !tbaa !6
  store i32 %38, i32* %36, align 4, !tbaa !6
  %45 = icmp slt i32 %41, %39
  br i1 %45, label %46, label %52

46:                                               ; preds = %44
  store i32 %41, i32* %0, align 4, !tbaa !6
  store i32 %39, i32* %35, align 4, !tbaa !6
  br label %52

47:                                               ; preds = %34
  br i1 %42, label %48, label %49

48:                                               ; preds = %47
  store i32 %41, i32* %0, align 4, !tbaa !6
  store i32 %39, i32* %36, align 4, !tbaa !6
  br label %52

49:                                               ; preds = %47
  store i32 %38, i32* %0, align 4, !tbaa !6
  store i32 %39, i32* %35, align 4, !tbaa !6
  %50 = icmp slt i32 %41, %39
  br i1 %50, label %51, label %52

51:                                               ; preds = %49
  store i32 %41, i32* %35, align 4, !tbaa !6
  store i32 %39, i32* %36, align 4, !tbaa !6
  br label %52

52:                                               ; preds = %51, %49, %48, %46, %44, %43
  %53 = phi i32 [ %39, %48 ], [ %41, %43 ], [ %38, %46 ], [ %38, %44 ], [ %39, %51 ], [ %41, %49 ]
  %54 = load i32, i32* %37, align 4, !tbaa !6
  %55 = icmp slt i32 %54, %53
  br i1 %55, label %56, label %120

56:                                               ; preds = %52
  store i32 %54, i32* %36, align 4, !tbaa !6
  store i32 %53, i32* %37, align 4, !tbaa !6
  %57 = load i32, i32* %36, align 4, !tbaa !6
  %58 = load i32, i32* %35, align 4, !tbaa !6
  %59 = icmp slt i32 %57, %58
  br i1 %59, label %60, label %120

60:                                               ; preds = %56
  store i32 %57, i32* %35, align 4, !tbaa !6
  store i32 %58, i32* %36, align 4, !tbaa !6
  %61 = load i32, i32* %0, align 4, !tbaa !6
  %62 = icmp slt i32 %57, %61
  br i1 %62, label %63, label %120

63:                                               ; preds = %60
  store i32 %57, i32* %0, align 4, !tbaa !6
  store i32 %61, i32* %35, align 4, !tbaa !6
  br label %120

64:                                               ; preds = %3
  %65 = getelementptr inbounds i32, i32* %0, i64 1
  %66 = getelementptr inbounds i32, i32* %0, i64 2
  %67 = getelementptr inbounds i32, i32* %0, i64 3
  %68 = getelementptr inbounds i32, i32* %1, i64 -1
  %69 = tail call i32 @_ZNSt3__17__sort5IRNS_6__lessIwwEEPwEEjT0_S5_S5_S5_S5_T_(i32* %0, i32* nonnull %65, i32* nonnull %66, i32* nonnull %67, i32* nonnull %68, %"struct.std::__1::__less.0"* nonnull align 1 dereferenceable(1) %2)
  br label %120

70:                                               ; preds = %3
  %71 = getelementptr inbounds i32, i32* %0, i64 2
  %72 = getelementptr inbounds i32, i32* %0, i64 1
  %73 = load i32, i32* %72, align 4, !tbaa !6
  %74 = load i32, i32* %0, align 4, !tbaa !6
  %75 = icmp slt i32 %73, %74
  %76 = load i32, i32* %71, align 4, !tbaa !6
  %77 = icmp slt i32 %76, %73
  br i1 %75, label %82, label %78

78:                                               ; preds = %70
  br i1 %77, label %79, label %87

79:                                               ; preds = %78
  store i32 %76, i32* %72, align 4, !tbaa !6
  store i32 %73, i32* %71, align 4, !tbaa !6
  %80 = icmp slt i32 %76, %74
  br i1 %80, label %81, label %87

81:                                               ; preds = %79
  store i32 %76, i32* %0, align 4, !tbaa !6
  store i32 %74, i32* %72, align 4, !tbaa !6
  br label %87

82:                                               ; preds = %70
  br i1 %77, label %83, label %84

83:                                               ; preds = %82
  store i32 %76, i32* %0, align 4, !tbaa !6
  store i32 %74, i32* %71, align 4, !tbaa !6
  br label %87

84:                                               ; preds = %82
  store i32 %73, i32* %0, align 4, !tbaa !6
  store i32 %74, i32* %72, align 4, !tbaa !6
  %85 = icmp slt i32 %76, %74
  br i1 %85, label %86, label %87

86:                                               ; preds = %84
  store i32 %76, i32* %72, align 4, !tbaa !6
  store i32 %74, i32* %71, align 4, !tbaa !6
  br label %87

87:                                               ; preds = %78, %79, %81, %83, %84, %86
  %88 = phi i32 [ %76, %78 ], [ %73, %79 ], [ %73, %81 ], [ %74, %83 ], [ %76, %84 ], [ %74, %86 ]
  %89 = getelementptr inbounds i32, i32* %0, i64 3
  %90 = icmp eq i32* %89, %1
  br i1 %90, label %120, label %91

91:                                               ; preds = %87, %115
  %92 = phi i32 [ %116, %115 ], [ %88, %87 ]
  %93 = phi i32* [ %113, %115 ], [ %89, %87 ]
  %94 = phi i32 [ %112, %115 ], [ 0, %87 ]
  %95 = phi i32* [ %93, %115 ], [ %71, %87 ]
  %96 = load i32, i32* %93, align 4, !tbaa !6
  %97 = icmp slt i32 %96, %92
  br i1 %97, label %98, label %111

98:                                               ; preds = %91, %103
  %99 = phi i32 [ %105, %103 ], [ %92, %91 ]
  %100 = phi i32* [ %101, %103 ], [ %93, %91 ]
  %101 = phi i32* [ %104, %103 ], [ %95, %91 ]
  store i32 %99, i32* %100, align 4, !tbaa !6
  %102 = icmp eq i32* %101, %0
  br i1 %102, label %107, label %103

103:                                              ; preds = %98
  %104 = getelementptr inbounds i32, i32* %101, i64 -1
  %105 = load i32, i32* %104, align 4, !tbaa !6
  %106 = icmp slt i32 %96, %105
  br i1 %106, label %98, label %107

107:                                              ; preds = %98, %103
  %108 = phi i32* [ %0, %98 ], [ %101, %103 ]
  store i32 %96, i32* %108, align 4, !tbaa !6
  %109 = add i32 %94, 1
  %110 = icmp eq i32 %109, 8
  br i1 %110, label %117, label %111

111:                                              ; preds = %107, %91
  %112 = phi i32 [ %109, %107 ], [ %94, %91 ]
  %113 = getelementptr inbounds i32, i32* %93, i64 1
  %114 = icmp eq i32* %113, %1
  br i1 %114, label %120, label %115

115:                                              ; preds = %111
  %116 = load i32, i32* %93, align 4, !tbaa !6
  br label %91

117:                                              ; preds = %107
  %118 = getelementptr inbounds i32, i32* %93, i64 1
  %119 = icmp eq i32* %118, %1
  br label %120

120:                                              ; preds = %111, %117, %87, %63, %60, %56, %52, %33, %30, %29, %27, %23, %22, %8, %13, %3, %3, %64
  %121 = phi i1 [ true, %64 ], [ true, %3 ], [ true, %3 ], [ true, %13 ], [ true, %8 ], [ true, %22 ], [ true, %23 ], [ true, %27 ], [ true, %29 ], [ true, %30 ], [ true, %33 ], [ true, %52 ], [ true, %56 ], [ true, %60 ], [ true, %63 ], [ true, %87 ], [ %119, %117 ], [ true, %111 ]
  ret i1 %121
}

; Function Attrs: uwtable
define weak_odr void @_ZNSt3__16__sortIRNS_6__lessIaaEEPaEEvT0_S5_T_(i8* %0, i8* %1, %"struct.std::__1::__less.1"* nonnull align 1 dereferenceable(1) %2) local_unnamed_addr #0 comdat {
  br label %4

4:                                                ; preds = %245, %3
  %5 = phi i8* [ %1, %3 ], [ %229, %245 ]
  %6 = phi i8* [ %0, %3 ], [ %13, %245 ]
  %7 = ptrtoint i8* %5 to i64
  %8 = getelementptr inbounds i8, i8* %5, i64 -1
  %9 = ptrtoint i8* %5 to i64
  br label %10

10:                                               ; preds = %255, %4
  %11 = phi i8* [ %6, %4 ], [ %256, %255 ]
  br label %12

12:                                               ; preds = %259, %10
  %13 = phi i8* [ %11, %10 ], [ %261, %259 ]
  %14 = ptrtoint i8* %13 to i64
  %15 = sub i64 %7, %14
  switch i64 %15, label %78 [
    i64 0, label %262
    i64 1, label %262
    i64 2, label %16
    i64 3, label %22
    i64 4, label %42
    i64 5, label %72
  ]

16:                                               ; preds = %12
  %17 = getelementptr inbounds i8, i8* %5, i64 -1
  %18 = load i8, i8* %17, align 1, !tbaa !3
  %19 = load i8, i8* %13, align 1, !tbaa !3
  %20 = icmp slt i8 %18, %19
  br i1 %20, label %21, label %262

21:                                               ; preds = %16
  store i8 %18, i8* %13, align 1, !tbaa !3
  store i8 %19, i8* %17, align 1, !tbaa !3
  br label %262

22:                                               ; preds = %12
  %23 = getelementptr inbounds i8, i8* %13, i64 1
  %24 = getelementptr inbounds i8, i8* %5, i64 -1
  %25 = load i8, i8* %23, align 1, !tbaa !3
  %26 = load i8, i8* %13, align 1, !tbaa !3
  %27 = icmp slt i8 %25, %26
  %28 = load i8, i8* %24, align 1, !tbaa !3
  %29 = icmp slt i8 %28, %25
  br i1 %27, label %36, label %30

30:                                               ; preds = %22
  br i1 %29, label %31, label %262

31:                                               ; preds = %30
  store i8 %28, i8* %23, align 1, !tbaa !3
  store i8 %25, i8* %24, align 1, !tbaa !3
  %32 = load i8, i8* %23, align 1, !tbaa !3
  %33 = load i8, i8* %13, align 1, !tbaa !3
  %34 = icmp slt i8 %32, %33
  br i1 %34, label %35, label %262

35:                                               ; preds = %31
  store i8 %32, i8* %13, align 1, !tbaa !3
  store i8 %33, i8* %23, align 1, !tbaa !3
  br label %262

36:                                               ; preds = %22
  br i1 %29, label %37, label %38

37:                                               ; preds = %36
  store i8 %28, i8* %13, align 1, !tbaa !3
  store i8 %26, i8* %24, align 1, !tbaa !3
  br label %262

38:                                               ; preds = %36
  store i8 %25, i8* %13, align 1, !tbaa !3
  store i8 %26, i8* %23, align 1, !tbaa !3
  %39 = load i8, i8* %24, align 1, !tbaa !3
  %40 = icmp slt i8 %39, %26
  br i1 %40, label %41, label %262

41:                                               ; preds = %38
  store i8 %39, i8* %23, align 1, !tbaa !3
  store i8 %26, i8* %24, align 1, !tbaa !3
  br label %262

42:                                               ; preds = %12
  %43 = getelementptr inbounds i8, i8* %13, i64 1
  %44 = getelementptr inbounds i8, i8* %13, i64 2
  %45 = getelementptr inbounds i8, i8* %5, i64 -1
  %46 = load i8, i8* %43, align 1, !tbaa !3
  %47 = load i8, i8* %13, align 1, !tbaa !3
  %48 = icmp slt i8 %46, %47
  %49 = load i8, i8* %44, align 1, !tbaa !3
  %50 = icmp slt i8 %49, %46
  br i1 %48, label %55, label %51

51:                                               ; preds = %42
  br i1 %50, label %52, label %60

52:                                               ; preds = %51
  store i8 %49, i8* %43, align 1, !tbaa !3
  store i8 %46, i8* %44, align 1, !tbaa !3
  %53 = icmp slt i8 %49, %47
  br i1 %53, label %54, label %60

54:                                               ; preds = %52
  store i8 %49, i8* %13, align 1, !tbaa !3
  store i8 %47, i8* %43, align 1, !tbaa !3
  br label %60

55:                                               ; preds = %42
  br i1 %50, label %56, label %57

56:                                               ; preds = %55
  store i8 %49, i8* %13, align 1, !tbaa !3
  store i8 %47, i8* %44, align 1, !tbaa !3
  br label %60

57:                                               ; preds = %55
  store i8 %46, i8* %13, align 1, !tbaa !3
  store i8 %47, i8* %43, align 1, !tbaa !3
  %58 = icmp slt i8 %49, %47
  br i1 %58, label %59, label %60

59:                                               ; preds = %57
  store i8 %49, i8* %43, align 1, !tbaa !3
  store i8 %47, i8* %44, align 1, !tbaa !3
  br label %60

60:                                               ; preds = %59, %57, %56, %54, %52, %51
  %61 = phi i8 [ %47, %56 ], [ %49, %51 ], [ %46, %54 ], [ %46, %52 ], [ %47, %59 ], [ %49, %57 ]
  %62 = load i8, i8* %45, align 1, !tbaa !3
  %63 = icmp slt i8 %62, %61
  br i1 %63, label %64, label %262

64:                                               ; preds = %60
  store i8 %62, i8* %44, align 1, !tbaa !3
  store i8 %61, i8* %45, align 1, !tbaa !3
  %65 = load i8, i8* %44, align 1, !tbaa !3
  %66 = load i8, i8* %43, align 1, !tbaa !3
  %67 = icmp slt i8 %65, %66
  br i1 %67, label %68, label %262

68:                                               ; preds = %64
  store i8 %65, i8* %43, align 1, !tbaa !3
  store i8 %66, i8* %44, align 1, !tbaa !3
  %69 = load i8, i8* %13, align 1, !tbaa !3
  %70 = icmp slt i8 %65, %69
  br i1 %70, label %71, label %262

71:                                               ; preds = %68
  store i8 %65, i8* %13, align 1, !tbaa !3
  store i8 %69, i8* %43, align 1, !tbaa !3
  br label %262

72:                                               ; preds = %12
  %73 = getelementptr inbounds i8, i8* %13, i64 1
  %74 = getelementptr inbounds i8, i8* %13, i64 2
  %75 = getelementptr inbounds i8, i8* %13, i64 3
  %76 = getelementptr inbounds i8, i8* %5, i64 -1
  %77 = tail call i32 @_ZNSt3__17__sort5IRNS_6__lessIaaEEPaEEjT0_S5_S5_S5_S5_T_(i8* %13, i8* nonnull %73, i8* nonnull %74, i8* nonnull %75, i8* nonnull %76, %"struct.std::__1::__less.1"* nonnull align 1 dereferenceable(1) %2)
  br label %262

78:                                               ; preds = %12
  %79 = icmp slt i64 %15, 31
  br i1 %79, label %80, label %123

80:                                               ; preds = %78
  %81 = getelementptr inbounds i8, i8* %13, i64 2
  %82 = getelementptr inbounds i8, i8* %13, i64 1
  %83 = load i8, i8* %82, align 1, !tbaa !3
  %84 = load i8, i8* %13, align 1, !tbaa !3
  %85 = icmp slt i8 %83, %84
  %86 = load i8, i8* %81, align 1, !tbaa !3
  %87 = icmp slt i8 %86, %83
  br i1 %85, label %92, label %88

88:                                               ; preds = %80
  br i1 %87, label %89, label %97

89:                                               ; preds = %88
  store i8 %86, i8* %82, align 1, !tbaa !3
  store i8 %83, i8* %81, align 1, !tbaa !3
  %90 = icmp slt i8 %86, %84
  br i1 %90, label %91, label %97

91:                                               ; preds = %89
  store i8 %86, i8* %13, align 1, !tbaa !3
  store i8 %84, i8* %82, align 1, !tbaa !3
  br label %97

92:                                               ; preds = %80
  br i1 %87, label %93, label %94

93:                                               ; preds = %92
  store i8 %86, i8* %13, align 1, !tbaa !3
  store i8 %84, i8* %81, align 1, !tbaa !3
  br label %97

94:                                               ; preds = %92
  store i8 %83, i8* %13, align 1, !tbaa !3
  store i8 %84, i8* %82, align 1, !tbaa !3
  %95 = icmp slt i8 %86, %84
  br i1 %95, label %96, label %97

96:                                               ; preds = %94
  store i8 %86, i8* %82, align 1, !tbaa !3
  store i8 %84, i8* %81, align 1, !tbaa !3
  br label %97

97:                                               ; preds = %96, %94, %93, %91, %89, %88
  %98 = phi i8 [ %86, %88 ], [ %83, %89 ], [ %83, %91 ], [ %84, %93 ], [ %86, %94 ], [ %84, %96 ]
  %99 = getelementptr inbounds i8, i8* %13, i64 3
  %100 = icmp eq i8* %99, %5
  br i1 %100, label %262, label %101

101:                                              ; preds = %97, %121
  %102 = phi i8 [ %122, %121 ], [ %98, %97 ]
  %103 = phi i8* [ %119, %121 ], [ %99, %97 ]
  %104 = phi i8* [ %103, %121 ], [ %81, %97 ]
  %105 = load i8, i8* %103, align 1, !tbaa !3
  %106 = icmp slt i8 %105, %102
  br i1 %106, label %107, label %118

107:                                              ; preds = %101, %112
  %108 = phi i8 [ %114, %112 ], [ %102, %101 ]
  %109 = phi i8* [ %110, %112 ], [ %103, %101 ]
  %110 = phi i8* [ %113, %112 ], [ %104, %101 ]
  store i8 %108, i8* %109, align 1, !tbaa !3
  %111 = icmp eq i8* %110, %13
  br i1 %111, label %116, label %112

112:                                              ; preds = %107
  %113 = getelementptr inbounds i8, i8* %110, i64 -1
  %114 = load i8, i8* %113, align 1, !tbaa !3
  %115 = icmp slt i8 %105, %114
  br i1 %115, label %107, label %116

116:                                              ; preds = %112, %107
  %117 = phi i8* [ %13, %107 ], [ %110, %112 ]
  store i8 %105, i8* %117, align 1, !tbaa !3
  br label %118

118:                                              ; preds = %116, %101
  %119 = getelementptr inbounds i8, i8* %103, i64 1
  %120 = icmp eq i8* %119, %5
  br i1 %120, label %262, label %121

121:                                              ; preds = %118
  %122 = load i8, i8* %103, align 1, !tbaa !3
  br label %101

123:                                              ; preds = %78
  %124 = icmp sgt i64 %15, 999
  %125 = lshr i64 %15, 1
  %126 = getelementptr inbounds i8, i8* %13, i64 %125
  br i1 %124, label %127, label %132

127:                                              ; preds = %123
  %128 = lshr i64 %15, 2
  %129 = getelementptr inbounds i8, i8* %13, i64 %128
  %130 = getelementptr inbounds i8, i8* %126, i64 %128
  %131 = tail call i32 @_ZNSt3__17__sort5IRNS_6__lessIaaEEPaEEjT0_S5_S5_S5_S5_T_(i8* %13, i8* %129, i8* %126, i8* %130, i8* nonnull %8, %"struct.std::__1::__less.1"* nonnull align 1 dereferenceable(1) %2)
  br label %150

132:                                              ; preds = %123
  %133 = load i8, i8* %126, align 1, !tbaa !3
  %134 = load i8, i8* %13, align 1, !tbaa !3
  %135 = icmp slt i8 %133, %134
  %136 = load i8, i8* %8, align 1, !tbaa !3
  %137 = icmp slt i8 %136, %133
  br i1 %135, label %144, label %138

138:                                              ; preds = %132
  br i1 %137, label %139, label %150

139:                                              ; preds = %138
  store i8 %136, i8* %126, align 1, !tbaa !3
  store i8 %133, i8* %8, align 1, !tbaa !3
  %140 = load i8, i8* %126, align 1, !tbaa !3
  %141 = load i8, i8* %13, align 1, !tbaa !3
  %142 = icmp slt i8 %140, %141
  br i1 %142, label %143, label %150

143:                                              ; preds = %139
  store i8 %140, i8* %13, align 1, !tbaa !3
  store i8 %141, i8* %126, align 1, !tbaa !3
  br label %150

144:                                              ; preds = %132
  br i1 %137, label %145, label %146

145:                                              ; preds = %144
  store i8 %136, i8* %13, align 1, !tbaa !3
  store i8 %134, i8* %8, align 1, !tbaa !3
  br label %150

146:                                              ; preds = %144
  store i8 %133, i8* %13, align 1, !tbaa !3
  store i8 %134, i8* %126, align 1, !tbaa !3
  %147 = load i8, i8* %8, align 1, !tbaa !3
  %148 = icmp slt i8 %147, %134
  br i1 %148, label %149, label %150

149:                                              ; preds = %146
  store i8 %147, i8* %126, align 1, !tbaa !3
  store i8 %134, i8* %8, align 1, !tbaa !3
  br label %150

150:                                              ; preds = %149, %146, %145, %143, %139, %138, %127
  %151 = phi i32 [ %131, %127 ], [ 1, %145 ], [ 0, %138 ], [ 2, %143 ], [ 1, %139 ], [ 2, %149 ], [ 1, %146 ]
  %152 = load i8, i8* %13, align 1, !tbaa !3
  %153 = load i8, i8* %126, align 1, !tbaa !3
  %154 = icmp slt i8 %152, %153
  br i1 %154, label %199, label %155

155:                                              ; preds = %150, %194
  %156 = phi i8* [ %157, %194 ], [ %8, %150 ]
  %157 = getelementptr inbounds i8, i8* %156, i64 -1
  %158 = icmp eq i8* %13, %157
  br i1 %158, label %159, label %194

159:                                              ; preds = %155
  %160 = getelementptr inbounds i8, i8* %13, i64 1
  %161 = load i8, i8* %8, align 1, !tbaa !3
  %162 = icmp slt i8 %152, %161
  br i1 %162, label %174, label %163

163:                                              ; preds = %159
  %164 = icmp eq i8* %160, %8
  br i1 %164, label %262, label %165

165:                                              ; preds = %163, %171
  %166 = phi i8* [ %172, %171 ], [ %160, %163 ]
  %167 = load i8, i8* %166, align 1, !tbaa !3
  %168 = icmp slt i8 %152, %167
  br i1 %168, label %169, label %171

169:                                              ; preds = %165
  store i8 %161, i8* %166, align 1, !tbaa !3
  store i8 %167, i8* %8, align 1, !tbaa !3
  %170 = getelementptr inbounds i8, i8* %166, i64 1
  br label %174

171:                                              ; preds = %165
  %172 = getelementptr inbounds i8, i8* %166, i64 1
  %173 = icmp eq i8* %172, %8
  br i1 %173, label %262, label %165

174:                                              ; preds = %169, %159
  %175 = phi i8* [ %160, %159 ], [ %170, %169 ]
  %176 = icmp eq i8* %175, %8
  br i1 %176, label %262, label %177

177:                                              ; preds = %174, %193
  %178 = phi i8* [ %185, %193 ], [ %175, %174 ]
  %179 = phi i8* [ %188, %193 ], [ %8, %174 ]
  %180 = load i8, i8* %13, align 1, !tbaa !3
  br label %181

181:                                              ; preds = %181, %177
  %182 = phi i8* [ %178, %177 ], [ %185, %181 ]
  %183 = load i8, i8* %182, align 1, !tbaa !3
  %184 = icmp slt i8 %180, %183
  %185 = getelementptr inbounds i8, i8* %182, i64 1
  br i1 %184, label %186, label %181

186:                                              ; preds = %181, %186
  %187 = phi i8* [ %188, %186 ], [ %179, %181 ]
  %188 = getelementptr inbounds i8, i8* %187, i64 -1
  %189 = load i8, i8* %188, align 1, !tbaa !3
  %190 = icmp slt i8 %180, %189
  br i1 %190, label %186, label %191

191:                                              ; preds = %186
  %192 = icmp ult i8* %182, %188
  br i1 %192, label %193, label %259

193:                                              ; preds = %191
  store i8 %189, i8* %182, align 1, !tbaa !3
  store i8 %183, i8* %188, align 1, !tbaa !3
  br label %177

194:                                              ; preds = %155
  %195 = load i8, i8* %157, align 1, !tbaa !3
  %196 = icmp slt i8 %195, %153
  br i1 %196, label %197, label %155

197:                                              ; preds = %194
  store i8 %195, i8* %13, align 1, !tbaa !3
  store i8 %152, i8* %157, align 1, !tbaa !3
  %198 = add i32 %151, 1
  br label %199

199:                                              ; preds = %197, %150
  %200 = phi i32 [ %151, %150 ], [ %198, %197 ]
  %201 = phi i8* [ %8, %150 ], [ %157, %197 ]
  %202 = getelementptr inbounds i8, i8* %13, i64 1
  %203 = icmp ult i8* %202, %201
  br i1 %203, label %204, label %226

204:                                              ; preds = %199, %222
  %205 = phi i8* [ %225, %222 ], [ %126, %199 ]
  %206 = phi i32 [ %223, %222 ], [ %200, %199 ]
  %207 = phi i8* [ %214, %222 ], [ %202, %199 ]
  %208 = phi i8* [ %217, %222 ], [ %201, %199 ]
  %209 = load i8, i8* %205, align 1, !tbaa !3
  br label %210

210:                                              ; preds = %210, %204
  %211 = phi i8* [ %207, %204 ], [ %214, %210 ]
  %212 = load i8, i8* %211, align 1, !tbaa !3
  %213 = icmp slt i8 %212, %209
  %214 = getelementptr inbounds i8, i8* %211, i64 1
  br i1 %213, label %210, label %215

215:                                              ; preds = %210, %215
  %216 = phi i8* [ %217, %215 ], [ %208, %210 ]
  %217 = getelementptr inbounds i8, i8* %216, i64 -1
  %218 = load i8, i8* %217, align 1, !tbaa !3
  %219 = icmp slt i8 %218, %209
  br i1 %219, label %220, label %215

220:                                              ; preds = %215
  %221 = icmp ugt i8* %211, %217
  br i1 %221, label %226, label %222

222:                                              ; preds = %220
  store i8 %218, i8* %211, align 1, !tbaa !3
  store i8 %212, i8* %217, align 1, !tbaa !3
  %223 = add i32 %206, 1
  %224 = icmp eq i8* %205, %211
  %225 = select i1 %224, i8* %217, i8* %205
  br label %204

226:                                              ; preds = %220, %199
  %227 = phi i8* [ %126, %199 ], [ %205, %220 ]
  %228 = phi i32 [ %200, %199 ], [ %206, %220 ]
  %229 = phi i8* [ %202, %199 ], [ %211, %220 ]
  %230 = icmp eq i8* %229, %227
  br i1 %230, label %237, label %231

231:                                              ; preds = %226
  %232 = load i8, i8* %227, align 1, !tbaa !3
  %233 = load i8, i8* %229, align 1, !tbaa !3
  %234 = icmp slt i8 %232, %233
  br i1 %234, label %235, label %237

235:                                              ; preds = %231
  store i8 %232, i8* %229, align 1, !tbaa !3
  store i8 %233, i8* %227, align 1, !tbaa !3
  %236 = add i32 %228, 1
  br label %237

237:                                              ; preds = %226, %235, %231
  %238 = phi i32 [ %236, %235 ], [ %228, %231 ], [ %228, %226 ]
  %239 = icmp eq i32 %238, 0
  br i1 %239, label %240, label %247

240:                                              ; preds = %237
  %241 = tail call zeroext i1 @_ZNSt3__127__insertion_sort_incompleteIRNS_6__lessIaaEEPaEEbT0_S5_T_(i8* nonnull %13, i8* %229, %"struct.std::__1::__less.1"* nonnull align 1 dereferenceable(1) %2)
  %242 = getelementptr inbounds i8, i8* %229, i64 1
  %243 = tail call zeroext i1 @_ZNSt3__127__insertion_sort_incompleteIRNS_6__lessIaaEEPaEEbT0_S5_T_(i8* nonnull %242, i8* %5, %"struct.std::__1::__less.1"* nonnull align 1 dereferenceable(1) %2)
  br i1 %243, label %244, label %246

244:                                              ; preds = %240
  br i1 %241, label %262, label %245

245:                                              ; preds = %244, %257
  br label %4

246:                                              ; preds = %240
  br i1 %241, label %259, label %247

247:                                              ; preds = %237, %246
  %248 = ptrtoint i8* %13 to i64
  %249 = ptrtoint i8* %229 to i64
  %250 = sub i64 %249, %248
  %251 = sub i64 %9, %249
  %252 = icmp slt i64 %250, %251
  br i1 %252, label %253, label %257

253:                                              ; preds = %247
  tail call void @_ZNSt3__16__sortIRNS_6__lessIaaEEPaEEvT0_S5_T_(i8* %13, i8* %229, %"struct.std::__1::__less.1"* nonnull align 1 dereferenceable(1) %2)
  %254 = getelementptr inbounds i8, i8* %229, i64 1
  br label %255

255:                                              ; preds = %259, %259, %253
  %256 = phi i8* [ %254, %253 ], [ %261, %259 ], [ %261, %259 ]
  br label %10

257:                                              ; preds = %247
  %258 = getelementptr inbounds i8, i8* %229, i64 1
  tail call void @_ZNSt3__16__sortIRNS_6__lessIaaEEPaEEvT0_S5_T_(i8* nonnull %258, i8* %5, %"struct.std::__1::__less.1"* nonnull align 1 dereferenceable(1) %2)
  br label %245

259:                                              ; preds = %191, %246
  %260 = phi i32 [ 2, %246 ], [ 4, %191 ]
  %261 = phi i8* [ %242, %246 ], [ %182, %191 ]
  switch i32 %260, label %262 [
    i32 0, label %255
    i32 4, label %12
    i32 2, label %255
  ]

262:                                              ; preds = %244, %174, %12, %12, %259, %163, %171, %118, %97, %71, %68, %64, %60, %41, %38, %37, %35, %31, %30, %16, %21, %72
  ret void
}

; Function Attrs: nounwind uwtable
define linkonce_odr hidden i32 @_ZNSt3__17__sort5IRNS_6__lessIaaEEPaEEjT0_S5_S5_S5_S5_T_(i8* %0, i8* %1, i8* %2, i8* %3, i8* %4, %"struct.std::__1::__less.1"* nonnull align 1 dereferenceable(1) %5) local_unnamed_addr #1 comdat {
  %7 = load i8, i8* %1, align 1, !tbaa !3
  %8 = load i8, i8* %0, align 1, !tbaa !3
  %9 = icmp slt i8 %7, %8
  %10 = load i8, i8* %2, align 1, !tbaa !3
  %11 = icmp slt i8 %10, %7
  br i1 %9, label %19, label %12

12:                                               ; preds = %6
  br i1 %11, label %13, label %25

13:                                               ; preds = %12
  store i8 %10, i8* %1, align 1, !tbaa !3
  store i8 %7, i8* %2, align 1, !tbaa !3
  %14 = load i8, i8* %1, align 1, !tbaa !3
  %15 = load i8, i8* %0, align 1, !tbaa !3
  %16 = icmp slt i8 %14, %15
  br i1 %16, label %17, label %25

17:                                               ; preds = %13
  store i8 %14, i8* %0, align 1, !tbaa !3
  store i8 %15, i8* %1, align 1, !tbaa !3
  %18 = load i8, i8* %2, align 1, !tbaa !3
  br label %25

19:                                               ; preds = %6
  br i1 %11, label %20, label %21

20:                                               ; preds = %19
  store i8 %10, i8* %0, align 1, !tbaa !3
  store i8 %8, i8* %2, align 1, !tbaa !3
  br label %25

21:                                               ; preds = %19
  store i8 %7, i8* %0, align 1, !tbaa !3
  store i8 %8, i8* %1, align 1, !tbaa !3
  %22 = load i8, i8* %2, align 1, !tbaa !3
  %23 = icmp slt i8 %22, %8
  br i1 %23, label %24, label %25

24:                                               ; preds = %21
  store i8 %22, i8* %1, align 1, !tbaa !3
  store i8 %8, i8* %2, align 1, !tbaa !3
  br label %25

25:                                               ; preds = %24, %21, %20, %17, %13, %12
  %26 = phi i8 [ %8, %20 ], [ %10, %12 ], [ %18, %17 ], [ %7, %13 ], [ %8, %24 ], [ %22, %21 ]
  %27 = phi i32 [ 1, %20 ], [ 0, %12 ], [ 2, %17 ], [ 1, %13 ], [ 2, %24 ], [ 1, %21 ]
  %28 = load i8, i8* %3, align 1, !tbaa !3
  %29 = icmp slt i8 %28, %26
  br i1 %29, label %30, label %42

30:                                               ; preds = %25
  store i8 %28, i8* %2, align 1, !tbaa !3
  store i8 %26, i8* %3, align 1, !tbaa !3
  %31 = add nuw nsw i32 %27, 1
  %32 = load i8, i8* %2, align 1, !tbaa !3
  %33 = load i8, i8* %1, align 1, !tbaa !3
  %34 = icmp slt i8 %32, %33
  br i1 %34, label %35, label %42

35:                                               ; preds = %30
  store i8 %32, i8* %1, align 1, !tbaa !3
  store i8 %33, i8* %2, align 1, !tbaa !3
  %36 = add nuw nsw i32 %27, 2
  %37 = load i8, i8* %1, align 1, !tbaa !3
  %38 = load i8, i8* %0, align 1, !tbaa !3
  %39 = icmp slt i8 %37, %38
  br i1 %39, label %40, label %42

40:                                               ; preds = %35
  store i8 %37, i8* %0, align 1, !tbaa !3
  store i8 %38, i8* %1, align 1, !tbaa !3
  %41 = add nuw nsw i32 %27, 3
  br label %42

42:                                               ; preds = %25, %30, %35, %40
  %43 = phi i32 [ %41, %40 ], [ %36, %35 ], [ %31, %30 ], [ %27, %25 ]
  %44 = load i8, i8* %4, align 1, !tbaa !3
  %45 = load i8, i8* %3, align 1, !tbaa !3
  %46 = icmp slt i8 %44, %45
  br i1 %46, label %47, label %64

47:                                               ; preds = %42
  store i8 %44, i8* %3, align 1, !tbaa !3
  store i8 %45, i8* %4, align 1, !tbaa !3
  %48 = add nuw nsw i32 %43, 1
  %49 = load i8, i8* %3, align 1, !tbaa !3
  %50 = load i8, i8* %2, align 1, !tbaa !3
  %51 = icmp slt i8 %49, %50
  br i1 %51, label %52, label %64

52:                                               ; preds = %47
  store i8 %49, i8* %2, align 1, !tbaa !3
  store i8 %50, i8* %3, align 1, !tbaa !3
  %53 = add nuw nsw i32 %43, 2
  %54 = load i8, i8* %2, align 1, !tbaa !3
  %55 = load i8, i8* %1, align 1, !tbaa !3
  %56 = icmp slt i8 %54, %55
  br i1 %56, label %57, label %64

57:                                               ; preds = %52
  store i8 %54, i8* %1, align 1, !tbaa !3
  store i8 %55, i8* %2, align 1, !tbaa !3
  %58 = add nuw nsw i32 %43, 3
  %59 = load i8, i8* %1, align 1, !tbaa !3
  %60 = load i8, i8* %0, align 1, !tbaa !3
  %61 = icmp slt i8 %59, %60
  br i1 %61, label %62, label %64

62:                                               ; preds = %57
  store i8 %59, i8* %0, align 1, !tbaa !3
  store i8 %60, i8* %1, align 1, !tbaa !3
  %63 = add nuw nsw i32 %43, 4
  br label %64

64:                                               ; preds = %47, %57, %62, %52, %42
  %65 = phi i32 [ %63, %62 ], [ %58, %57 ], [ %53, %52 ], [ %48, %47 ], [ %43, %42 ]
  ret i32 %65
}

; Function Attrs: uwtable
define weak_odr zeroext i1 @_ZNSt3__127__insertion_sort_incompleteIRNS_6__lessIaaEEPaEEbT0_S5_T_(i8* %0, i8* %1, %"struct.std::__1::__less.1"* nonnull align 1 dereferenceable(1) %2) local_unnamed_addr #0 comdat {
  %4 = ptrtoint i8* %1 to i64
  %5 = ptrtoint i8* %0 to i64
  %6 = sub i64 %4, %5
  switch i64 %6, label %69 [
    i64 0, label %119
    i64 1, label %119
    i64 2, label %7
    i64 3, label %13
    i64 4, label %33
    i64 5, label %63
  ]

7:                                                ; preds = %3
  %8 = getelementptr inbounds i8, i8* %1, i64 -1
  %9 = load i8, i8* %8, align 1, !tbaa !3
  %10 = load i8, i8* %0, align 1, !tbaa !3
  %11 = icmp slt i8 %9, %10
  br i1 %11, label %12, label %119

12:                                               ; preds = %7
  store i8 %9, i8* %0, align 1, !tbaa !3
  store i8 %10, i8* %8, align 1, !tbaa !3
  br label %119

13:                                               ; preds = %3
  %14 = getelementptr inbounds i8, i8* %0, i64 1
  %15 = getelementptr inbounds i8, i8* %1, i64 -1
  %16 = load i8, i8* %14, align 1, !tbaa !3
  %17 = load i8, i8* %0, align 1, !tbaa !3
  %18 = icmp slt i8 %16, %17
  %19 = load i8, i8* %15, align 1, !tbaa !3
  %20 = icmp slt i8 %19, %16
  br i1 %18, label %27, label %21

21:                                               ; preds = %13
  br i1 %20, label %22, label %119

22:                                               ; preds = %21
  store i8 %19, i8* %14, align 1, !tbaa !3
  store i8 %16, i8* %15, align 1, !tbaa !3
  %23 = load i8, i8* %14, align 1, !tbaa !3
  %24 = load i8, i8* %0, align 1, !tbaa !3
  %25 = icmp slt i8 %23, %24
  br i1 %25, label %26, label %119

26:                                               ; preds = %22
  store i8 %23, i8* %0, align 1, !tbaa !3
  store i8 %24, i8* %14, align 1, !tbaa !3
  br label %119

27:                                               ; preds = %13
  br i1 %20, label %28, label %29

28:                                               ; preds = %27
  store i8 %19, i8* %0, align 1, !tbaa !3
  store i8 %17, i8* %15, align 1, !tbaa !3
  br label %119

29:                                               ; preds = %27
  store i8 %16, i8* %0, align 1, !tbaa !3
  store i8 %17, i8* %14, align 1, !tbaa !3
  %30 = load i8, i8* %15, align 1, !tbaa !3
  %31 = icmp slt i8 %30, %17
  br i1 %31, label %32, label %119

32:                                               ; preds = %29
  store i8 %30, i8* %14, align 1, !tbaa !3
  store i8 %17, i8* %15, align 1, !tbaa !3
  br label %119

33:                                               ; preds = %3
  %34 = getelementptr inbounds i8, i8* %0, i64 1
  %35 = getelementptr inbounds i8, i8* %0, i64 2
  %36 = getelementptr inbounds i8, i8* %1, i64 -1
  %37 = load i8, i8* %34, align 1, !tbaa !3
  %38 = load i8, i8* %0, align 1, !tbaa !3
  %39 = icmp slt i8 %37, %38
  %40 = load i8, i8* %35, align 1, !tbaa !3
  %41 = icmp slt i8 %40, %37
  br i1 %39, label %46, label %42

42:                                               ; preds = %33
  br i1 %41, label %43, label %51

43:                                               ; preds = %42
  store i8 %40, i8* %34, align 1, !tbaa !3
  store i8 %37, i8* %35, align 1, !tbaa !3
  %44 = icmp slt i8 %40, %38
  br i1 %44, label %45, label %51

45:                                               ; preds = %43
  store i8 %40, i8* %0, align 1, !tbaa !3
  store i8 %38, i8* %34, align 1, !tbaa !3
  br label %51

46:                                               ; preds = %33
  br i1 %41, label %47, label %48

47:                                               ; preds = %46
  store i8 %40, i8* %0, align 1, !tbaa !3
  store i8 %38, i8* %35, align 1, !tbaa !3
  br label %51

48:                                               ; preds = %46
  store i8 %37, i8* %0, align 1, !tbaa !3
  store i8 %38, i8* %34, align 1, !tbaa !3
  %49 = icmp slt i8 %40, %38
  br i1 %49, label %50, label %51

50:                                               ; preds = %48
  store i8 %40, i8* %34, align 1, !tbaa !3
  store i8 %38, i8* %35, align 1, !tbaa !3
  br label %51

51:                                               ; preds = %50, %48, %47, %45, %43, %42
  %52 = phi i8 [ %38, %47 ], [ %40, %42 ], [ %37, %45 ], [ %37, %43 ], [ %38, %50 ], [ %40, %48 ]
  %53 = load i8, i8* %36, align 1, !tbaa !3
  %54 = icmp slt i8 %53, %52
  br i1 %54, label %55, label %119

55:                                               ; preds = %51
  store i8 %53, i8* %35, align 1, !tbaa !3
  store i8 %52, i8* %36, align 1, !tbaa !3
  %56 = load i8, i8* %35, align 1, !tbaa !3
  %57 = load i8, i8* %34, align 1, !tbaa !3
  %58 = icmp slt i8 %56, %57
  br i1 %58, label %59, label %119

59:                                               ; preds = %55
  store i8 %56, i8* %34, align 1, !tbaa !3
  store i8 %57, i8* %35, align 1, !tbaa !3
  %60 = load i8, i8* %0, align 1, !tbaa !3
  %61 = icmp slt i8 %56, %60
  br i1 %61, label %62, label %119

62:                                               ; preds = %59
  store i8 %56, i8* %0, align 1, !tbaa !3
  store i8 %60, i8* %34, align 1, !tbaa !3
  br label %119

63:                                               ; preds = %3
  %64 = getelementptr inbounds i8, i8* %0, i64 1
  %65 = getelementptr inbounds i8, i8* %0, i64 2
  %66 = getelementptr inbounds i8, i8* %0, i64 3
  %67 = getelementptr inbounds i8, i8* %1, i64 -1
  %68 = tail call i32 @_ZNSt3__17__sort5IRNS_6__lessIaaEEPaEEjT0_S5_S5_S5_S5_T_(i8* %0, i8* nonnull %64, i8* nonnull %65, i8* nonnull %66, i8* nonnull %67, %"struct.std::__1::__less.1"* nonnull align 1 dereferenceable(1) %2)
  br label %119

69:                                               ; preds = %3
  %70 = getelementptr inbounds i8, i8* %0, i64 2
  %71 = getelementptr inbounds i8, i8* %0, i64 1
  %72 = load i8, i8* %71, align 1, !tbaa !3
  %73 = load i8, i8* %0, align 1, !tbaa !3
  %74 = icmp slt i8 %72, %73
  %75 = load i8, i8* %70, align 1, !tbaa !3
  %76 = icmp slt i8 %75, %72
  br i1 %74, label %81, label %77

77:                                               ; preds = %69
  br i1 %76, label %78, label %86

78:                                               ; preds = %77
  store i8 %75, i8* %71, align 1, !tbaa !3
  store i8 %72, i8* %70, align 1, !tbaa !3
  %79 = icmp slt i8 %75, %73
  br i1 %79, label %80, label %86

80:                                               ; preds = %78
  store i8 %75, i8* %0, align 1, !tbaa !3
  store i8 %73, i8* %71, align 1, !tbaa !3
  br label %86

81:                                               ; preds = %69
  br i1 %76, label %82, label %83

82:                                               ; preds = %81
  store i8 %75, i8* %0, align 1, !tbaa !3
  store i8 %73, i8* %70, align 1, !tbaa !3
  br label %86

83:                                               ; preds = %81
  store i8 %72, i8* %0, align 1, !tbaa !3
  store i8 %73, i8* %71, align 1, !tbaa !3
  %84 = icmp slt i8 %75, %73
  br i1 %84, label %85, label %86

85:                                               ; preds = %83
  store i8 %75, i8* %71, align 1, !tbaa !3
  store i8 %73, i8* %70, align 1, !tbaa !3
  br label %86

86:                                               ; preds = %77, %78, %80, %82, %83, %85
  %87 = phi i8 [ %75, %77 ], [ %72, %78 ], [ %72, %80 ], [ %73, %82 ], [ %75, %83 ], [ %73, %85 ]
  %88 = getelementptr inbounds i8, i8* %0, i64 3
  %89 = icmp eq i8* %88, %1
  br i1 %89, label %119, label %90

90:                                               ; preds = %86, %114
  %91 = phi i8 [ %115, %114 ], [ %87, %86 ]
  %92 = phi i8* [ %112, %114 ], [ %88, %86 ]
  %93 = phi i32 [ %111, %114 ], [ 0, %86 ]
  %94 = phi i8* [ %92, %114 ], [ %70, %86 ]
  %95 = load i8, i8* %92, align 1, !tbaa !3
  %96 = icmp slt i8 %95, %91
  br i1 %96, label %97, label %110

97:                                               ; preds = %90, %102
  %98 = phi i8 [ %104, %102 ], [ %91, %90 ]
  %99 = phi i8* [ %100, %102 ], [ %92, %90 ]
  %100 = phi i8* [ %103, %102 ], [ %94, %90 ]
  store i8 %98, i8* %99, align 1, !tbaa !3
  %101 = icmp eq i8* %100, %0
  br i1 %101, label %106, label %102

102:                                              ; preds = %97
  %103 = getelementptr inbounds i8, i8* %100, i64 -1
  %104 = load i8, i8* %103, align 1, !tbaa !3
  %105 = icmp slt i8 %95, %104
  br i1 %105, label %97, label %106

106:                                              ; preds = %97, %102
  %107 = phi i8* [ %0, %97 ], [ %100, %102 ]
  store i8 %95, i8* %107, align 1, !tbaa !3
  %108 = add i32 %93, 1
  %109 = icmp eq i32 %108, 8
  br i1 %109, label %116, label %110

110:                                              ; preds = %106, %90
  %111 = phi i32 [ %108, %106 ], [ %93, %90 ]
  %112 = getelementptr inbounds i8, i8* %92, i64 1
  %113 = icmp eq i8* %112, %1
  br i1 %113, label %119, label %114

114:                                              ; preds = %110
  %115 = load i8, i8* %92, align 1, !tbaa !3
  br label %90

116:                                              ; preds = %106
  %117 = getelementptr inbounds i8, i8* %92, i64 1
  %118 = icmp eq i8* %117, %1
  br label %119

119:                                              ; preds = %110, %116, %86, %62, %59, %55, %51, %32, %29, %28, %26, %22, %21, %7, %12, %3, %3, %63
  %120 = phi i1 [ true, %63 ], [ true, %3 ], [ true, %3 ], [ true, %12 ], [ true, %7 ], [ true, %21 ], [ true, %22 ], [ true, %26 ], [ true, %28 ], [ true, %29 ], [ true, %32 ], [ true, %51 ], [ true, %55 ], [ true, %59 ], [ true, %62 ], [ true, %86 ], [ %118, %116 ], [ true, %110 ]
  ret i1 %120
}

; Function Attrs: uwtable
define weak_odr void @_ZNSt3__16__sortIRNS_6__lessIhhEEPhEEvT0_S5_T_(i8* %0, i8* %1, %"struct.std::__1::__less.2"* nonnull align 1 dereferenceable(1) %2) local_unnamed_addr #0 comdat {
  br label %4

4:                                                ; preds = %245, %3
  %5 = phi i8* [ %1, %3 ], [ %229, %245 ]
  %6 = phi i8* [ %0, %3 ], [ %13, %245 ]
  %7 = ptrtoint i8* %5 to i64
  %8 = getelementptr inbounds i8, i8* %5, i64 -1
  %9 = ptrtoint i8* %5 to i64
  br label %10

10:                                               ; preds = %255, %4
  %11 = phi i8* [ %6, %4 ], [ %256, %255 ]
  br label %12

12:                                               ; preds = %259, %10
  %13 = phi i8* [ %11, %10 ], [ %261, %259 ]
  %14 = ptrtoint i8* %13 to i64
  %15 = sub i64 %7, %14
  switch i64 %15, label %78 [
    i64 0, label %262
    i64 1, label %262
    i64 2, label %16
    i64 3, label %22
    i64 4, label %42
    i64 5, label %72
  ]

16:                                               ; preds = %12
  %17 = getelementptr inbounds i8, i8* %5, i64 -1
  %18 = load i8, i8* %17, align 1, !tbaa !3
  %19 = load i8, i8* %13, align 1, !tbaa !3
  %20 = icmp ult i8 %18, %19
  br i1 %20, label %21, label %262

21:                                               ; preds = %16
  store i8 %18, i8* %13, align 1, !tbaa !3
  store i8 %19, i8* %17, align 1, !tbaa !3
  br label %262

22:                                               ; preds = %12
  %23 = getelementptr inbounds i8, i8* %13, i64 1
  %24 = getelementptr inbounds i8, i8* %5, i64 -1
  %25 = load i8, i8* %23, align 1, !tbaa !3
  %26 = load i8, i8* %13, align 1, !tbaa !3
  %27 = icmp ult i8 %25, %26
  %28 = load i8, i8* %24, align 1, !tbaa !3
  %29 = icmp ult i8 %28, %25
  br i1 %27, label %36, label %30

30:                                               ; preds = %22
  br i1 %29, label %31, label %262

31:                                               ; preds = %30
  store i8 %28, i8* %23, align 1, !tbaa !3
  store i8 %25, i8* %24, align 1, !tbaa !3
  %32 = load i8, i8* %23, align 1, !tbaa !3
  %33 = load i8, i8* %13, align 1, !tbaa !3
  %34 = icmp ult i8 %32, %33
  br i1 %34, label %35, label %262

35:                                               ; preds = %31
  store i8 %32, i8* %13, align 1, !tbaa !3
  store i8 %33, i8* %23, align 1, !tbaa !3
  br label %262

36:                                               ; preds = %22
  br i1 %29, label %37, label %38

37:                                               ; preds = %36
  store i8 %28, i8* %13, align 1, !tbaa !3
  store i8 %26, i8* %24, align 1, !tbaa !3
  br label %262

38:                                               ; preds = %36
  store i8 %25, i8* %13, align 1, !tbaa !3
  store i8 %26, i8* %23, align 1, !tbaa !3
  %39 = load i8, i8* %24, align 1, !tbaa !3
  %40 = icmp ult i8 %39, %26
  br i1 %40, label %41, label %262

41:                                               ; preds = %38
  store i8 %39, i8* %23, align 1, !tbaa !3
  store i8 %26, i8* %24, align 1, !tbaa !3
  br label %262

42:                                               ; preds = %12
  %43 = getelementptr inbounds i8, i8* %13, i64 1
  %44 = getelementptr inbounds i8, i8* %13, i64 2
  %45 = getelementptr inbounds i8, i8* %5, i64 -1
  %46 = load i8, i8* %43, align 1, !tbaa !3
  %47 = load i8, i8* %13, align 1, !tbaa !3
  %48 = icmp ult i8 %46, %47
  %49 = load i8, i8* %44, align 1, !tbaa !3
  %50 = icmp ult i8 %49, %46
  br i1 %48, label %55, label %51

51:                                               ; preds = %42
  br i1 %50, label %52, label %60

52:                                               ; preds = %51
  store i8 %49, i8* %43, align 1, !tbaa !3
  store i8 %46, i8* %44, align 1, !tbaa !3
  %53 = icmp ult i8 %49, %47
  br i1 %53, label %54, label %60

54:                                               ; preds = %52
  store i8 %49, i8* %13, align 1, !tbaa !3
  store i8 %47, i8* %43, align 1, !tbaa !3
  br label %60

55:                                               ; preds = %42
  br i1 %50, label %56, label %57

56:                                               ; preds = %55
  store i8 %49, i8* %13, align 1, !tbaa !3
  store i8 %47, i8* %44, align 1, !tbaa !3
  br label %60

57:                                               ; preds = %55
  store i8 %46, i8* %13, align 1, !tbaa !3
  store i8 %47, i8* %43, align 1, !tbaa !3
  %58 = icmp ult i8 %49, %47
  br i1 %58, label %59, label %60

59:                                               ; preds = %57
  store i8 %49, i8* %43, align 1, !tbaa !3
  store i8 %47, i8* %44, align 1, !tbaa !3
  br label %60

60:                                               ; preds = %59, %57, %56, %54, %52, %51
  %61 = phi i8 [ %47, %56 ], [ %49, %51 ], [ %46, %54 ], [ %46, %52 ], [ %47, %59 ], [ %49, %57 ]
  %62 = load i8, i8* %45, align 1, !tbaa !3
  %63 = icmp ult i8 %62, %61
  br i1 %63, label %64, label %262

64:                                               ; preds = %60
  store i8 %62, i8* %44, align 1, !tbaa !3
  store i8 %61, i8* %45, align 1, !tbaa !3
  %65 = load i8, i8* %44, align 1, !tbaa !3
  %66 = load i8, i8* %43, align 1, !tbaa !3
  %67 = icmp ult i8 %65, %66
  br i1 %67, label %68, label %262

68:                                               ; preds = %64
  store i8 %65, i8* %43, align 1, !tbaa !3
  store i8 %66, i8* %44, align 1, !tbaa !3
  %69 = load i8, i8* %13, align 1, !tbaa !3
  %70 = icmp ult i8 %65, %69
  br i1 %70, label %71, label %262

71:                                               ; preds = %68
  store i8 %65, i8* %13, align 1, !tbaa !3
  store i8 %69, i8* %43, align 1, !tbaa !3
  br label %262

72:                                               ; preds = %12
  %73 = getelementptr inbounds i8, i8* %13, i64 1
  %74 = getelementptr inbounds i8, i8* %13, i64 2
  %75 = getelementptr inbounds i8, i8* %13, i64 3
  %76 = getelementptr inbounds i8, i8* %5, i64 -1
  %77 = tail call i32 @_ZNSt3__17__sort5IRNS_6__lessIhhEEPhEEjT0_S5_S5_S5_S5_T_(i8* %13, i8* nonnull %73, i8* nonnull %74, i8* nonnull %75, i8* nonnull %76, %"struct.std::__1::__less.2"* nonnull align 1 dereferenceable(1) %2)
  br label %262

78:                                               ; preds = %12
  %79 = icmp slt i64 %15, 31
  br i1 %79, label %80, label %123

80:                                               ; preds = %78
  %81 = getelementptr inbounds i8, i8* %13, i64 2
  %82 = getelementptr inbounds i8, i8* %13, i64 1
  %83 = load i8, i8* %82, align 1, !tbaa !3
  %84 = load i8, i8* %13, align 1, !tbaa !3
  %85 = icmp ult i8 %83, %84
  %86 = load i8, i8* %81, align 1, !tbaa !3
  %87 = icmp ult i8 %86, %83
  br i1 %85, label %92, label %88

88:                                               ; preds = %80
  br i1 %87, label %89, label %97

89:                                               ; preds = %88
  store i8 %86, i8* %82, align 1, !tbaa !3
  store i8 %83, i8* %81, align 1, !tbaa !3
  %90 = icmp ult i8 %86, %84
  br i1 %90, label %91, label %97

91:                                               ; preds = %89
  store i8 %86, i8* %13, align 1, !tbaa !3
  store i8 %84, i8* %82, align 1, !tbaa !3
  br label %97

92:                                               ; preds = %80
  br i1 %87, label %93, label %94

93:                                               ; preds = %92
  store i8 %86, i8* %13, align 1, !tbaa !3
  store i8 %84, i8* %81, align 1, !tbaa !3
  br label %97

94:                                               ; preds = %92
  store i8 %83, i8* %13, align 1, !tbaa !3
  store i8 %84, i8* %82, align 1, !tbaa !3
  %95 = icmp ult i8 %86, %84
  br i1 %95, label %96, label %97

96:                                               ; preds = %94
  store i8 %86, i8* %82, align 1, !tbaa !3
  store i8 %84, i8* %81, align 1, !tbaa !3
  br label %97

97:                                               ; preds = %96, %94, %93, %91, %89, %88
  %98 = phi i8 [ %86, %88 ], [ %83, %89 ], [ %83, %91 ], [ %84, %93 ], [ %86, %94 ], [ %84, %96 ]
  %99 = getelementptr inbounds i8, i8* %13, i64 3
  %100 = icmp eq i8* %99, %5
  br i1 %100, label %262, label %101

101:                                              ; preds = %97, %121
  %102 = phi i8 [ %122, %121 ], [ %98, %97 ]
  %103 = phi i8* [ %119, %121 ], [ %99, %97 ]
  %104 = phi i8* [ %103, %121 ], [ %81, %97 ]
  %105 = load i8, i8* %103, align 1, !tbaa !3
  %106 = icmp ult i8 %105, %102
  br i1 %106, label %107, label %118

107:                                              ; preds = %101, %112
  %108 = phi i8 [ %114, %112 ], [ %102, %101 ]
  %109 = phi i8* [ %110, %112 ], [ %103, %101 ]
  %110 = phi i8* [ %113, %112 ], [ %104, %101 ]
  store i8 %108, i8* %109, align 1, !tbaa !3
  %111 = icmp eq i8* %110, %13
  br i1 %111, label %116, label %112

112:                                              ; preds = %107
  %113 = getelementptr inbounds i8, i8* %110, i64 -1
  %114 = load i8, i8* %113, align 1, !tbaa !3
  %115 = icmp ult i8 %105, %114
  br i1 %115, label %107, label %116

116:                                              ; preds = %112, %107
  %117 = phi i8* [ %13, %107 ], [ %110, %112 ]
  store i8 %105, i8* %117, align 1, !tbaa !3
  br label %118

118:                                              ; preds = %116, %101
  %119 = getelementptr inbounds i8, i8* %103, i64 1
  %120 = icmp eq i8* %119, %5
  br i1 %120, label %262, label %121

121:                                              ; preds = %118
  %122 = load i8, i8* %103, align 1, !tbaa !3
  br label %101

123:                                              ; preds = %78
  %124 = icmp sgt i64 %15, 999
  %125 = lshr i64 %15, 1
  %126 = getelementptr inbounds i8, i8* %13, i64 %125
  br i1 %124, label %127, label %132

127:                                              ; preds = %123
  %128 = lshr i64 %15, 2
  %129 = getelementptr inbounds i8, i8* %13, i64 %128
  %130 = getelementptr inbounds i8, i8* %126, i64 %128
  %131 = tail call i32 @_ZNSt3__17__sort5IRNS_6__lessIhhEEPhEEjT0_S5_S5_S5_S5_T_(i8* %13, i8* %129, i8* %126, i8* %130, i8* nonnull %8, %"struct.std::__1::__less.2"* nonnull align 1 dereferenceable(1) %2)
  br label %150

132:                                              ; preds = %123
  %133 = load i8, i8* %126, align 1, !tbaa !3
  %134 = load i8, i8* %13, align 1, !tbaa !3
  %135 = icmp ult i8 %133, %134
  %136 = load i8, i8* %8, align 1, !tbaa !3
  %137 = icmp ult i8 %136, %133
  br i1 %135, label %144, label %138

138:                                              ; preds = %132
  br i1 %137, label %139, label %150

139:                                              ; preds = %138
  store i8 %136, i8* %126, align 1, !tbaa !3
  store i8 %133, i8* %8, align 1, !tbaa !3
  %140 = load i8, i8* %126, align 1, !tbaa !3
  %141 = load i8, i8* %13, align 1, !tbaa !3
  %142 = icmp ult i8 %140, %141
  br i1 %142, label %143, label %150

143:                                              ; preds = %139
  store i8 %140, i8* %13, align 1, !tbaa !3
  store i8 %141, i8* %126, align 1, !tbaa !3
  br label %150

144:                                              ; preds = %132
  br i1 %137, label %145, label %146

145:                                              ; preds = %144
  store i8 %136, i8* %13, align 1, !tbaa !3
  store i8 %134, i8* %8, align 1, !tbaa !3
  br label %150

146:                                              ; preds = %144
  store i8 %133, i8* %13, align 1, !tbaa !3
  store i8 %134, i8* %126, align 1, !tbaa !3
  %147 = load i8, i8* %8, align 1, !tbaa !3
  %148 = icmp ult i8 %147, %134
  br i1 %148, label %149, label %150

149:                                              ; preds = %146
  store i8 %147, i8* %126, align 1, !tbaa !3
  store i8 %134, i8* %8, align 1, !tbaa !3
  br label %150

150:                                              ; preds = %149, %146, %145, %143, %139, %138, %127
  %151 = phi i32 [ %131, %127 ], [ 1, %145 ], [ 0, %138 ], [ 2, %143 ], [ 1, %139 ], [ 2, %149 ], [ 1, %146 ]
  %152 = load i8, i8* %13, align 1, !tbaa !3
  %153 = load i8, i8* %126, align 1, !tbaa !3
  %154 = icmp ult i8 %152, %153
  br i1 %154, label %199, label %155

155:                                              ; preds = %150, %194
  %156 = phi i8* [ %157, %194 ], [ %8, %150 ]
  %157 = getelementptr inbounds i8, i8* %156, i64 -1
  %158 = icmp eq i8* %13, %157
  br i1 %158, label %159, label %194

159:                                              ; preds = %155
  %160 = getelementptr inbounds i8, i8* %13, i64 1
  %161 = load i8, i8* %8, align 1, !tbaa !3
  %162 = icmp ult i8 %152, %161
  br i1 %162, label %174, label %163

163:                                              ; preds = %159
  %164 = icmp eq i8* %160, %8
  br i1 %164, label %262, label %165

165:                                              ; preds = %163, %171
  %166 = phi i8* [ %172, %171 ], [ %160, %163 ]
  %167 = load i8, i8* %166, align 1, !tbaa !3
  %168 = icmp ult i8 %152, %167
  br i1 %168, label %169, label %171

169:                                              ; preds = %165
  store i8 %161, i8* %166, align 1, !tbaa !3
  store i8 %167, i8* %8, align 1, !tbaa !3
  %170 = getelementptr inbounds i8, i8* %166, i64 1
  br label %174

171:                                              ; preds = %165
  %172 = getelementptr inbounds i8, i8* %166, i64 1
  %173 = icmp eq i8* %172, %8
  br i1 %173, label %262, label %165

174:                                              ; preds = %169, %159
  %175 = phi i8* [ %160, %159 ], [ %170, %169 ]
  %176 = icmp eq i8* %175, %8
  br i1 %176, label %262, label %177

177:                                              ; preds = %174, %193
  %178 = phi i8* [ %185, %193 ], [ %175, %174 ]
  %179 = phi i8* [ %188, %193 ], [ %8, %174 ]
  %180 = load i8, i8* %13, align 1, !tbaa !3
  br label %181

181:                                              ; preds = %181, %177
  %182 = phi i8* [ %178, %177 ], [ %185, %181 ]
  %183 = load i8, i8* %182, align 1, !tbaa !3
  %184 = icmp ult i8 %180, %183
  %185 = getelementptr inbounds i8, i8* %182, i64 1
  br i1 %184, label %186, label %181

186:                                              ; preds = %181, %186
  %187 = phi i8* [ %188, %186 ], [ %179, %181 ]
  %188 = getelementptr inbounds i8, i8* %187, i64 -1
  %189 = load i8, i8* %188, align 1, !tbaa !3
  %190 = icmp ult i8 %180, %189
  br i1 %190, label %186, label %191

191:                                              ; preds = %186
  %192 = icmp ult i8* %182, %188
  br i1 %192, label %193, label %259

193:                                              ; preds = %191
  store i8 %189, i8* %182, align 1, !tbaa !3
  store i8 %183, i8* %188, align 1, !tbaa !3
  br label %177

194:                                              ; preds = %155
  %195 = load i8, i8* %157, align 1, !tbaa !3
  %196 = icmp ult i8 %195, %153
  br i1 %196, label %197, label %155

197:                                              ; preds = %194
  store i8 %195, i8* %13, align 1, !tbaa !3
  store i8 %152, i8* %157, align 1, !tbaa !3
  %198 = add i32 %151, 1
  br label %199

199:                                              ; preds = %197, %150
  %200 = phi i32 [ %151, %150 ], [ %198, %197 ]
  %201 = phi i8* [ %8, %150 ], [ %157, %197 ]
  %202 = getelementptr inbounds i8, i8* %13, i64 1
  %203 = icmp ult i8* %202, %201
  br i1 %203, label %204, label %226

204:                                              ; preds = %199, %222
  %205 = phi i8* [ %225, %222 ], [ %126, %199 ]
  %206 = phi i32 [ %223, %222 ], [ %200, %199 ]
  %207 = phi i8* [ %214, %222 ], [ %202, %199 ]
  %208 = phi i8* [ %217, %222 ], [ %201, %199 ]
  %209 = load i8, i8* %205, align 1, !tbaa !3
  br label %210

210:                                              ; preds = %210, %204
  %211 = phi i8* [ %207, %204 ], [ %214, %210 ]
  %212 = load i8, i8* %211, align 1, !tbaa !3
  %213 = icmp ult i8 %212, %209
  %214 = getelementptr inbounds i8, i8* %211, i64 1
  br i1 %213, label %210, label %215

215:                                              ; preds = %210, %215
  %216 = phi i8* [ %217, %215 ], [ %208, %210 ]
  %217 = getelementptr inbounds i8, i8* %216, i64 -1
  %218 = load i8, i8* %217, align 1, !tbaa !3
  %219 = icmp ult i8 %218, %209
  br i1 %219, label %220, label %215

220:                                              ; preds = %215
  %221 = icmp ugt i8* %211, %217
  br i1 %221, label %226, label %222

222:                                              ; preds = %220
  store i8 %218, i8* %211, align 1, !tbaa !3
  store i8 %212, i8* %217, align 1, !tbaa !3
  %223 = add i32 %206, 1
  %224 = icmp eq i8* %205, %211
  %225 = select i1 %224, i8* %217, i8* %205
  br label %204

226:                                              ; preds = %220, %199
  %227 = phi i8* [ %126, %199 ], [ %205, %220 ]
  %228 = phi i32 [ %200, %199 ], [ %206, %220 ]
  %229 = phi i8* [ %202, %199 ], [ %211, %220 ]
  %230 = icmp eq i8* %229, %227
  br i1 %230, label %237, label %231

231:                                              ; preds = %226
  %232 = load i8, i8* %227, align 1, !tbaa !3
  %233 = load i8, i8* %229, align 1, !tbaa !3
  %234 = icmp ult i8 %232, %233
  br i1 %234, label %235, label %237

235:                                              ; preds = %231
  store i8 %232, i8* %229, align 1, !tbaa !3
  store i8 %233, i8* %227, align 1, !tbaa !3
  %236 = add i32 %228, 1
  br label %237

237:                                              ; preds = %226, %235, %231
  %238 = phi i32 [ %236, %235 ], [ %228, %231 ], [ %228, %226 ]
  %239 = icmp eq i32 %238, 0
  br i1 %239, label %240, label %247

240:                                              ; preds = %237
  %241 = tail call zeroext i1 @_ZNSt3__127__insertion_sort_incompleteIRNS_6__lessIhhEEPhEEbT0_S5_T_(i8* nonnull %13, i8* %229, %"struct.std::__1::__less.2"* nonnull align 1 dereferenceable(1) %2)
  %242 = getelementptr inbounds i8, i8* %229, i64 1
  %243 = tail call zeroext i1 @_ZNSt3__127__insertion_sort_incompleteIRNS_6__lessIhhEEPhEEbT0_S5_T_(i8* nonnull %242, i8* %5, %"struct.std::__1::__less.2"* nonnull align 1 dereferenceable(1) %2)
  br i1 %243, label %244, label %246

244:                                              ; preds = %240
  br i1 %241, label %262, label %245

245:                                              ; preds = %244, %257
  br label %4

246:                                              ; preds = %240
  br i1 %241, label %259, label %247

247:                                              ; preds = %237, %246
  %248 = ptrtoint i8* %13 to i64
  %249 = ptrtoint i8* %229 to i64
  %250 = sub i64 %249, %248
  %251 = sub i64 %9, %249
  %252 = icmp slt i64 %250, %251
  br i1 %252, label %253, label %257

253:                                              ; preds = %247
  tail call void @_ZNSt3__16__sortIRNS_6__lessIhhEEPhEEvT0_S5_T_(i8* %13, i8* %229, %"struct.std::__1::__less.2"* nonnull align 1 dereferenceable(1) %2)
  %254 = getelementptr inbounds i8, i8* %229, i64 1
  br label %255

255:                                              ; preds = %259, %259, %253
  %256 = phi i8* [ %254, %253 ], [ %261, %259 ], [ %261, %259 ]
  br label %10

257:                                              ; preds = %247
  %258 = getelementptr inbounds i8, i8* %229, i64 1
  tail call void @_ZNSt3__16__sortIRNS_6__lessIhhEEPhEEvT0_S5_T_(i8* nonnull %258, i8* %5, %"struct.std::__1::__less.2"* nonnull align 1 dereferenceable(1) %2)
  br label %245

259:                                              ; preds = %191, %246
  %260 = phi i32 [ 2, %246 ], [ 4, %191 ]
  %261 = phi i8* [ %242, %246 ], [ %182, %191 ]
  switch i32 %260, label %262 [
    i32 0, label %255
    i32 4, label %12
    i32 2, label %255
  ]

262:                                              ; preds = %244, %174, %12, %12, %259, %163, %171, %118, %97, %71, %68, %64, %60, %41, %38, %37, %35, %31, %30, %16, %21, %72
  ret void
}

; Function Attrs: nounwind uwtable
define linkonce_odr hidden i32 @_ZNSt3__17__sort5IRNS_6__lessIhhEEPhEEjT0_S5_S5_S5_S5_T_(i8* %0, i8* %1, i8* %2, i8* %3, i8* %4, %"struct.std::__1::__less.2"* nonnull align 1 dereferenceable(1) %5) local_unnamed_addr #1 comdat {
  %7 = load i8, i8* %1, align 1, !tbaa !3
  %8 = load i8, i8* %0, align 1, !tbaa !3
  %9 = icmp ult i8 %7, %8
  %10 = load i8, i8* %2, align 1, !tbaa !3
  %11 = icmp ult i8 %10, %7
  br i1 %9, label %19, label %12

12:                                               ; preds = %6
  br i1 %11, label %13, label %25

13:                                               ; preds = %12
  store i8 %10, i8* %1, align 1, !tbaa !3
  store i8 %7, i8* %2, align 1, !tbaa !3
  %14 = load i8, i8* %1, align 1, !tbaa !3
  %15 = load i8, i8* %0, align 1, !tbaa !3
  %16 = icmp ult i8 %14, %15
  br i1 %16, label %17, label %25

17:                                               ; preds = %13
  store i8 %14, i8* %0, align 1, !tbaa !3
  store i8 %15, i8* %1, align 1, !tbaa !3
  %18 = load i8, i8* %2, align 1, !tbaa !3
  br label %25

19:                                               ; preds = %6
  br i1 %11, label %20, label %21

20:                                               ; preds = %19
  store i8 %10, i8* %0, align 1, !tbaa !3
  store i8 %8, i8* %2, align 1, !tbaa !3
  br label %25

21:                                               ; preds = %19
  store i8 %7, i8* %0, align 1, !tbaa !3
  store i8 %8, i8* %1, align 1, !tbaa !3
  %22 = load i8, i8* %2, align 1, !tbaa !3
  %23 = icmp ult i8 %22, %8
  br i1 %23, label %24, label %25

24:                                               ; preds = %21
  store i8 %22, i8* %1, align 1, !tbaa !3
  store i8 %8, i8* %2, align 1, !tbaa !3
  br label %25

25:                                               ; preds = %24, %21, %20, %17, %13, %12
  %26 = phi i8 [ %8, %20 ], [ %10, %12 ], [ %18, %17 ], [ %7, %13 ], [ %8, %24 ], [ %22, %21 ]
  %27 = phi i32 [ 1, %20 ], [ 0, %12 ], [ 2, %17 ], [ 1, %13 ], [ 2, %24 ], [ 1, %21 ]
  %28 = load i8, i8* %3, align 1, !tbaa !3
  %29 = icmp ult i8 %28, %26
  br i1 %29, label %30, label %42

30:                                               ; preds = %25
  store i8 %28, i8* %2, align 1, !tbaa !3
  store i8 %26, i8* %3, align 1, !tbaa !3
  %31 = add nuw nsw i32 %27, 1
  %32 = load i8, i8* %2, align 1, !tbaa !3
  %33 = load i8, i8* %1, align 1, !tbaa !3
  %34 = icmp ult i8 %32, %33
  br i1 %34, label %35, label %42

35:                                               ; preds = %30
  store i8 %32, i8* %1, align 1, !tbaa !3
  store i8 %33, i8* %2, align 1, !tbaa !3
  %36 = add nuw nsw i32 %27, 2
  %37 = load i8, i8* %1, align 1, !tbaa !3
  %38 = load i8, i8* %0, align 1, !tbaa !3
  %39 = icmp ult i8 %37, %38
  br i1 %39, label %40, label %42

40:                                               ; preds = %35
  store i8 %37, i8* %0, align 1, !tbaa !3
  store i8 %38, i8* %1, align 1, !tbaa !3
  %41 = add nuw nsw i32 %27, 3
  br label %42

42:                                               ; preds = %25, %30, %35, %40
  %43 = phi i32 [ %41, %40 ], [ %36, %35 ], [ %31, %30 ], [ %27, %25 ]
  %44 = load i8, i8* %4, align 1, !tbaa !3
  %45 = load i8, i8* %3, align 1, !tbaa !3
  %46 = icmp ult i8 %44, %45
  br i1 %46, label %47, label %64

47:                                               ; preds = %42
  store i8 %44, i8* %3, align 1, !tbaa !3
  store i8 %45, i8* %4, align 1, !tbaa !3
  %48 = add nuw nsw i32 %43, 1
  %49 = load i8, i8* %3, align 1, !tbaa !3
  %50 = load i8, i8* %2, align 1, !tbaa !3
  %51 = icmp ult i8 %49, %50
  br i1 %51, label %52, label %64

52:                                               ; preds = %47
  store i8 %49, i8* %2, align 1, !tbaa !3
  store i8 %50, i8* %3, align 1, !tbaa !3
  %53 = add nuw nsw i32 %43, 2
  %54 = load i8, i8* %2, align 1, !tbaa !3
  %55 = load i8, i8* %1, align 1, !tbaa !3
  %56 = icmp ult i8 %54, %55
  br i1 %56, label %57, label %64

57:                                               ; preds = %52
  store i8 %54, i8* %1, align 1, !tbaa !3
  store i8 %55, i8* %2, align 1, !tbaa !3
  %58 = add nuw nsw i32 %43, 3
  %59 = load i8, i8* %1, align 1, !tbaa !3
  %60 = load i8, i8* %0, align 1, !tbaa !3
  %61 = icmp ult i8 %59, %60
  br i1 %61, label %62, label %64

62:                                               ; preds = %57
  store i8 %59, i8* %0, align 1, !tbaa !3
  store i8 %60, i8* %1, align 1, !tbaa !3
  %63 = add nuw nsw i32 %43, 4
  br label %64

64:                                               ; preds = %47, %57, %62, %52, %42
  %65 = phi i32 [ %63, %62 ], [ %58, %57 ], [ %53, %52 ], [ %48, %47 ], [ %43, %42 ]
  ret i32 %65
}

; Function Attrs: uwtable
define weak_odr zeroext i1 @_ZNSt3__127__insertion_sort_incompleteIRNS_6__lessIhhEEPhEEbT0_S5_T_(i8* %0, i8* %1, %"struct.std::__1::__less.2"* nonnull align 1 dereferenceable(1) %2) local_unnamed_addr #0 comdat {
  %4 = ptrtoint i8* %1 to i64
  %5 = ptrtoint i8* %0 to i64
  %6 = sub i64 %4, %5
  switch i64 %6, label %69 [
    i64 0, label %119
    i64 1, label %119
    i64 2, label %7
    i64 3, label %13
    i64 4, label %33
    i64 5, label %63
  ]

7:                                                ; preds = %3
  %8 = getelementptr inbounds i8, i8* %1, i64 -1
  %9 = load i8, i8* %8, align 1, !tbaa !3
  %10 = load i8, i8* %0, align 1, !tbaa !3
  %11 = icmp ult i8 %9, %10
  br i1 %11, label %12, label %119

12:                                               ; preds = %7
  store i8 %9, i8* %0, align 1, !tbaa !3
  store i8 %10, i8* %8, align 1, !tbaa !3
  br label %119

13:                                               ; preds = %3
  %14 = getelementptr inbounds i8, i8* %0, i64 1
  %15 = getelementptr inbounds i8, i8* %1, i64 -1
  %16 = load i8, i8* %14, align 1, !tbaa !3
  %17 = load i8, i8* %0, align 1, !tbaa !3
  %18 = icmp ult i8 %16, %17
  %19 = load i8, i8* %15, align 1, !tbaa !3
  %20 = icmp ult i8 %19, %16
  br i1 %18, label %27, label %21

21:                                               ; preds = %13
  br i1 %20, label %22, label %119

22:                                               ; preds = %21
  store i8 %19, i8* %14, align 1, !tbaa !3
  store i8 %16, i8* %15, align 1, !tbaa !3
  %23 = load i8, i8* %14, align 1, !tbaa !3
  %24 = load i8, i8* %0, align 1, !tbaa !3
  %25 = icmp ult i8 %23, %24
  br i1 %25, label %26, label %119

26:                                               ; preds = %22
  store i8 %23, i8* %0, align 1, !tbaa !3
  store i8 %24, i8* %14, align 1, !tbaa !3
  br label %119

27:                                               ; preds = %13
  br i1 %20, label %28, label %29

28:                                               ; preds = %27
  store i8 %19, i8* %0, align 1, !tbaa !3
  store i8 %17, i8* %15, align 1, !tbaa !3
  br label %119

29:                                               ; preds = %27
  store i8 %16, i8* %0, align 1, !tbaa !3
  store i8 %17, i8* %14, align 1, !tbaa !3
  %30 = load i8, i8* %15, align 1, !tbaa !3
  %31 = icmp ult i8 %30, %17
  br i1 %31, label %32, label %119

32:                                               ; preds = %29
  store i8 %30, i8* %14, align 1, !tbaa !3
  store i8 %17, i8* %15, align 1, !tbaa !3
  br label %119

33:                                               ; preds = %3
  %34 = getelementptr inbounds i8, i8* %0, i64 1
  %35 = getelementptr inbounds i8, i8* %0, i64 2
  %36 = getelementptr inbounds i8, i8* %1, i64 -1
  %37 = load i8, i8* %34, align 1, !tbaa !3
  %38 = load i8, i8* %0, align 1, !tbaa !3
  %39 = icmp ult i8 %37, %38
  %40 = load i8, i8* %35, align 1, !tbaa !3
  %41 = icmp ult i8 %40, %37
  br i1 %39, label %46, label %42

42:                                               ; preds = %33
  br i1 %41, label %43, label %51

43:                                               ; preds = %42
  store i8 %40, i8* %34, align 1, !tbaa !3
  store i8 %37, i8* %35, align 1, !tbaa !3
  %44 = icmp ult i8 %40, %38
  br i1 %44, label %45, label %51

45:                                               ; preds = %43
  store i8 %40, i8* %0, align 1, !tbaa !3
  store i8 %38, i8* %34, align 1, !tbaa !3
  br label %51

46:                                               ; preds = %33
  br i1 %41, label %47, label %48

47:                                               ; preds = %46
  store i8 %40, i8* %0, align 1, !tbaa !3
  store i8 %38, i8* %35, align 1, !tbaa !3
  br label %51

48:                                               ; preds = %46
  store i8 %37, i8* %0, align 1, !tbaa !3
  store i8 %38, i8* %34, align 1, !tbaa !3
  %49 = icmp ult i8 %40, %38
  br i1 %49, label %50, label %51

50:                                               ; preds = %48
  store i8 %40, i8* %34, align 1, !tbaa !3
  store i8 %38, i8* %35, align 1, !tbaa !3
  br label %51

51:                                               ; preds = %50, %48, %47, %45, %43, %42
  %52 = phi i8 [ %38, %47 ], [ %40, %42 ], [ %37, %45 ], [ %37, %43 ], [ %38, %50 ], [ %40, %48 ]
  %53 = load i8, i8* %36, align 1, !tbaa !3
  %54 = icmp ult i8 %53, %52
  br i1 %54, label %55, label %119

55:                                               ; preds = %51
  store i8 %53, i8* %35, align 1, !tbaa !3
  store i8 %52, i8* %36, align 1, !tbaa !3
  %56 = load i8, i8* %35, align 1, !tbaa !3
  %57 = load i8, i8* %34, align 1, !tbaa !3
  %58 = icmp ult i8 %56, %57
  br i1 %58, label %59, label %119

59:                                               ; preds = %55
  store i8 %56, i8* %34, align 1, !tbaa !3
  store i8 %57, i8* %35, align 1, !tbaa !3
  %60 = load i8, i8* %0, align 1, !tbaa !3
  %61 = icmp ult i8 %56, %60
  br i1 %61, label %62, label %119

62:                                               ; preds = %59
  store i8 %56, i8* %0, align 1, !tbaa !3
  store i8 %60, i8* %34, align 1, !tbaa !3
  br label %119

63:                                               ; preds = %3
  %64 = getelementptr inbounds i8, i8* %0, i64 1
  %65 = getelementptr inbounds i8, i8* %0, i64 2
  %66 = getelementptr inbounds i8, i8* %0, i64 3
  %67 = getelementptr inbounds i8, i8* %1, i64 -1
  %68 = tail call i32 @_ZNSt3__17__sort5IRNS_6__lessIhhEEPhEEjT0_S5_S5_S5_S5_T_(i8* %0, i8* nonnull %64, i8* nonnull %65, i8* nonnull %66, i8* nonnull %67, %"struct.std::__1::__less.2"* nonnull align 1 dereferenceable(1) %2)
  br label %119

69:                                               ; preds = %3
  %70 = getelementptr inbounds i8, i8* %0, i64 2
  %71 = getelementptr inbounds i8, i8* %0, i64 1
  %72 = load i8, i8* %71, align 1, !tbaa !3
  %73 = load i8, i8* %0, align 1, !tbaa !3
  %74 = icmp ult i8 %72, %73
  %75 = load i8, i8* %70, align 1, !tbaa !3
  %76 = icmp ult i8 %75, %72
  br i1 %74, label %81, label %77

77:                                               ; preds = %69
  br i1 %76, label %78, label %86

78:                                               ; preds = %77
  store i8 %75, i8* %71, align 1, !tbaa !3
  store i8 %72, i8* %70, align 1, !tbaa !3
  %79 = icmp ult i8 %75, %73
  br i1 %79, label %80, label %86

80:                                               ; preds = %78
  store i8 %75, i8* %0, align 1, !tbaa !3
  store i8 %73, i8* %71, align 1, !tbaa !3
  br label %86

81:                                               ; preds = %69
  br i1 %76, label %82, label %83

82:                                               ; preds = %81
  store i8 %75, i8* %0, align 1, !tbaa !3
  store i8 %73, i8* %70, align 1, !tbaa !3
  br label %86

83:                                               ; preds = %81
  store i8 %72, i8* %0, align 1, !tbaa !3
  store i8 %73, i8* %71, align 1, !tbaa !3
  %84 = icmp ult i8 %75, %73
  br i1 %84, label %85, label %86

85:                                               ; preds = %83
  store i8 %75, i8* %71, align 1, !tbaa !3
  store i8 %73, i8* %70, align 1, !tbaa !3
  br label %86

86:                                               ; preds = %77, %78, %80, %82, %83, %85
  %87 = phi i8 [ %75, %77 ], [ %72, %78 ], [ %72, %80 ], [ %73, %82 ], [ %75, %83 ], [ %73, %85 ]
  %88 = getelementptr inbounds i8, i8* %0, i64 3
  %89 = icmp eq i8* %88, %1
  br i1 %89, label %119, label %90

90:                                               ; preds = %86, %114
  %91 = phi i8 [ %115, %114 ], [ %87, %86 ]
  %92 = phi i8* [ %112, %114 ], [ %88, %86 ]
  %93 = phi i32 [ %111, %114 ], [ 0, %86 ]
  %94 = phi i8* [ %92, %114 ], [ %70, %86 ]
  %95 = load i8, i8* %92, align 1, !tbaa !3
  %96 = icmp ult i8 %95, %91
  br i1 %96, label %97, label %110

97:                                               ; preds = %90, %102
  %98 = phi i8 [ %104, %102 ], [ %91, %90 ]
  %99 = phi i8* [ %100, %102 ], [ %92, %90 ]
  %100 = phi i8* [ %103, %102 ], [ %94, %90 ]
  store i8 %98, i8* %99, align 1, !tbaa !3
  %101 = icmp eq i8* %100, %0
  br i1 %101, label %106, label %102

102:                                              ; preds = %97
  %103 = getelementptr inbounds i8, i8* %100, i64 -1
  %104 = load i8, i8* %103, align 1, !tbaa !3
  %105 = icmp ult i8 %95, %104
  br i1 %105, label %97, label %106

106:                                              ; preds = %97, %102
  %107 = phi i8* [ %0, %97 ], [ %100, %102 ]
  store i8 %95, i8* %107, align 1, !tbaa !3
  %108 = add i32 %93, 1
  %109 = icmp eq i32 %108, 8
  br i1 %109, label %116, label %110

110:                                              ; preds = %106, %90
  %111 = phi i32 [ %108, %106 ], [ %93, %90 ]
  %112 = getelementptr inbounds i8, i8* %92, i64 1
  %113 = icmp eq i8* %112, %1
  br i1 %113, label %119, label %114

114:                                              ; preds = %110
  %115 = load i8, i8* %92, align 1, !tbaa !3
  br label %90

116:                                              ; preds = %106
  %117 = getelementptr inbounds i8, i8* %92, i64 1
  %118 = icmp eq i8* %117, %1
  br label %119

119:                                              ; preds = %110, %116, %86, %62, %59, %55, %51, %32, %29, %28, %26, %22, %21, %7, %12, %3, %3, %63
  %120 = phi i1 [ true, %63 ], [ true, %3 ], [ true, %3 ], [ true, %12 ], [ true, %7 ], [ true, %21 ], [ true, %22 ], [ true, %26 ], [ true, %28 ], [ true, %29 ], [ true, %32 ], [ true, %51 ], [ true, %55 ], [ true, %59 ], [ true, %62 ], [ true, %86 ], [ %118, %116 ], [ true, %110 ]
  ret i1 %120
}

; Function Attrs: uwtable
define weak_odr void @_ZNSt3__16__sortIRNS_6__lessIssEEPsEEvT0_S5_T_(i16* %0, i16* %1, %"struct.std::__1::__less.3"* nonnull align 1 dereferenceable(1) %2) local_unnamed_addr #0 comdat {
  br label %4

4:                                                ; preds = %246, %3
  %5 = phi i16* [ %1, %3 ], [ %230, %246 ]
  %6 = phi i16* [ %0, %3 ], [ %13, %246 ]
  %7 = ptrtoint i16* %5 to i64
  %8 = getelementptr inbounds i16, i16* %5, i64 -1
  %9 = ptrtoint i16* %5 to i64
  br label %10

10:                                               ; preds = %256, %4
  %11 = phi i16* [ %6, %4 ], [ %257, %256 ]
  br label %12

12:                                               ; preds = %260, %10
  %13 = phi i16* [ %11, %10 ], [ %262, %260 ]
  %14 = ptrtoint i16* %13 to i64
  %15 = sub i64 %7, %14
  %16 = ashr exact i64 %15, 1
  switch i64 %16, label %79 [
    i64 0, label %263
    i64 1, label %263
    i64 2, label %17
    i64 3, label %23
    i64 4, label %43
    i64 5, label %73
  ]

17:                                               ; preds = %12
  %18 = getelementptr inbounds i16, i16* %5, i64 -1
  %19 = load i16, i16* %18, align 2, !tbaa !8
  %20 = load i16, i16* %13, align 2, !tbaa !8
  %21 = icmp slt i16 %19, %20
  br i1 %21, label %22, label %263

22:                                               ; preds = %17
  store i16 %19, i16* %13, align 2, !tbaa !8
  store i16 %20, i16* %18, align 2, !tbaa !8
  br label %263

23:                                               ; preds = %12
  %24 = getelementptr inbounds i16, i16* %13, i64 1
  %25 = getelementptr inbounds i16, i16* %5, i64 -1
  %26 = load i16, i16* %24, align 2, !tbaa !8
  %27 = load i16, i16* %13, align 2, !tbaa !8
  %28 = icmp slt i16 %26, %27
  %29 = load i16, i16* %25, align 2, !tbaa !8
  %30 = icmp slt i16 %29, %26
  br i1 %28, label %37, label %31

31:                                               ; preds = %23
  br i1 %30, label %32, label %263

32:                                               ; preds = %31
  store i16 %29, i16* %24, align 2, !tbaa !8
  store i16 %26, i16* %25, align 2, !tbaa !8
  %33 = load i16, i16* %24, align 2, !tbaa !8
  %34 = load i16, i16* %13, align 2, !tbaa !8
  %35 = icmp slt i16 %33, %34
  br i1 %35, label %36, label %263

36:                                               ; preds = %32
  store i16 %33, i16* %13, align 2, !tbaa !8
  store i16 %34, i16* %24, align 2, !tbaa !8
  br label %263

37:                                               ; preds = %23
  br i1 %30, label %38, label %39

38:                                               ; preds = %37
  store i16 %29, i16* %13, align 2, !tbaa !8
  store i16 %27, i16* %25, align 2, !tbaa !8
  br label %263

39:                                               ; preds = %37
  store i16 %26, i16* %13, align 2, !tbaa !8
  store i16 %27, i16* %24, align 2, !tbaa !8
  %40 = load i16, i16* %25, align 2, !tbaa !8
  %41 = icmp slt i16 %40, %27
  br i1 %41, label %42, label %263

42:                                               ; preds = %39
  store i16 %40, i16* %24, align 2, !tbaa !8
  store i16 %27, i16* %25, align 2, !tbaa !8
  br label %263

43:                                               ; preds = %12
  %44 = getelementptr inbounds i16, i16* %13, i64 1
  %45 = getelementptr inbounds i16, i16* %13, i64 2
  %46 = getelementptr inbounds i16, i16* %5, i64 -1
  %47 = load i16, i16* %44, align 2, !tbaa !8
  %48 = load i16, i16* %13, align 2, !tbaa !8
  %49 = icmp slt i16 %47, %48
  %50 = load i16, i16* %45, align 2, !tbaa !8
  %51 = icmp slt i16 %50, %47
  br i1 %49, label %56, label %52

52:                                               ; preds = %43
  br i1 %51, label %53, label %61

53:                                               ; preds = %52
  store i16 %50, i16* %44, align 2, !tbaa !8
  store i16 %47, i16* %45, align 2, !tbaa !8
  %54 = icmp slt i16 %50, %48
  br i1 %54, label %55, label %61

55:                                               ; preds = %53
  store i16 %50, i16* %13, align 2, !tbaa !8
  store i16 %48, i16* %44, align 2, !tbaa !8
  br label %61

56:                                               ; preds = %43
  br i1 %51, label %57, label %58

57:                                               ; preds = %56
  store i16 %50, i16* %13, align 2, !tbaa !8
  store i16 %48, i16* %45, align 2, !tbaa !8
  br label %61

58:                                               ; preds = %56
  store i16 %47, i16* %13, align 2, !tbaa !8
  store i16 %48, i16* %44, align 2, !tbaa !8
  %59 = icmp slt i16 %50, %48
  br i1 %59, label %60, label %61

60:                                               ; preds = %58
  store i16 %50, i16* %44, align 2, !tbaa !8
  store i16 %48, i16* %45, align 2, !tbaa !8
  br label %61

61:                                               ; preds = %60, %58, %57, %55, %53, %52
  %62 = phi i16 [ %48, %57 ], [ %50, %52 ], [ %47, %55 ], [ %47, %53 ], [ %48, %60 ], [ %50, %58 ]
  %63 = load i16, i16* %46, align 2, !tbaa !8
  %64 = icmp slt i16 %63, %62
  br i1 %64, label %65, label %263

65:                                               ; preds = %61
  store i16 %63, i16* %45, align 2, !tbaa !8
  store i16 %62, i16* %46, align 2, !tbaa !8
  %66 = load i16, i16* %45, align 2, !tbaa !8
  %67 = load i16, i16* %44, align 2, !tbaa !8
  %68 = icmp slt i16 %66, %67
  br i1 %68, label %69, label %263

69:                                               ; preds = %65
  store i16 %66, i16* %44, align 2, !tbaa !8
  store i16 %67, i16* %45, align 2, !tbaa !8
  %70 = load i16, i16* %13, align 2, !tbaa !8
  %71 = icmp slt i16 %66, %70
  br i1 %71, label %72, label %263

72:                                               ; preds = %69
  store i16 %66, i16* %13, align 2, !tbaa !8
  store i16 %70, i16* %44, align 2, !tbaa !8
  br label %263

73:                                               ; preds = %12
  %74 = getelementptr inbounds i16, i16* %13, i64 1
  %75 = getelementptr inbounds i16, i16* %13, i64 2
  %76 = getelementptr inbounds i16, i16* %13, i64 3
  %77 = getelementptr inbounds i16, i16* %5, i64 -1
  %78 = tail call i32 @_ZNSt3__17__sort5IRNS_6__lessIssEEPsEEjT0_S5_S5_S5_S5_T_(i16* %13, i16* nonnull %74, i16* nonnull %75, i16* nonnull %76, i16* nonnull %77, %"struct.std::__1::__less.3"* nonnull align 1 dereferenceable(1) %2)
  br label %263

79:                                               ; preds = %12
  %80 = icmp slt i64 %15, 62
  br i1 %80, label %81, label %124

81:                                               ; preds = %79
  %82 = getelementptr inbounds i16, i16* %13, i64 2
  %83 = getelementptr inbounds i16, i16* %13, i64 1
  %84 = load i16, i16* %83, align 2, !tbaa !8
  %85 = load i16, i16* %13, align 2, !tbaa !8
  %86 = icmp slt i16 %84, %85
  %87 = load i16, i16* %82, align 2, !tbaa !8
  %88 = icmp slt i16 %87, %84
  br i1 %86, label %93, label %89

89:                                               ; preds = %81
  br i1 %88, label %90, label %98

90:                                               ; preds = %89
  store i16 %87, i16* %83, align 2, !tbaa !8
  store i16 %84, i16* %82, align 2, !tbaa !8
  %91 = icmp slt i16 %87, %85
  br i1 %91, label %92, label %98

92:                                               ; preds = %90
  store i16 %87, i16* %13, align 2, !tbaa !8
  store i16 %85, i16* %83, align 2, !tbaa !8
  br label %98

93:                                               ; preds = %81
  br i1 %88, label %94, label %95

94:                                               ; preds = %93
  store i16 %87, i16* %13, align 2, !tbaa !8
  store i16 %85, i16* %82, align 2, !tbaa !8
  br label %98

95:                                               ; preds = %93
  store i16 %84, i16* %13, align 2, !tbaa !8
  store i16 %85, i16* %83, align 2, !tbaa !8
  %96 = icmp slt i16 %87, %85
  br i1 %96, label %97, label %98

97:                                               ; preds = %95
  store i16 %87, i16* %83, align 2, !tbaa !8
  store i16 %85, i16* %82, align 2, !tbaa !8
  br label %98

98:                                               ; preds = %97, %95, %94, %92, %90, %89
  %99 = phi i16 [ %87, %89 ], [ %84, %90 ], [ %84, %92 ], [ %85, %94 ], [ %87, %95 ], [ %85, %97 ]
  %100 = getelementptr inbounds i16, i16* %13, i64 3
  %101 = icmp eq i16* %100, %5
  br i1 %101, label %263, label %102

102:                                              ; preds = %98, %122
  %103 = phi i16 [ %123, %122 ], [ %99, %98 ]
  %104 = phi i16* [ %120, %122 ], [ %100, %98 ]
  %105 = phi i16* [ %104, %122 ], [ %82, %98 ]
  %106 = load i16, i16* %104, align 2, !tbaa !8
  %107 = icmp slt i16 %106, %103
  br i1 %107, label %108, label %119

108:                                              ; preds = %102, %113
  %109 = phi i16 [ %115, %113 ], [ %103, %102 ]
  %110 = phi i16* [ %111, %113 ], [ %104, %102 ]
  %111 = phi i16* [ %114, %113 ], [ %105, %102 ]
  store i16 %109, i16* %110, align 2, !tbaa !8
  %112 = icmp eq i16* %111, %13
  br i1 %112, label %117, label %113

113:                                              ; preds = %108
  %114 = getelementptr inbounds i16, i16* %111, i64 -1
  %115 = load i16, i16* %114, align 2, !tbaa !8
  %116 = icmp slt i16 %106, %115
  br i1 %116, label %108, label %117

117:                                              ; preds = %113, %108
  %118 = phi i16* [ %13, %108 ], [ %111, %113 ]
  store i16 %106, i16* %118, align 2, !tbaa !8
  br label %119

119:                                              ; preds = %117, %102
  %120 = getelementptr inbounds i16, i16* %104, i64 1
  %121 = icmp eq i16* %120, %5
  br i1 %121, label %263, label %122

122:                                              ; preds = %119
  %123 = load i16, i16* %104, align 2, !tbaa !8
  br label %102

124:                                              ; preds = %79
  %125 = icmp sgt i64 %15, 1998
  %126 = sdiv i64 %16, 2
  %127 = getelementptr inbounds i16, i16* %13, i64 %126
  br i1 %125, label %128, label %133

128:                                              ; preds = %124
  %129 = sdiv i64 %16, 4
  %130 = getelementptr inbounds i16, i16* %13, i64 %129
  %131 = getelementptr inbounds i16, i16* %127, i64 %129
  %132 = tail call i32 @_ZNSt3__17__sort5IRNS_6__lessIssEEPsEEjT0_S5_S5_S5_S5_T_(i16* %13, i16* %130, i16* %127, i16* %131, i16* nonnull %8, %"struct.std::__1::__less.3"* nonnull align 1 dereferenceable(1) %2)
  br label %151

133:                                              ; preds = %124
  %134 = load i16, i16* %127, align 2, !tbaa !8
  %135 = load i16, i16* %13, align 2, !tbaa !8
  %136 = icmp slt i16 %134, %135
  %137 = load i16, i16* %8, align 2, !tbaa !8
  %138 = icmp slt i16 %137, %134
  br i1 %136, label %145, label %139

139:                                              ; preds = %133
  br i1 %138, label %140, label %151

140:                                              ; preds = %139
  store i16 %137, i16* %127, align 2, !tbaa !8
  store i16 %134, i16* %8, align 2, !tbaa !8
  %141 = load i16, i16* %127, align 2, !tbaa !8
  %142 = load i16, i16* %13, align 2, !tbaa !8
  %143 = icmp slt i16 %141, %142
  br i1 %143, label %144, label %151

144:                                              ; preds = %140
  store i16 %141, i16* %13, align 2, !tbaa !8
  store i16 %142, i16* %127, align 2, !tbaa !8
  br label %151

145:                                              ; preds = %133
  br i1 %138, label %146, label %147

146:                                              ; preds = %145
  store i16 %137, i16* %13, align 2, !tbaa !8
  store i16 %135, i16* %8, align 2, !tbaa !8
  br label %151

147:                                              ; preds = %145
  store i16 %134, i16* %13, align 2, !tbaa !8
  store i16 %135, i16* %127, align 2, !tbaa !8
  %148 = load i16, i16* %8, align 2, !tbaa !8
  %149 = icmp slt i16 %148, %135
  br i1 %149, label %150, label %151

150:                                              ; preds = %147
  store i16 %148, i16* %127, align 2, !tbaa !8
  store i16 %135, i16* %8, align 2, !tbaa !8
  br label %151

151:                                              ; preds = %150, %147, %146, %144, %140, %139, %128
  %152 = phi i32 [ %132, %128 ], [ 1, %146 ], [ 0, %139 ], [ 2, %144 ], [ 1, %140 ], [ 2, %150 ], [ 1, %147 ]
  %153 = load i16, i16* %13, align 2, !tbaa !8
  %154 = load i16, i16* %127, align 2, !tbaa !8
  %155 = icmp slt i16 %153, %154
  br i1 %155, label %200, label %156

156:                                              ; preds = %151, %195
  %157 = phi i16* [ %158, %195 ], [ %8, %151 ]
  %158 = getelementptr inbounds i16, i16* %157, i64 -1
  %159 = icmp eq i16* %13, %158
  br i1 %159, label %160, label %195

160:                                              ; preds = %156
  %161 = getelementptr inbounds i16, i16* %13, i64 1
  %162 = load i16, i16* %8, align 2, !tbaa !8
  %163 = icmp slt i16 %153, %162
  br i1 %163, label %175, label %164

164:                                              ; preds = %160
  %165 = icmp eq i16* %161, %8
  br i1 %165, label %263, label %166

166:                                              ; preds = %164, %172
  %167 = phi i16* [ %173, %172 ], [ %161, %164 ]
  %168 = load i16, i16* %167, align 2, !tbaa !8
  %169 = icmp slt i16 %153, %168
  br i1 %169, label %170, label %172

170:                                              ; preds = %166
  store i16 %162, i16* %167, align 2, !tbaa !8
  store i16 %168, i16* %8, align 2, !tbaa !8
  %171 = getelementptr inbounds i16, i16* %167, i64 1
  br label %175

172:                                              ; preds = %166
  %173 = getelementptr inbounds i16, i16* %167, i64 1
  %174 = icmp eq i16* %173, %8
  br i1 %174, label %263, label %166

175:                                              ; preds = %170, %160
  %176 = phi i16* [ %161, %160 ], [ %171, %170 ]
  %177 = icmp eq i16* %176, %8
  br i1 %177, label %263, label %178

178:                                              ; preds = %175, %194
  %179 = phi i16* [ %186, %194 ], [ %176, %175 ]
  %180 = phi i16* [ %189, %194 ], [ %8, %175 ]
  %181 = load i16, i16* %13, align 2, !tbaa !8
  br label %182

182:                                              ; preds = %182, %178
  %183 = phi i16* [ %179, %178 ], [ %186, %182 ]
  %184 = load i16, i16* %183, align 2, !tbaa !8
  %185 = icmp slt i16 %181, %184
  %186 = getelementptr inbounds i16, i16* %183, i64 1
  br i1 %185, label %187, label %182

187:                                              ; preds = %182, %187
  %188 = phi i16* [ %189, %187 ], [ %180, %182 ]
  %189 = getelementptr inbounds i16, i16* %188, i64 -1
  %190 = load i16, i16* %189, align 2, !tbaa !8
  %191 = icmp slt i16 %181, %190
  br i1 %191, label %187, label %192

192:                                              ; preds = %187
  %193 = icmp ult i16* %183, %189
  br i1 %193, label %194, label %260

194:                                              ; preds = %192
  store i16 %190, i16* %183, align 2, !tbaa !8
  store i16 %184, i16* %189, align 2, !tbaa !8
  br label %178

195:                                              ; preds = %156
  %196 = load i16, i16* %158, align 2, !tbaa !8
  %197 = icmp slt i16 %196, %154
  br i1 %197, label %198, label %156

198:                                              ; preds = %195
  store i16 %196, i16* %13, align 2, !tbaa !8
  store i16 %153, i16* %158, align 2, !tbaa !8
  %199 = add i32 %152, 1
  br label %200

200:                                              ; preds = %198, %151
  %201 = phi i32 [ %152, %151 ], [ %199, %198 ]
  %202 = phi i16* [ %8, %151 ], [ %158, %198 ]
  %203 = getelementptr inbounds i16, i16* %13, i64 1
  %204 = icmp ult i16* %203, %202
  br i1 %204, label %205, label %227

205:                                              ; preds = %200, %223
  %206 = phi i16* [ %226, %223 ], [ %127, %200 ]
  %207 = phi i32 [ %224, %223 ], [ %201, %200 ]
  %208 = phi i16* [ %215, %223 ], [ %203, %200 ]
  %209 = phi i16* [ %218, %223 ], [ %202, %200 ]
  %210 = load i16, i16* %206, align 2, !tbaa !8
  br label %211

211:                                              ; preds = %211, %205
  %212 = phi i16* [ %208, %205 ], [ %215, %211 ]
  %213 = load i16, i16* %212, align 2, !tbaa !8
  %214 = icmp slt i16 %213, %210
  %215 = getelementptr inbounds i16, i16* %212, i64 1
  br i1 %214, label %211, label %216

216:                                              ; preds = %211, %216
  %217 = phi i16* [ %218, %216 ], [ %209, %211 ]
  %218 = getelementptr inbounds i16, i16* %217, i64 -1
  %219 = load i16, i16* %218, align 2, !tbaa !8
  %220 = icmp slt i16 %219, %210
  br i1 %220, label %221, label %216

221:                                              ; preds = %216
  %222 = icmp ugt i16* %212, %218
  br i1 %222, label %227, label %223

223:                                              ; preds = %221
  store i16 %219, i16* %212, align 2, !tbaa !8
  store i16 %213, i16* %218, align 2, !tbaa !8
  %224 = add i32 %207, 1
  %225 = icmp eq i16* %206, %212
  %226 = select i1 %225, i16* %218, i16* %206
  br label %205

227:                                              ; preds = %221, %200
  %228 = phi i16* [ %127, %200 ], [ %206, %221 ]
  %229 = phi i32 [ %201, %200 ], [ %207, %221 ]
  %230 = phi i16* [ %203, %200 ], [ %212, %221 ]
  %231 = icmp eq i16* %230, %228
  br i1 %231, label %238, label %232

232:                                              ; preds = %227
  %233 = load i16, i16* %228, align 2, !tbaa !8
  %234 = load i16, i16* %230, align 2, !tbaa !8
  %235 = icmp slt i16 %233, %234
  br i1 %235, label %236, label %238

236:                                              ; preds = %232
  store i16 %233, i16* %230, align 2, !tbaa !8
  store i16 %234, i16* %228, align 2, !tbaa !8
  %237 = add i32 %229, 1
  br label %238

238:                                              ; preds = %227, %236, %232
  %239 = phi i32 [ %237, %236 ], [ %229, %232 ], [ %229, %227 ]
  %240 = icmp eq i32 %239, 0
  br i1 %240, label %241, label %248

241:                                              ; preds = %238
  %242 = tail call zeroext i1 @_ZNSt3__127__insertion_sort_incompleteIRNS_6__lessIssEEPsEEbT0_S5_T_(i16* nonnull %13, i16* %230, %"struct.std::__1::__less.3"* nonnull align 1 dereferenceable(1) %2)
  %243 = getelementptr inbounds i16, i16* %230, i64 1
  %244 = tail call zeroext i1 @_ZNSt3__127__insertion_sort_incompleteIRNS_6__lessIssEEPsEEbT0_S5_T_(i16* nonnull %243, i16* %5, %"struct.std::__1::__less.3"* nonnull align 1 dereferenceable(1) %2)
  br i1 %244, label %245, label %247

245:                                              ; preds = %241
  br i1 %242, label %263, label %246

246:                                              ; preds = %245, %258
  br label %4

247:                                              ; preds = %241
  br i1 %242, label %260, label %248

248:                                              ; preds = %238, %247
  %249 = ptrtoint i16* %13 to i64
  %250 = ptrtoint i16* %230 to i64
  %251 = sub i64 %250, %249
  %252 = sub i64 %9, %250
  %253 = icmp slt i64 %251, %252
  br i1 %253, label %254, label %258

254:                                              ; preds = %248
  tail call void @_ZNSt3__16__sortIRNS_6__lessIssEEPsEEvT0_S5_T_(i16* %13, i16* %230, %"struct.std::__1::__less.3"* nonnull align 1 dereferenceable(1) %2)
  %255 = getelementptr inbounds i16, i16* %230, i64 1
  br label %256

256:                                              ; preds = %260, %260, %254
  %257 = phi i16* [ %255, %254 ], [ %262, %260 ], [ %262, %260 ]
  br label %10

258:                                              ; preds = %248
  %259 = getelementptr inbounds i16, i16* %230, i64 1
  tail call void @_ZNSt3__16__sortIRNS_6__lessIssEEPsEEvT0_S5_T_(i16* nonnull %259, i16* %5, %"struct.std::__1::__less.3"* nonnull align 1 dereferenceable(1) %2)
  br label %246

260:                                              ; preds = %192, %247
  %261 = phi i32 [ 2, %247 ], [ 4, %192 ]
  %262 = phi i16* [ %243, %247 ], [ %183, %192 ]
  switch i32 %261, label %263 [
    i32 0, label %256
    i32 4, label %12
    i32 2, label %256
  ]

263:                                              ; preds = %245, %175, %12, %12, %260, %164, %172, %119, %98, %72, %69, %65, %61, %42, %39, %38, %36, %32, %31, %17, %22, %73
  ret void
}

; Function Attrs: nounwind uwtable
define linkonce_odr hidden i32 @_ZNSt3__17__sort5IRNS_6__lessIssEEPsEEjT0_S5_S5_S5_S5_T_(i16* %0, i16* %1, i16* %2, i16* %3, i16* %4, %"struct.std::__1::__less.3"* nonnull align 1 dereferenceable(1) %5) local_unnamed_addr #1 comdat {
  %7 = load i16, i16* %1, align 2, !tbaa !8
  %8 = load i16, i16* %0, align 2, !tbaa !8
  %9 = icmp slt i16 %7, %8
  %10 = load i16, i16* %2, align 2, !tbaa !8
  %11 = icmp slt i16 %10, %7
  br i1 %9, label %19, label %12

12:                                               ; preds = %6
  br i1 %11, label %13, label %25

13:                                               ; preds = %12
  store i16 %10, i16* %1, align 2, !tbaa !8
  store i16 %7, i16* %2, align 2, !tbaa !8
  %14 = load i16, i16* %1, align 2, !tbaa !8
  %15 = load i16, i16* %0, align 2, !tbaa !8
  %16 = icmp slt i16 %14, %15
  br i1 %16, label %17, label %25

17:                                               ; preds = %13
  store i16 %14, i16* %0, align 2, !tbaa !8
  store i16 %15, i16* %1, align 2, !tbaa !8
  %18 = load i16, i16* %2, align 2, !tbaa !8
  br label %25

19:                                               ; preds = %6
  br i1 %11, label %20, label %21

20:                                               ; preds = %19
  store i16 %10, i16* %0, align 2, !tbaa !8
  store i16 %8, i16* %2, align 2, !tbaa !8
  br label %25

21:                                               ; preds = %19
  store i16 %7, i16* %0, align 2, !tbaa !8
  store i16 %8, i16* %1, align 2, !tbaa !8
  %22 = load i16, i16* %2, align 2, !tbaa !8
  %23 = icmp slt i16 %22, %8
  br i1 %23, label %24, label %25

24:                                               ; preds = %21
  store i16 %22, i16* %1, align 2, !tbaa !8
  store i16 %8, i16* %2, align 2, !tbaa !8
  br label %25

25:                                               ; preds = %24, %21, %20, %17, %13, %12
  %26 = phi i16 [ %8, %20 ], [ %10, %12 ], [ %18, %17 ], [ %7, %13 ], [ %8, %24 ], [ %22, %21 ]
  %27 = phi i32 [ 1, %20 ], [ 0, %12 ], [ 2, %17 ], [ 1, %13 ], [ 2, %24 ], [ 1, %21 ]
  %28 = load i16, i16* %3, align 2, !tbaa !8
  %29 = icmp slt i16 %28, %26
  br i1 %29, label %30, label %42

30:                                               ; preds = %25
  store i16 %28, i16* %2, align 2, !tbaa !8
  store i16 %26, i16* %3, align 2, !tbaa !8
  %31 = add nuw nsw i32 %27, 1
  %32 = load i16, i16* %2, align 2, !tbaa !8
  %33 = load i16, i16* %1, align 2, !tbaa !8
  %34 = icmp slt i16 %32, %33
  br i1 %34, label %35, label %42

35:                                               ; preds = %30
  store i16 %32, i16* %1, align 2, !tbaa !8
  store i16 %33, i16* %2, align 2, !tbaa !8
  %36 = add nuw nsw i32 %27, 2
  %37 = load i16, i16* %1, align 2, !tbaa !8
  %38 = load i16, i16* %0, align 2, !tbaa !8
  %39 = icmp slt i16 %37, %38
  br i1 %39, label %40, label %42

40:                                               ; preds = %35
  store i16 %37, i16* %0, align 2, !tbaa !8
  store i16 %38, i16* %1, align 2, !tbaa !8
  %41 = add nuw nsw i32 %27, 3
  br label %42

42:                                               ; preds = %25, %30, %35, %40
  %43 = phi i32 [ %41, %40 ], [ %36, %35 ], [ %31, %30 ], [ %27, %25 ]
  %44 = load i16, i16* %4, align 2, !tbaa !8
  %45 = load i16, i16* %3, align 2, !tbaa !8
  %46 = icmp slt i16 %44, %45
  br i1 %46, label %47, label %64

47:                                               ; preds = %42
  store i16 %44, i16* %3, align 2, !tbaa !8
  store i16 %45, i16* %4, align 2, !tbaa !8
  %48 = add nuw nsw i32 %43, 1
  %49 = load i16, i16* %3, align 2, !tbaa !8
  %50 = load i16, i16* %2, align 2, !tbaa !8
  %51 = icmp slt i16 %49, %50
  br i1 %51, label %52, label %64

52:                                               ; preds = %47
  store i16 %49, i16* %2, align 2, !tbaa !8
  store i16 %50, i16* %3, align 2, !tbaa !8
  %53 = add nuw nsw i32 %43, 2
  %54 = load i16, i16* %2, align 2, !tbaa !8
  %55 = load i16, i16* %1, align 2, !tbaa !8
  %56 = icmp slt i16 %54, %55
  br i1 %56, label %57, label %64

57:                                               ; preds = %52
  store i16 %54, i16* %1, align 2, !tbaa !8
  store i16 %55, i16* %2, align 2, !tbaa !8
  %58 = add nuw nsw i32 %43, 3
  %59 = load i16, i16* %1, align 2, !tbaa !8
  %60 = load i16, i16* %0, align 2, !tbaa !8
  %61 = icmp slt i16 %59, %60
  br i1 %61, label %62, label %64

62:                                               ; preds = %57
  store i16 %59, i16* %0, align 2, !tbaa !8
  store i16 %60, i16* %1, align 2, !tbaa !8
  %63 = add nuw nsw i32 %43, 4
  br label %64

64:                                               ; preds = %47, %57, %62, %52, %42
  %65 = phi i32 [ %63, %62 ], [ %58, %57 ], [ %53, %52 ], [ %48, %47 ], [ %43, %42 ]
  ret i32 %65
}

; Function Attrs: uwtable
define weak_odr zeroext i1 @_ZNSt3__127__insertion_sort_incompleteIRNS_6__lessIssEEPsEEbT0_S5_T_(i16* %0, i16* %1, %"struct.std::__1::__less.3"* nonnull align 1 dereferenceable(1) %2) local_unnamed_addr #0 comdat {
  %4 = ptrtoint i16* %1 to i64
  %5 = ptrtoint i16* %0 to i64
  %6 = sub i64 %4, %5
  %7 = ashr exact i64 %6, 1
  switch i64 %7, label %70 [
    i64 0, label %120
    i64 1, label %120
    i64 2, label %8
    i64 3, label %14
    i64 4, label %34
    i64 5, label %64
  ]

8:                                                ; preds = %3
  %9 = getelementptr inbounds i16, i16* %1, i64 -1
  %10 = load i16, i16* %9, align 2, !tbaa !8
  %11 = load i16, i16* %0, align 2, !tbaa !8
  %12 = icmp slt i16 %10, %11
  br i1 %12, label %13, label %120

13:                                               ; preds = %8
  store i16 %10, i16* %0, align 2, !tbaa !8
  store i16 %11, i16* %9, align 2, !tbaa !8
  br label %120

14:                                               ; preds = %3
  %15 = getelementptr inbounds i16, i16* %0, i64 1
  %16 = getelementptr inbounds i16, i16* %1, i64 -1
  %17 = load i16, i16* %15, align 2, !tbaa !8
  %18 = load i16, i16* %0, align 2, !tbaa !8
  %19 = icmp slt i16 %17, %18
  %20 = load i16, i16* %16, align 2, !tbaa !8
  %21 = icmp slt i16 %20, %17
  br i1 %19, label %28, label %22

22:                                               ; preds = %14
  br i1 %21, label %23, label %120

23:                                               ; preds = %22
  store i16 %20, i16* %15, align 2, !tbaa !8
  store i16 %17, i16* %16, align 2, !tbaa !8
  %24 = load i16, i16* %15, align 2, !tbaa !8
  %25 = load i16, i16* %0, align 2, !tbaa !8
  %26 = icmp slt i16 %24, %25
  br i1 %26, label %27, label %120

27:                                               ; preds = %23
  store i16 %24, i16* %0, align 2, !tbaa !8
  store i16 %25, i16* %15, align 2, !tbaa !8
  br label %120

28:                                               ; preds = %14
  br i1 %21, label %29, label %30

29:                                               ; preds = %28
  store i16 %20, i16* %0, align 2, !tbaa !8
  store i16 %18, i16* %16, align 2, !tbaa !8
  br label %120

30:                                               ; preds = %28
  store i16 %17, i16* %0, align 2, !tbaa !8
  store i16 %18, i16* %15, align 2, !tbaa !8
  %31 = load i16, i16* %16, align 2, !tbaa !8
  %32 = icmp slt i16 %31, %18
  br i1 %32, label %33, label %120

33:                                               ; preds = %30
  store i16 %31, i16* %15, align 2, !tbaa !8
  store i16 %18, i16* %16, align 2, !tbaa !8
  br label %120

34:                                               ; preds = %3
  %35 = getelementptr inbounds i16, i16* %0, i64 1
  %36 = getelementptr inbounds i16, i16* %0, i64 2
  %37 = getelementptr inbounds i16, i16* %1, i64 -1
  %38 = load i16, i16* %35, align 2, !tbaa !8
  %39 = load i16, i16* %0, align 2, !tbaa !8
  %40 = icmp slt i16 %38, %39
  %41 = load i16, i16* %36, align 2, !tbaa !8
  %42 = icmp slt i16 %41, %38
  br i1 %40, label %47, label %43

43:                                               ; preds = %34
  br i1 %42, label %44, label %52

44:                                               ; preds = %43
  store i16 %41, i16* %35, align 2, !tbaa !8
  store i16 %38, i16* %36, align 2, !tbaa !8
  %45 = icmp slt i16 %41, %39
  br i1 %45, label %46, label %52

46:                                               ; preds = %44
  store i16 %41, i16* %0, align 2, !tbaa !8
  store i16 %39, i16* %35, align 2, !tbaa !8
  br label %52

47:                                               ; preds = %34
  br i1 %42, label %48, label %49

48:                                               ; preds = %47
  store i16 %41, i16* %0, align 2, !tbaa !8
  store i16 %39, i16* %36, align 2, !tbaa !8
  br label %52

49:                                               ; preds = %47
  store i16 %38, i16* %0, align 2, !tbaa !8
  store i16 %39, i16* %35, align 2, !tbaa !8
  %50 = icmp slt i16 %41, %39
  br i1 %50, label %51, label %52

51:                                               ; preds = %49
  store i16 %41, i16* %35, align 2, !tbaa !8
  store i16 %39, i16* %36, align 2, !tbaa !8
  br label %52

52:                                               ; preds = %51, %49, %48, %46, %44, %43
  %53 = phi i16 [ %39, %48 ], [ %41, %43 ], [ %38, %46 ], [ %38, %44 ], [ %39, %51 ], [ %41, %49 ]
  %54 = load i16, i16* %37, align 2, !tbaa !8
  %55 = icmp slt i16 %54, %53
  br i1 %55, label %56, label %120

56:                                               ; preds = %52
  store i16 %54, i16* %36, align 2, !tbaa !8
  store i16 %53, i16* %37, align 2, !tbaa !8
  %57 = load i16, i16* %36, align 2, !tbaa !8
  %58 = load i16, i16* %35, align 2, !tbaa !8
  %59 = icmp slt i16 %57, %58
  br i1 %59, label %60, label %120

60:                                               ; preds = %56
  store i16 %57, i16* %35, align 2, !tbaa !8
  store i16 %58, i16* %36, align 2, !tbaa !8
  %61 = load i16, i16* %0, align 2, !tbaa !8
  %62 = icmp slt i16 %57, %61
  br i1 %62, label %63, label %120

63:                                               ; preds = %60
  store i16 %57, i16* %0, align 2, !tbaa !8
  store i16 %61, i16* %35, align 2, !tbaa !8
  br label %120

64:                                               ; preds = %3
  %65 = getelementptr inbounds i16, i16* %0, i64 1
  %66 = getelementptr inbounds i16, i16* %0, i64 2
  %67 = getelementptr inbounds i16, i16* %0, i64 3
  %68 = getelementptr inbounds i16, i16* %1, i64 -1
  %69 = tail call i32 @_ZNSt3__17__sort5IRNS_6__lessIssEEPsEEjT0_S5_S5_S5_S5_T_(i16* %0, i16* nonnull %65, i16* nonnull %66, i16* nonnull %67, i16* nonnull %68, %"struct.std::__1::__less.3"* nonnull align 1 dereferenceable(1) %2)
  br label %120

70:                                               ; preds = %3
  %71 = getelementptr inbounds i16, i16* %0, i64 2
  %72 = getelementptr inbounds i16, i16* %0, i64 1
  %73 = load i16, i16* %72, align 2, !tbaa !8
  %74 = load i16, i16* %0, align 2, !tbaa !8
  %75 = icmp slt i16 %73, %74
  %76 = load i16, i16* %71, align 2, !tbaa !8
  %77 = icmp slt i16 %76, %73
  br i1 %75, label %82, label %78

78:                                               ; preds = %70
  br i1 %77, label %79, label %87

79:                                               ; preds = %78
  store i16 %76, i16* %72, align 2, !tbaa !8
  store i16 %73, i16* %71, align 2, !tbaa !8
  %80 = icmp slt i16 %76, %74
  br i1 %80, label %81, label %87

81:                                               ; preds = %79
  store i16 %76, i16* %0, align 2, !tbaa !8
  store i16 %74, i16* %72, align 2, !tbaa !8
  br label %87

82:                                               ; preds = %70
  br i1 %77, label %83, label %84

83:                                               ; preds = %82
  store i16 %76, i16* %0, align 2, !tbaa !8
  store i16 %74, i16* %71, align 2, !tbaa !8
  br label %87

84:                                               ; preds = %82
  store i16 %73, i16* %0, align 2, !tbaa !8
  store i16 %74, i16* %72, align 2, !tbaa !8
  %85 = icmp slt i16 %76, %74
  br i1 %85, label %86, label %87

86:                                               ; preds = %84
  store i16 %76, i16* %72, align 2, !tbaa !8
  store i16 %74, i16* %71, align 2, !tbaa !8
  br label %87

87:                                               ; preds = %78, %79, %81, %83, %84, %86
  %88 = phi i16 [ %76, %78 ], [ %73, %79 ], [ %73, %81 ], [ %74, %83 ], [ %76, %84 ], [ %74, %86 ]
  %89 = getelementptr inbounds i16, i16* %0, i64 3
  %90 = icmp eq i16* %89, %1
  br i1 %90, label %120, label %91

91:                                               ; preds = %87, %115
  %92 = phi i16 [ %116, %115 ], [ %88, %87 ]
  %93 = phi i16* [ %113, %115 ], [ %89, %87 ]
  %94 = phi i32 [ %112, %115 ], [ 0, %87 ]
  %95 = phi i16* [ %93, %115 ], [ %71, %87 ]
  %96 = load i16, i16* %93, align 2, !tbaa !8
  %97 = icmp slt i16 %96, %92
  br i1 %97, label %98, label %111

98:                                               ; preds = %91, %103
  %99 = phi i16 [ %105, %103 ], [ %92, %91 ]
  %100 = phi i16* [ %101, %103 ], [ %93, %91 ]
  %101 = phi i16* [ %104, %103 ], [ %95, %91 ]
  store i16 %99, i16* %100, align 2, !tbaa !8
  %102 = icmp eq i16* %101, %0
  br i1 %102, label %107, label %103

103:                                              ; preds = %98
  %104 = getelementptr inbounds i16, i16* %101, i64 -1
  %105 = load i16, i16* %104, align 2, !tbaa !8
  %106 = icmp slt i16 %96, %105
  br i1 %106, label %98, label %107

107:                                              ; preds = %98, %103
  %108 = phi i16* [ %0, %98 ], [ %101, %103 ]
  store i16 %96, i16* %108, align 2, !tbaa !8
  %109 = add i32 %94, 1
  %110 = icmp eq i32 %109, 8
  br i1 %110, label %117, label %111

111:                                              ; preds = %107, %91
  %112 = phi i32 [ %109, %107 ], [ %94, %91 ]
  %113 = getelementptr inbounds i16, i16* %93, i64 1
  %114 = icmp eq i16* %113, %1
  br i1 %114, label %120, label %115

115:                                              ; preds = %111
  %116 = load i16, i16* %93, align 2, !tbaa !8
  br label %91

117:                                              ; preds = %107
  %118 = getelementptr inbounds i16, i16* %93, i64 1
  %119 = icmp eq i16* %118, %1
  br label %120

120:                                              ; preds = %111, %117, %87, %63, %60, %56, %52, %33, %30, %29, %27, %23, %22, %8, %13, %3, %3, %64
  %121 = phi i1 [ true, %64 ], [ true, %3 ], [ true, %3 ], [ true, %13 ], [ true, %8 ], [ true, %22 ], [ true, %23 ], [ true, %27 ], [ true, %29 ], [ true, %30 ], [ true, %33 ], [ true, %52 ], [ true, %56 ], [ true, %60 ], [ true, %63 ], [ true, %87 ], [ %119, %117 ], [ true, %111 ]
  ret i1 %121
}

; Function Attrs: uwtable
define weak_odr void @_ZNSt3__16__sortIRNS_6__lessIttEEPtEEvT0_S5_T_(i16* %0, i16* %1, %"struct.std::__1::__less.4"* nonnull align 1 dereferenceable(1) %2) local_unnamed_addr #0 comdat {
  br label %4

4:                                                ; preds = %246, %3
  %5 = phi i16* [ %1, %3 ], [ %230, %246 ]
  %6 = phi i16* [ %0, %3 ], [ %13, %246 ]
  %7 = ptrtoint i16* %5 to i64
  %8 = getelementptr inbounds i16, i16* %5, i64 -1
  %9 = ptrtoint i16* %5 to i64
  br label %10

10:                                               ; preds = %256, %4
  %11 = phi i16* [ %6, %4 ], [ %257, %256 ]
  br label %12

12:                                               ; preds = %260, %10
  %13 = phi i16* [ %11, %10 ], [ %262, %260 ]
  %14 = ptrtoint i16* %13 to i64
  %15 = sub i64 %7, %14
  %16 = ashr exact i64 %15, 1
  switch i64 %16, label %79 [
    i64 0, label %263
    i64 1, label %263
    i64 2, label %17
    i64 3, label %23
    i64 4, label %43
    i64 5, label %73
  ]

17:                                               ; preds = %12
  %18 = getelementptr inbounds i16, i16* %5, i64 -1
  %19 = load i16, i16* %18, align 2, !tbaa !8
  %20 = load i16, i16* %13, align 2, !tbaa !8
  %21 = icmp ult i16 %19, %20
  br i1 %21, label %22, label %263

22:                                               ; preds = %17
  store i16 %19, i16* %13, align 2, !tbaa !8
  store i16 %20, i16* %18, align 2, !tbaa !8
  br label %263

23:                                               ; preds = %12
  %24 = getelementptr inbounds i16, i16* %13, i64 1
  %25 = getelementptr inbounds i16, i16* %5, i64 -1
  %26 = load i16, i16* %24, align 2, !tbaa !8
  %27 = load i16, i16* %13, align 2, !tbaa !8
  %28 = icmp ult i16 %26, %27
  %29 = load i16, i16* %25, align 2, !tbaa !8
  %30 = icmp ult i16 %29, %26
  br i1 %28, label %37, label %31

31:                                               ; preds = %23
  br i1 %30, label %32, label %263

32:                                               ; preds = %31
  store i16 %29, i16* %24, align 2, !tbaa !8
  store i16 %26, i16* %25, align 2, !tbaa !8
  %33 = load i16, i16* %24, align 2, !tbaa !8
  %34 = load i16, i16* %13, align 2, !tbaa !8
  %35 = icmp ult i16 %33, %34
  br i1 %35, label %36, label %263

36:                                               ; preds = %32
  store i16 %33, i16* %13, align 2, !tbaa !8
  store i16 %34, i16* %24, align 2, !tbaa !8
  br label %263

37:                                               ; preds = %23
  br i1 %30, label %38, label %39

38:                                               ; preds = %37
  store i16 %29, i16* %13, align 2, !tbaa !8
  store i16 %27, i16* %25, align 2, !tbaa !8
  br label %263

39:                                               ; preds = %37
  store i16 %26, i16* %13, align 2, !tbaa !8
  store i16 %27, i16* %24, align 2, !tbaa !8
  %40 = load i16, i16* %25, align 2, !tbaa !8
  %41 = icmp ult i16 %40, %27
  br i1 %41, label %42, label %263

42:                                               ; preds = %39
  store i16 %40, i16* %24, align 2, !tbaa !8
  store i16 %27, i16* %25, align 2, !tbaa !8
  br label %263

43:                                               ; preds = %12
  %44 = getelementptr inbounds i16, i16* %13, i64 1
  %45 = getelementptr inbounds i16, i16* %13, i64 2
  %46 = getelementptr inbounds i16, i16* %5, i64 -1
  %47 = load i16, i16* %44, align 2, !tbaa !8
  %48 = load i16, i16* %13, align 2, !tbaa !8
  %49 = icmp ult i16 %47, %48
  %50 = load i16, i16* %45, align 2, !tbaa !8
  %51 = icmp ult i16 %50, %47
  br i1 %49, label %56, label %52

52:                                               ; preds = %43
  br i1 %51, label %53, label %61

53:                                               ; preds = %52
  store i16 %50, i16* %44, align 2, !tbaa !8
  store i16 %47, i16* %45, align 2, !tbaa !8
  %54 = icmp ult i16 %50, %48
  br i1 %54, label %55, label %61

55:                                               ; preds = %53
  store i16 %50, i16* %13, align 2, !tbaa !8
  store i16 %48, i16* %44, align 2, !tbaa !8
  br label %61

56:                                               ; preds = %43
  br i1 %51, label %57, label %58

57:                                               ; preds = %56
  store i16 %50, i16* %13, align 2, !tbaa !8
  store i16 %48, i16* %45, align 2, !tbaa !8
  br label %61

58:                                               ; preds = %56
  store i16 %47, i16* %13, align 2, !tbaa !8
  store i16 %48, i16* %44, align 2, !tbaa !8
  %59 = icmp ult i16 %50, %48
  br i1 %59, label %60, label %61

60:                                               ; preds = %58
  store i16 %50, i16* %44, align 2, !tbaa !8
  store i16 %48, i16* %45, align 2, !tbaa !8
  br label %61

61:                                               ; preds = %60, %58, %57, %55, %53, %52
  %62 = phi i16 [ %48, %57 ], [ %50, %52 ], [ %47, %55 ], [ %47, %53 ], [ %48, %60 ], [ %50, %58 ]
  %63 = load i16, i16* %46, align 2, !tbaa !8
  %64 = icmp ult i16 %63, %62
  br i1 %64, label %65, label %263

65:                                               ; preds = %61
  store i16 %63, i16* %45, align 2, !tbaa !8
  store i16 %62, i16* %46, align 2, !tbaa !8
  %66 = load i16, i16* %45, align 2, !tbaa !8
  %67 = load i16, i16* %44, align 2, !tbaa !8
  %68 = icmp ult i16 %66, %67
  br i1 %68, label %69, label %263

69:                                               ; preds = %65
  store i16 %66, i16* %44, align 2, !tbaa !8
  store i16 %67, i16* %45, align 2, !tbaa !8
  %70 = load i16, i16* %13, align 2, !tbaa !8
  %71 = icmp ult i16 %66, %70
  br i1 %71, label %72, label %263

72:                                               ; preds = %69
  store i16 %66, i16* %13, align 2, !tbaa !8
  store i16 %70, i16* %44, align 2, !tbaa !8
  br label %263

73:                                               ; preds = %12
  %74 = getelementptr inbounds i16, i16* %13, i64 1
  %75 = getelementptr inbounds i16, i16* %13, i64 2
  %76 = getelementptr inbounds i16, i16* %13, i64 3
  %77 = getelementptr inbounds i16, i16* %5, i64 -1
  %78 = tail call i32 @_ZNSt3__17__sort5IRNS_6__lessIttEEPtEEjT0_S5_S5_S5_S5_T_(i16* %13, i16* nonnull %74, i16* nonnull %75, i16* nonnull %76, i16* nonnull %77, %"struct.std::__1::__less.4"* nonnull align 1 dereferenceable(1) %2)
  br label %263

79:                                               ; preds = %12
  %80 = icmp slt i64 %15, 62
  br i1 %80, label %81, label %124

81:                                               ; preds = %79
  %82 = getelementptr inbounds i16, i16* %13, i64 2
  %83 = getelementptr inbounds i16, i16* %13, i64 1
  %84 = load i16, i16* %83, align 2, !tbaa !8
  %85 = load i16, i16* %13, align 2, !tbaa !8
  %86 = icmp ult i16 %84, %85
  %87 = load i16, i16* %82, align 2, !tbaa !8
  %88 = icmp ult i16 %87, %84
  br i1 %86, label %93, label %89

89:                                               ; preds = %81
  br i1 %88, label %90, label %98

90:                                               ; preds = %89
  store i16 %87, i16* %83, align 2, !tbaa !8
  store i16 %84, i16* %82, align 2, !tbaa !8
  %91 = icmp ult i16 %87, %85
  br i1 %91, label %92, label %98

92:                                               ; preds = %90
  store i16 %87, i16* %13, align 2, !tbaa !8
  store i16 %85, i16* %83, align 2, !tbaa !8
  br label %98

93:                                               ; preds = %81
  br i1 %88, label %94, label %95

94:                                               ; preds = %93
  store i16 %87, i16* %13, align 2, !tbaa !8
  store i16 %85, i16* %82, align 2, !tbaa !8
  br label %98

95:                                               ; preds = %93
  store i16 %84, i16* %13, align 2, !tbaa !8
  store i16 %85, i16* %83, align 2, !tbaa !8
  %96 = icmp ult i16 %87, %85
  br i1 %96, label %97, label %98

97:                                               ; preds = %95
  store i16 %87, i16* %83, align 2, !tbaa !8
  store i16 %85, i16* %82, align 2, !tbaa !8
  br label %98

98:                                               ; preds = %97, %95, %94, %92, %90, %89
  %99 = phi i16 [ %87, %89 ], [ %84, %90 ], [ %84, %92 ], [ %85, %94 ], [ %87, %95 ], [ %85, %97 ]
  %100 = getelementptr inbounds i16, i16* %13, i64 3
  %101 = icmp eq i16* %100, %5
  br i1 %101, label %263, label %102

102:                                              ; preds = %98, %122
  %103 = phi i16 [ %123, %122 ], [ %99, %98 ]
  %104 = phi i16* [ %120, %122 ], [ %100, %98 ]
  %105 = phi i16* [ %104, %122 ], [ %82, %98 ]
  %106 = load i16, i16* %104, align 2, !tbaa !8
  %107 = icmp ult i16 %106, %103
  br i1 %107, label %108, label %119

108:                                              ; preds = %102, %113
  %109 = phi i16 [ %115, %113 ], [ %103, %102 ]
  %110 = phi i16* [ %111, %113 ], [ %104, %102 ]
  %111 = phi i16* [ %114, %113 ], [ %105, %102 ]
  store i16 %109, i16* %110, align 2, !tbaa !8
  %112 = icmp eq i16* %111, %13
  br i1 %112, label %117, label %113

113:                                              ; preds = %108
  %114 = getelementptr inbounds i16, i16* %111, i64 -1
  %115 = load i16, i16* %114, align 2, !tbaa !8
  %116 = icmp ult i16 %106, %115
  br i1 %116, label %108, label %117

117:                                              ; preds = %113, %108
  %118 = phi i16* [ %13, %108 ], [ %111, %113 ]
  store i16 %106, i16* %118, align 2, !tbaa !8
  br label %119

119:                                              ; preds = %117, %102
  %120 = getelementptr inbounds i16, i16* %104, i64 1
  %121 = icmp eq i16* %120, %5
  br i1 %121, label %263, label %122

122:                                              ; preds = %119
  %123 = load i16, i16* %104, align 2, !tbaa !8
  br label %102

124:                                              ; preds = %79
  %125 = icmp sgt i64 %15, 1998
  %126 = sdiv i64 %16, 2
  %127 = getelementptr inbounds i16, i16* %13, i64 %126
  br i1 %125, label %128, label %133

128:                                              ; preds = %124
  %129 = sdiv i64 %16, 4
  %130 = getelementptr inbounds i16, i16* %13, i64 %129
  %131 = getelementptr inbounds i16, i16* %127, i64 %129
  %132 = tail call i32 @_ZNSt3__17__sort5IRNS_6__lessIttEEPtEEjT0_S5_S5_S5_S5_T_(i16* %13, i16* %130, i16* %127, i16* %131, i16* nonnull %8, %"struct.std::__1::__less.4"* nonnull align 1 dereferenceable(1) %2)
  br label %151

133:                                              ; preds = %124
  %134 = load i16, i16* %127, align 2, !tbaa !8
  %135 = load i16, i16* %13, align 2, !tbaa !8
  %136 = icmp ult i16 %134, %135
  %137 = load i16, i16* %8, align 2, !tbaa !8
  %138 = icmp ult i16 %137, %134
  br i1 %136, label %145, label %139

139:                                              ; preds = %133
  br i1 %138, label %140, label %151

140:                                              ; preds = %139
  store i16 %137, i16* %127, align 2, !tbaa !8
  store i16 %134, i16* %8, align 2, !tbaa !8
  %141 = load i16, i16* %127, align 2, !tbaa !8
  %142 = load i16, i16* %13, align 2, !tbaa !8
  %143 = icmp ult i16 %141, %142
  br i1 %143, label %144, label %151

144:                                              ; preds = %140
  store i16 %141, i16* %13, align 2, !tbaa !8
  store i16 %142, i16* %127, align 2, !tbaa !8
  br label %151

145:                                              ; preds = %133
  br i1 %138, label %146, label %147

146:                                              ; preds = %145
  store i16 %137, i16* %13, align 2, !tbaa !8
  store i16 %135, i16* %8, align 2, !tbaa !8
  br label %151

147:                                              ; preds = %145
  store i16 %134, i16* %13, align 2, !tbaa !8
  store i16 %135, i16* %127, align 2, !tbaa !8
  %148 = load i16, i16* %8, align 2, !tbaa !8
  %149 = icmp ult i16 %148, %135
  br i1 %149, label %150, label %151

150:                                              ; preds = %147
  store i16 %148, i16* %127, align 2, !tbaa !8
  store i16 %135, i16* %8, align 2, !tbaa !8
  br label %151

151:                                              ; preds = %150, %147, %146, %144, %140, %139, %128
  %152 = phi i32 [ %132, %128 ], [ 1, %146 ], [ 0, %139 ], [ 2, %144 ], [ 1, %140 ], [ 2, %150 ], [ 1, %147 ]
  %153 = load i16, i16* %13, align 2, !tbaa !8
  %154 = load i16, i16* %127, align 2, !tbaa !8
  %155 = icmp ult i16 %153, %154
  br i1 %155, label %200, label %156

156:                                              ; preds = %151, %195
  %157 = phi i16* [ %158, %195 ], [ %8, %151 ]
  %158 = getelementptr inbounds i16, i16* %157, i64 -1
  %159 = icmp eq i16* %13, %158
  br i1 %159, label %160, label %195

160:                                              ; preds = %156
  %161 = getelementptr inbounds i16, i16* %13, i64 1
  %162 = load i16, i16* %8, align 2, !tbaa !8
  %163 = icmp ult i16 %153, %162
  br i1 %163, label %175, label %164

164:                                              ; preds = %160
  %165 = icmp eq i16* %161, %8
  br i1 %165, label %263, label %166

166:                                              ; preds = %164, %172
  %167 = phi i16* [ %173, %172 ], [ %161, %164 ]
  %168 = load i16, i16* %167, align 2, !tbaa !8
  %169 = icmp ult i16 %153, %168
  br i1 %169, label %170, label %172

170:                                              ; preds = %166
  store i16 %162, i16* %167, align 2, !tbaa !8
  store i16 %168, i16* %8, align 2, !tbaa !8
  %171 = getelementptr inbounds i16, i16* %167, i64 1
  br label %175

172:                                              ; preds = %166
  %173 = getelementptr inbounds i16, i16* %167, i64 1
  %174 = icmp eq i16* %173, %8
  br i1 %174, label %263, label %166

175:                                              ; preds = %170, %160
  %176 = phi i16* [ %161, %160 ], [ %171, %170 ]
  %177 = icmp eq i16* %176, %8
  br i1 %177, label %263, label %178

178:                                              ; preds = %175, %194
  %179 = phi i16* [ %186, %194 ], [ %176, %175 ]
  %180 = phi i16* [ %189, %194 ], [ %8, %175 ]
  %181 = load i16, i16* %13, align 2, !tbaa !8
  br label %182

182:                                              ; preds = %182, %178
  %183 = phi i16* [ %179, %178 ], [ %186, %182 ]
  %184 = load i16, i16* %183, align 2, !tbaa !8
  %185 = icmp ult i16 %181, %184
  %186 = getelementptr inbounds i16, i16* %183, i64 1
  br i1 %185, label %187, label %182

187:                                              ; preds = %182, %187
  %188 = phi i16* [ %189, %187 ], [ %180, %182 ]
  %189 = getelementptr inbounds i16, i16* %188, i64 -1
  %190 = load i16, i16* %189, align 2, !tbaa !8
  %191 = icmp ult i16 %181, %190
  br i1 %191, label %187, label %192

192:                                              ; preds = %187
  %193 = icmp ult i16* %183, %189
  br i1 %193, label %194, label %260

194:                                              ; preds = %192
  store i16 %190, i16* %183, align 2, !tbaa !8
  store i16 %184, i16* %189, align 2, !tbaa !8
  br label %178

195:                                              ; preds = %156
  %196 = load i16, i16* %158, align 2, !tbaa !8
  %197 = icmp ult i16 %196, %154
  br i1 %197, label %198, label %156

198:                                              ; preds = %195
  store i16 %196, i16* %13, align 2, !tbaa !8
  store i16 %153, i16* %158, align 2, !tbaa !8
  %199 = add i32 %152, 1
  br label %200

200:                                              ; preds = %198, %151
  %201 = phi i32 [ %152, %151 ], [ %199, %198 ]
  %202 = phi i16* [ %8, %151 ], [ %158, %198 ]
  %203 = getelementptr inbounds i16, i16* %13, i64 1
  %204 = icmp ult i16* %203, %202
  br i1 %204, label %205, label %227

205:                                              ; preds = %200, %223
  %206 = phi i16* [ %226, %223 ], [ %127, %200 ]
  %207 = phi i32 [ %224, %223 ], [ %201, %200 ]
  %208 = phi i16* [ %215, %223 ], [ %203, %200 ]
  %209 = phi i16* [ %218, %223 ], [ %202, %200 ]
  %210 = load i16, i16* %206, align 2, !tbaa !8
  br label %211

211:                                              ; preds = %211, %205
  %212 = phi i16* [ %208, %205 ], [ %215, %211 ]
  %213 = load i16, i16* %212, align 2, !tbaa !8
  %214 = icmp ult i16 %213, %210
  %215 = getelementptr inbounds i16, i16* %212, i64 1
  br i1 %214, label %211, label %216

216:                                              ; preds = %211, %216
  %217 = phi i16* [ %218, %216 ], [ %209, %211 ]
  %218 = getelementptr inbounds i16, i16* %217, i64 -1
  %219 = load i16, i16* %218, align 2, !tbaa !8
  %220 = icmp ult i16 %219, %210
  br i1 %220, label %221, label %216

221:                                              ; preds = %216
  %222 = icmp ugt i16* %212, %218
  br i1 %222, label %227, label %223

223:                                              ; preds = %221
  store i16 %219, i16* %212, align 2, !tbaa !8
  store i16 %213, i16* %218, align 2, !tbaa !8
  %224 = add i32 %207, 1
  %225 = icmp eq i16* %206, %212
  %226 = select i1 %225, i16* %218, i16* %206
  br label %205

227:                                              ; preds = %221, %200
  %228 = phi i16* [ %127, %200 ], [ %206, %221 ]
  %229 = phi i32 [ %201, %200 ], [ %207, %221 ]
  %230 = phi i16* [ %203, %200 ], [ %212, %221 ]
  %231 = icmp eq i16* %230, %228
  br i1 %231, label %238, label %232

232:                                              ; preds = %227
  %233 = load i16, i16* %228, align 2, !tbaa !8
  %234 = load i16, i16* %230, align 2, !tbaa !8
  %235 = icmp ult i16 %233, %234
  br i1 %235, label %236, label %238

236:                                              ; preds = %232
  store i16 %233, i16* %230, align 2, !tbaa !8
  store i16 %234, i16* %228, align 2, !tbaa !8
  %237 = add i32 %229, 1
  br label %238

238:                                              ; preds = %227, %236, %232
  %239 = phi i32 [ %237, %236 ], [ %229, %232 ], [ %229, %227 ]
  %240 = icmp eq i32 %239, 0
  br i1 %240, label %241, label %248

241:                                              ; preds = %238
  %242 = tail call zeroext i1 @_ZNSt3__127__insertion_sort_incompleteIRNS_6__lessIttEEPtEEbT0_S5_T_(i16* nonnull %13, i16* %230, %"struct.std::__1::__less.4"* nonnull align 1 dereferenceable(1) %2)
  %243 = getelementptr inbounds i16, i16* %230, i64 1
  %244 = tail call zeroext i1 @_ZNSt3__127__insertion_sort_incompleteIRNS_6__lessIttEEPtEEbT0_S5_T_(i16* nonnull %243, i16* %5, %"struct.std::__1::__less.4"* nonnull align 1 dereferenceable(1) %2)
  br i1 %244, label %245, label %247

245:                                              ; preds = %241
  br i1 %242, label %263, label %246

246:                                              ; preds = %245, %258
  br label %4

247:                                              ; preds = %241
  br i1 %242, label %260, label %248

248:                                              ; preds = %238, %247
  %249 = ptrtoint i16* %13 to i64
  %250 = ptrtoint i16* %230 to i64
  %251 = sub i64 %250, %249
  %252 = sub i64 %9, %250
  %253 = icmp slt i64 %251, %252
  br i1 %253, label %254, label %258

254:                                              ; preds = %248
  tail call void @_ZNSt3__16__sortIRNS_6__lessIttEEPtEEvT0_S5_T_(i16* %13, i16* %230, %"struct.std::__1::__less.4"* nonnull align 1 dereferenceable(1) %2)
  %255 = getelementptr inbounds i16, i16* %230, i64 1
  br label %256

256:                                              ; preds = %260, %260, %254
  %257 = phi i16* [ %255, %254 ], [ %262, %260 ], [ %262, %260 ]
  br label %10

258:                                              ; preds = %248
  %259 = getelementptr inbounds i16, i16* %230, i64 1
  tail call void @_ZNSt3__16__sortIRNS_6__lessIttEEPtEEvT0_S5_T_(i16* nonnull %259, i16* %5, %"struct.std::__1::__less.4"* nonnull align 1 dereferenceable(1) %2)
  br label %246

260:                                              ; preds = %192, %247
  %261 = phi i32 [ 2, %247 ], [ 4, %192 ]
  %262 = phi i16* [ %243, %247 ], [ %183, %192 ]
  switch i32 %261, label %263 [
    i32 0, label %256
    i32 4, label %12
    i32 2, label %256
  ]

263:                                              ; preds = %245, %175, %12, %12, %260, %164, %172, %119, %98, %72, %69, %65, %61, %42, %39, %38, %36, %32, %31, %17, %22, %73
  ret void
}

; Function Attrs: nounwind uwtable
define linkonce_odr hidden i32 @_ZNSt3__17__sort5IRNS_6__lessIttEEPtEEjT0_S5_S5_S5_S5_T_(i16* %0, i16* %1, i16* %2, i16* %3, i16* %4, %"struct.std::__1::__less.4"* nonnull align 1 dereferenceable(1) %5) local_unnamed_addr #1 comdat {
  %7 = load i16, i16* %1, align 2, !tbaa !8
  %8 = load i16, i16* %0, align 2, !tbaa !8
  %9 = icmp ult i16 %7, %8
  %10 = load i16, i16* %2, align 2, !tbaa !8
  %11 = icmp ult i16 %10, %7
  br i1 %9, label %19, label %12

12:                                               ; preds = %6
  br i1 %11, label %13, label %25

13:                                               ; preds = %12
  store i16 %10, i16* %1, align 2, !tbaa !8
  store i16 %7, i16* %2, align 2, !tbaa !8
  %14 = load i16, i16* %1, align 2, !tbaa !8
  %15 = load i16, i16* %0, align 2, !tbaa !8
  %16 = icmp ult i16 %14, %15
  br i1 %16, label %17, label %25

17:                                               ; preds = %13
  store i16 %14, i16* %0, align 2, !tbaa !8
  store i16 %15, i16* %1, align 2, !tbaa !8
  %18 = load i16, i16* %2, align 2, !tbaa !8
  br label %25

19:                                               ; preds = %6
  br i1 %11, label %20, label %21

20:                                               ; preds = %19
  store i16 %10, i16* %0, align 2, !tbaa !8
  store i16 %8, i16* %2, align 2, !tbaa !8
  br label %25

21:                                               ; preds = %19
  store i16 %7, i16* %0, align 2, !tbaa !8
  store i16 %8, i16* %1, align 2, !tbaa !8
  %22 = load i16, i16* %2, align 2, !tbaa !8
  %23 = icmp ult i16 %22, %8
  br i1 %23, label %24, label %25

24:                                               ; preds = %21
  store i16 %22, i16* %1, align 2, !tbaa !8
  store i16 %8, i16* %2, align 2, !tbaa !8
  br label %25

25:                                               ; preds = %24, %21, %20, %17, %13, %12
  %26 = phi i16 [ %8, %20 ], [ %10, %12 ], [ %18, %17 ], [ %7, %13 ], [ %8, %24 ], [ %22, %21 ]
  %27 = phi i32 [ 1, %20 ], [ 0, %12 ], [ 2, %17 ], [ 1, %13 ], [ 2, %24 ], [ 1, %21 ]
  %28 = load i16, i16* %3, align 2, !tbaa !8
  %29 = icmp ult i16 %28, %26
  br i1 %29, label %30, label %42

30:                                               ; preds = %25
  store i16 %28, i16* %2, align 2, !tbaa !8
  store i16 %26, i16* %3, align 2, !tbaa !8
  %31 = add nuw nsw i32 %27, 1
  %32 = load i16, i16* %2, align 2, !tbaa !8
  %33 = load i16, i16* %1, align 2, !tbaa !8
  %34 = icmp ult i16 %32, %33
  br i1 %34, label %35, label %42

35:                                               ; preds = %30
  store i16 %32, i16* %1, align 2, !tbaa !8
  store i16 %33, i16* %2, align 2, !tbaa !8
  %36 = add nuw nsw i32 %27, 2
  %37 = load i16, i16* %1, align 2, !tbaa !8
  %38 = load i16, i16* %0, align 2, !tbaa !8
  %39 = icmp ult i16 %37, %38
  br i1 %39, label %40, label %42

40:                                               ; preds = %35
  store i16 %37, i16* %0, align 2, !tbaa !8
  store i16 %38, i16* %1, align 2, !tbaa !8
  %41 = add nuw nsw i32 %27, 3
  br label %42

42:                                               ; preds = %25, %30, %35, %40
  %43 = phi i32 [ %41, %40 ], [ %36, %35 ], [ %31, %30 ], [ %27, %25 ]
  %44 = load i16, i16* %4, align 2, !tbaa !8
  %45 = load i16, i16* %3, align 2, !tbaa !8
  %46 = icmp ult i16 %44, %45
  br i1 %46, label %47, label %64

47:                                               ; preds = %42
  store i16 %44, i16* %3, align 2, !tbaa !8
  store i16 %45, i16* %4, align 2, !tbaa !8
  %48 = add nuw nsw i32 %43, 1
  %49 = load i16, i16* %3, align 2, !tbaa !8
  %50 = load i16, i16* %2, align 2, !tbaa !8
  %51 = icmp ult i16 %49, %50
  br i1 %51, label %52, label %64

52:                                               ; preds = %47
  store i16 %49, i16* %2, align 2, !tbaa !8
  store i16 %50, i16* %3, align 2, !tbaa !8
  %53 = add nuw nsw i32 %43, 2
  %54 = load i16, i16* %2, align 2, !tbaa !8
  %55 = load i16, i16* %1, align 2, !tbaa !8
  %56 = icmp ult i16 %54, %55
  br i1 %56, label %57, label %64

57:                                               ; preds = %52
  store i16 %54, i16* %1, align 2, !tbaa !8
  store i16 %55, i16* %2, align 2, !tbaa !8
  %58 = add nuw nsw i32 %43, 3
  %59 = load i16, i16* %1, align 2, !tbaa !8
  %60 = load i16, i16* %0, align 2, !tbaa !8
  %61 = icmp ult i16 %59, %60
  br i1 %61, label %62, label %64

62:                                               ; preds = %57
  store i16 %59, i16* %0, align 2, !tbaa !8
  store i16 %60, i16* %1, align 2, !tbaa !8
  %63 = add nuw nsw i32 %43, 4
  br label %64

64:                                               ; preds = %47, %57, %62, %52, %42
  %65 = phi i32 [ %63, %62 ], [ %58, %57 ], [ %53, %52 ], [ %48, %47 ], [ %43, %42 ]
  ret i32 %65
}

; Function Attrs: uwtable
define weak_odr zeroext i1 @_ZNSt3__127__insertion_sort_incompleteIRNS_6__lessIttEEPtEEbT0_S5_T_(i16* %0, i16* %1, %"struct.std::__1::__less.4"* nonnull align 1 dereferenceable(1) %2) local_unnamed_addr #0 comdat {
  %4 = ptrtoint i16* %1 to i64
  %5 = ptrtoint i16* %0 to i64
  %6 = sub i64 %4, %5
  %7 = ashr exact i64 %6, 1
  switch i64 %7, label %70 [
    i64 0, label %120
    i64 1, label %120
    i64 2, label %8
    i64 3, label %14
    i64 4, label %34
    i64 5, label %64
  ]

8:                                                ; preds = %3
  %9 = getelementptr inbounds i16, i16* %1, i64 -1
  %10 = load i16, i16* %9, align 2, !tbaa !8
  %11 = load i16, i16* %0, align 2, !tbaa !8
  %12 = icmp ult i16 %10, %11
  br i1 %12, label %13, label %120

13:                                               ; preds = %8
  store i16 %10, i16* %0, align 2, !tbaa !8
  store i16 %11, i16* %9, align 2, !tbaa !8
  br label %120

14:                                               ; preds = %3
  %15 = getelementptr inbounds i16, i16* %0, i64 1
  %16 = getelementptr inbounds i16, i16* %1, i64 -1
  %17 = load i16, i16* %15, align 2, !tbaa !8
  %18 = load i16, i16* %0, align 2, !tbaa !8
  %19 = icmp ult i16 %17, %18
  %20 = load i16, i16* %16, align 2, !tbaa !8
  %21 = icmp ult i16 %20, %17
  br i1 %19, label %28, label %22

22:                                               ; preds = %14
  br i1 %21, label %23, label %120

23:                                               ; preds = %22
  store i16 %20, i16* %15, align 2, !tbaa !8
  store i16 %17, i16* %16, align 2, !tbaa !8
  %24 = load i16, i16* %15, align 2, !tbaa !8
  %25 = load i16, i16* %0, align 2, !tbaa !8
  %26 = icmp ult i16 %24, %25
  br i1 %26, label %27, label %120

27:                                               ; preds = %23
  store i16 %24, i16* %0, align 2, !tbaa !8
  store i16 %25, i16* %15, align 2, !tbaa !8
  br label %120

28:                                               ; preds = %14
  br i1 %21, label %29, label %30

29:                                               ; preds = %28
  store i16 %20, i16* %0, align 2, !tbaa !8
  store i16 %18, i16* %16, align 2, !tbaa !8
  br label %120

30:                                               ; preds = %28
  store i16 %17, i16* %0, align 2, !tbaa !8
  store i16 %18, i16* %15, align 2, !tbaa !8
  %31 = load i16, i16* %16, align 2, !tbaa !8
  %32 = icmp ult i16 %31, %18
  br i1 %32, label %33, label %120

33:                                               ; preds = %30
  store i16 %31, i16* %15, align 2, !tbaa !8
  store i16 %18, i16* %16, align 2, !tbaa !8
  br label %120

34:                                               ; preds = %3
  %35 = getelementptr inbounds i16, i16* %0, i64 1
  %36 = getelementptr inbounds i16, i16* %0, i64 2
  %37 = getelementptr inbounds i16, i16* %1, i64 -1
  %38 = load i16, i16* %35, align 2, !tbaa !8
  %39 = load i16, i16* %0, align 2, !tbaa !8
  %40 = icmp ult i16 %38, %39
  %41 = load i16, i16* %36, align 2, !tbaa !8
  %42 = icmp ult i16 %41, %38
  br i1 %40, label %47, label %43

43:                                               ; preds = %34
  br i1 %42, label %44, label %52

44:                                               ; preds = %43
  store i16 %41, i16* %35, align 2, !tbaa !8
  store i16 %38, i16* %36, align 2, !tbaa !8
  %45 = icmp ult i16 %41, %39
  br i1 %45, label %46, label %52

46:                                               ; preds = %44
  store i16 %41, i16* %0, align 2, !tbaa !8
  store i16 %39, i16* %35, align 2, !tbaa !8
  br label %52

47:                                               ; preds = %34
  br i1 %42, label %48, label %49

48:                                               ; preds = %47
  store i16 %41, i16* %0, align 2, !tbaa !8
  store i16 %39, i16* %36, align 2, !tbaa !8
  br label %52

49:                                               ; preds = %47
  store i16 %38, i16* %0, align 2, !tbaa !8
  store i16 %39, i16* %35, align 2, !tbaa !8
  %50 = icmp ult i16 %41, %39
  br i1 %50, label %51, label %52

51:                                               ; preds = %49
  store i16 %41, i16* %35, align 2, !tbaa !8
  store i16 %39, i16* %36, align 2, !tbaa !8
  br label %52

52:                                               ; preds = %51, %49, %48, %46, %44, %43
  %53 = phi i16 [ %39, %48 ], [ %41, %43 ], [ %38, %46 ], [ %38, %44 ], [ %39, %51 ], [ %41, %49 ]
  %54 = load i16, i16* %37, align 2, !tbaa !8
  %55 = icmp ult i16 %54, %53
  br i1 %55, label %56, label %120

56:                                               ; preds = %52
  store i16 %54, i16* %36, align 2, !tbaa !8
  store i16 %53, i16* %37, align 2, !tbaa !8
  %57 = load i16, i16* %36, align 2, !tbaa !8
  %58 = load i16, i16* %35, align 2, !tbaa !8
  %59 = icmp ult i16 %57, %58
  br i1 %59, label %60, label %120

60:                                               ; preds = %56
  store i16 %57, i16* %35, align 2, !tbaa !8
  store i16 %58, i16* %36, align 2, !tbaa !8
  %61 = load i16, i16* %0, align 2, !tbaa !8
  %62 = icmp ult i16 %57, %61
  br i1 %62, label %63, label %120

63:                                               ; preds = %60
  store i16 %57, i16* %0, align 2, !tbaa !8
  store i16 %61, i16* %35, align 2, !tbaa !8
  br label %120

64:                                               ; preds = %3
  %65 = getelementptr inbounds i16, i16* %0, i64 1
  %66 = getelementptr inbounds i16, i16* %0, i64 2
  %67 = getelementptr inbounds i16, i16* %0, i64 3
  %68 = getelementptr inbounds i16, i16* %1, i64 -1
  %69 = tail call i32 @_ZNSt3__17__sort5IRNS_6__lessIttEEPtEEjT0_S5_S5_S5_S5_T_(i16* %0, i16* nonnull %65, i16* nonnull %66, i16* nonnull %67, i16* nonnull %68, %"struct.std::__1::__less.4"* nonnull align 1 dereferenceable(1) %2)
  br label %120

70:                                               ; preds = %3
  %71 = getelementptr inbounds i16, i16* %0, i64 2
  %72 = getelementptr inbounds i16, i16* %0, i64 1
  %73 = load i16, i16* %72, align 2, !tbaa !8
  %74 = load i16, i16* %0, align 2, !tbaa !8
  %75 = icmp ult i16 %73, %74
  %76 = load i16, i16* %71, align 2, !tbaa !8
  %77 = icmp ult i16 %76, %73
  br i1 %75, label %82, label %78

78:                                               ; preds = %70
  br i1 %77, label %79, label %87

79:                                               ; preds = %78
  store i16 %76, i16* %72, align 2, !tbaa !8
  store i16 %73, i16* %71, align 2, !tbaa !8
  %80 = icmp ult i16 %76, %74
  br i1 %80, label %81, label %87

81:                                               ; preds = %79
  store i16 %76, i16* %0, align 2, !tbaa !8
  store i16 %74, i16* %72, align 2, !tbaa !8
  br label %87

82:                                               ; preds = %70
  br i1 %77, label %83, label %84

83:                                               ; preds = %82
  store i16 %76, i16* %0, align 2, !tbaa !8
  store i16 %74, i16* %71, align 2, !tbaa !8
  br label %87

84:                                               ; preds = %82
  store i16 %73, i16* %0, align 2, !tbaa !8
  store i16 %74, i16* %72, align 2, !tbaa !8
  %85 = icmp ult i16 %76, %74
  br i1 %85, label %86, label %87

86:                                               ; preds = %84
  store i16 %76, i16* %72, align 2, !tbaa !8
  store i16 %74, i16* %71, align 2, !tbaa !8
  br label %87

87:                                               ; preds = %78, %79, %81, %83, %84, %86
  %88 = phi i16 [ %76, %78 ], [ %73, %79 ], [ %73, %81 ], [ %74, %83 ], [ %76, %84 ], [ %74, %86 ]
  %89 = getelementptr inbounds i16, i16* %0, i64 3
  %90 = icmp eq i16* %89, %1
  br i1 %90, label %120, label %91

91:                                               ; preds = %87, %115
  %92 = phi i16 [ %116, %115 ], [ %88, %87 ]
  %93 = phi i16* [ %113, %115 ], [ %89, %87 ]
  %94 = phi i32 [ %112, %115 ], [ 0, %87 ]
  %95 = phi i16* [ %93, %115 ], [ %71, %87 ]
  %96 = load i16, i16* %93, align 2, !tbaa !8
  %97 = icmp ult i16 %96, %92
  br i1 %97, label %98, label %111

98:                                               ; preds = %91, %103
  %99 = phi i16 [ %105, %103 ], [ %92, %91 ]
  %100 = phi i16* [ %101, %103 ], [ %93, %91 ]
  %101 = phi i16* [ %104, %103 ], [ %95, %91 ]
  store i16 %99, i16* %100, align 2, !tbaa !8
  %102 = icmp eq i16* %101, %0
  br i1 %102, label %107, label %103

103:                                              ; preds = %98
  %104 = getelementptr inbounds i16, i16* %101, i64 -1
  %105 = load i16, i16* %104, align 2, !tbaa !8
  %106 = icmp ult i16 %96, %105
  br i1 %106, label %98, label %107

107:                                              ; preds = %98, %103
  %108 = phi i16* [ %0, %98 ], [ %101, %103 ]
  store i16 %96, i16* %108, align 2, !tbaa !8
  %109 = add i32 %94, 1
  %110 = icmp eq i32 %109, 8
  br i1 %110, label %117, label %111

111:                                              ; preds = %107, %91
  %112 = phi i32 [ %109, %107 ], [ %94, %91 ]
  %113 = getelementptr inbounds i16, i16* %93, i64 1
  %114 = icmp eq i16* %113, %1
  br i1 %114, label %120, label %115

115:                                              ; preds = %111
  %116 = load i16, i16* %93, align 2, !tbaa !8
  br label %91

117:                                              ; preds = %107
  %118 = getelementptr inbounds i16, i16* %93, i64 1
  %119 = icmp eq i16* %118, %1
  br label %120

120:                                              ; preds = %111, %117, %87, %63, %60, %56, %52, %33, %30, %29, %27, %23, %22, %8, %13, %3, %3, %64
  %121 = phi i1 [ true, %64 ], [ true, %3 ], [ true, %3 ], [ true, %13 ], [ true, %8 ], [ true, %22 ], [ true, %23 ], [ true, %27 ], [ true, %29 ], [ true, %30 ], [ true, %33 ], [ true, %52 ], [ true, %56 ], [ true, %60 ], [ true, %63 ], [ true, %87 ], [ %119, %117 ], [ true, %111 ]
  ret i1 %121
}

; Function Attrs: uwtable
define weak_odr void @_ZNSt3__16__sortIRNS_6__lessIiiEEPiEEvT0_S5_T_(i32* %0, i32* %1, %"struct.std::__1::__less.5"* nonnull align 1 dereferenceable(1) %2) local_unnamed_addr #0 comdat {
  br label %4

4:                                                ; preds = %246, %3
  %5 = phi i32* [ %1, %3 ], [ %230, %246 ]
  %6 = phi i32* [ %0, %3 ], [ %13, %246 ]
  %7 = ptrtoint i32* %5 to i64
  %8 = getelementptr inbounds i32, i32* %5, i64 -1
  %9 = ptrtoint i32* %5 to i64
  br label %10

10:                                               ; preds = %256, %4
  %11 = phi i32* [ %6, %4 ], [ %257, %256 ]
  br label %12

12:                                               ; preds = %260, %10
  %13 = phi i32* [ %11, %10 ], [ %262, %260 ]
  %14 = ptrtoint i32* %13 to i64
  %15 = sub i64 %7, %14
  %16 = ashr exact i64 %15, 2
  switch i64 %16, label %79 [
    i64 0, label %263
    i64 1, label %263
    i64 2, label %17
    i64 3, label %23
    i64 4, label %43
    i64 5, label %73
  ]

17:                                               ; preds = %12
  %18 = getelementptr inbounds i32, i32* %5, i64 -1
  %19 = load i32, i32* %18, align 4, !tbaa !10
  %20 = load i32, i32* %13, align 4, !tbaa !10
  %21 = icmp slt i32 %19, %20
  br i1 %21, label %22, label %263

22:                                               ; preds = %17
  store i32 %19, i32* %13, align 4, !tbaa !10
  store i32 %20, i32* %18, align 4, !tbaa !10
  br label %263

23:                                               ; preds = %12
  %24 = getelementptr inbounds i32, i32* %13, i64 1
  %25 = getelementptr inbounds i32, i32* %5, i64 -1
  %26 = load i32, i32* %24, align 4, !tbaa !10
  %27 = load i32, i32* %13, align 4, !tbaa !10
  %28 = icmp slt i32 %26, %27
  %29 = load i32, i32* %25, align 4, !tbaa !10
  %30 = icmp slt i32 %29, %26
  br i1 %28, label %37, label %31

31:                                               ; preds = %23
  br i1 %30, label %32, label %263

32:                                               ; preds = %31
  store i32 %29, i32* %24, align 4, !tbaa !10
  store i32 %26, i32* %25, align 4, !tbaa !10
  %33 = load i32, i32* %24, align 4, !tbaa !10
  %34 = load i32, i32* %13, align 4, !tbaa !10
  %35 = icmp slt i32 %33, %34
  br i1 %35, label %36, label %263

36:                                               ; preds = %32
  store i32 %33, i32* %13, align 4, !tbaa !10
  store i32 %34, i32* %24, align 4, !tbaa !10
  br label %263

37:                                               ; preds = %23
  br i1 %30, label %38, label %39

38:                                               ; preds = %37
  store i32 %29, i32* %13, align 4, !tbaa !10
  store i32 %27, i32* %25, align 4, !tbaa !10
  br label %263

39:                                               ; preds = %37
  store i32 %26, i32* %13, align 4, !tbaa !10
  store i32 %27, i32* %24, align 4, !tbaa !10
  %40 = load i32, i32* %25, align 4, !tbaa !10
  %41 = icmp slt i32 %40, %27
  br i1 %41, label %42, label %263

42:                                               ; preds = %39
  store i32 %40, i32* %24, align 4, !tbaa !10
  store i32 %27, i32* %25, align 4, !tbaa !10
  br label %263

43:                                               ; preds = %12
  %44 = getelementptr inbounds i32, i32* %13, i64 1
  %45 = getelementptr inbounds i32, i32* %13, i64 2
  %46 = getelementptr inbounds i32, i32* %5, i64 -1
  %47 = load i32, i32* %44, align 4, !tbaa !10
  %48 = load i32, i32* %13, align 4, !tbaa !10
  %49 = icmp slt i32 %47, %48
  %50 = load i32, i32* %45, align 4, !tbaa !10
  %51 = icmp slt i32 %50, %47
  br i1 %49, label %56, label %52

52:                                               ; preds = %43
  br i1 %51, label %53, label %61

53:                                               ; preds = %52
  store i32 %50, i32* %44, align 4, !tbaa !10
  store i32 %47, i32* %45, align 4, !tbaa !10
  %54 = icmp slt i32 %50, %48
  br i1 %54, label %55, label %61

55:                                               ; preds = %53
  store i32 %50, i32* %13, align 4, !tbaa !10
  store i32 %48, i32* %44, align 4, !tbaa !10
  br label %61

56:                                               ; preds = %43
  br i1 %51, label %57, label %58

57:                                               ; preds = %56
  store i32 %50, i32* %13, align 4, !tbaa !10
  store i32 %48, i32* %45, align 4, !tbaa !10
  br label %61

58:                                               ; preds = %56
  store i32 %47, i32* %13, align 4, !tbaa !10
  store i32 %48, i32* %44, align 4, !tbaa !10
  %59 = icmp slt i32 %50, %48
  br i1 %59, label %60, label %61

60:                                               ; preds = %58
  store i32 %50, i32* %44, align 4, !tbaa !10
  store i32 %48, i32* %45, align 4, !tbaa !10
  br label %61

61:                                               ; preds = %60, %58, %57, %55, %53, %52
  %62 = phi i32 [ %48, %57 ], [ %50, %52 ], [ %47, %55 ], [ %47, %53 ], [ %48, %60 ], [ %50, %58 ]
  %63 = load i32, i32* %46, align 4, !tbaa !10
  %64 = icmp slt i32 %63, %62
  br i1 %64, label %65, label %263

65:                                               ; preds = %61
  store i32 %63, i32* %45, align 4, !tbaa !10
  store i32 %62, i32* %46, align 4, !tbaa !10
  %66 = load i32, i32* %45, align 4, !tbaa !10
  %67 = load i32, i32* %44, align 4, !tbaa !10
  %68 = icmp slt i32 %66, %67
  br i1 %68, label %69, label %263

69:                                               ; preds = %65
  store i32 %66, i32* %44, align 4, !tbaa !10
  store i32 %67, i32* %45, align 4, !tbaa !10
  %70 = load i32, i32* %13, align 4, !tbaa !10
  %71 = icmp slt i32 %66, %70
  br i1 %71, label %72, label %263

72:                                               ; preds = %69
  store i32 %66, i32* %13, align 4, !tbaa !10
  store i32 %70, i32* %44, align 4, !tbaa !10
  br label %263

73:                                               ; preds = %12
  %74 = getelementptr inbounds i32, i32* %13, i64 1
  %75 = getelementptr inbounds i32, i32* %13, i64 2
  %76 = getelementptr inbounds i32, i32* %13, i64 3
  %77 = getelementptr inbounds i32, i32* %5, i64 -1
  %78 = tail call i32 @_ZNSt3__17__sort5IRNS_6__lessIiiEEPiEEjT0_S5_S5_S5_S5_T_(i32* %13, i32* nonnull %74, i32* nonnull %75, i32* nonnull %76, i32* nonnull %77, %"struct.std::__1::__less.5"* nonnull align 1 dereferenceable(1) %2)
  br label %263

79:                                               ; preds = %12
  %80 = icmp slt i64 %15, 124
  br i1 %80, label %81, label %124

81:                                               ; preds = %79
  %82 = getelementptr inbounds i32, i32* %13, i64 2
  %83 = getelementptr inbounds i32, i32* %13, i64 1
  %84 = load i32, i32* %83, align 4, !tbaa !10
  %85 = load i32, i32* %13, align 4, !tbaa !10
  %86 = icmp slt i32 %84, %85
  %87 = load i32, i32* %82, align 4, !tbaa !10
  %88 = icmp slt i32 %87, %84
  br i1 %86, label %93, label %89

89:                                               ; preds = %81
  br i1 %88, label %90, label %98

90:                                               ; preds = %89
  store i32 %87, i32* %83, align 4, !tbaa !10
  store i32 %84, i32* %82, align 4, !tbaa !10
  %91 = icmp slt i32 %87, %85
  br i1 %91, label %92, label %98

92:                                               ; preds = %90
  store i32 %87, i32* %13, align 4, !tbaa !10
  store i32 %85, i32* %83, align 4, !tbaa !10
  br label %98

93:                                               ; preds = %81
  br i1 %88, label %94, label %95

94:                                               ; preds = %93
  store i32 %87, i32* %13, align 4, !tbaa !10
  store i32 %85, i32* %82, align 4, !tbaa !10
  br label %98

95:                                               ; preds = %93
  store i32 %84, i32* %13, align 4, !tbaa !10
  store i32 %85, i32* %83, align 4, !tbaa !10
  %96 = icmp slt i32 %87, %85
  br i1 %96, label %97, label %98

97:                                               ; preds = %95
  store i32 %87, i32* %83, align 4, !tbaa !10
  store i32 %85, i32* %82, align 4, !tbaa !10
  br label %98

98:                                               ; preds = %97, %95, %94, %92, %90, %89
  %99 = phi i32 [ %87, %89 ], [ %84, %90 ], [ %84, %92 ], [ %85, %94 ], [ %87, %95 ], [ %85, %97 ]
  %100 = getelementptr inbounds i32, i32* %13, i64 3
  %101 = icmp eq i32* %100, %5
  br i1 %101, label %263, label %102

102:                                              ; preds = %98, %122
  %103 = phi i32 [ %123, %122 ], [ %99, %98 ]
  %104 = phi i32* [ %120, %122 ], [ %100, %98 ]
  %105 = phi i32* [ %104, %122 ], [ %82, %98 ]
  %106 = load i32, i32* %104, align 4, !tbaa !10
  %107 = icmp slt i32 %106, %103
  br i1 %107, label %108, label %119

108:                                              ; preds = %102, %113
  %109 = phi i32 [ %115, %113 ], [ %103, %102 ]
  %110 = phi i32* [ %111, %113 ], [ %104, %102 ]
  %111 = phi i32* [ %114, %113 ], [ %105, %102 ]
  store i32 %109, i32* %110, align 4, !tbaa !10
  %112 = icmp eq i32* %111, %13
  br i1 %112, label %117, label %113

113:                                              ; preds = %108
  %114 = getelementptr inbounds i32, i32* %111, i64 -1
  %115 = load i32, i32* %114, align 4, !tbaa !10
  %116 = icmp slt i32 %106, %115
  br i1 %116, label %108, label %117

117:                                              ; preds = %113, %108
  %118 = phi i32* [ %13, %108 ], [ %111, %113 ]
  store i32 %106, i32* %118, align 4, !tbaa !10
  br label %119

119:                                              ; preds = %117, %102
  %120 = getelementptr inbounds i32, i32* %104, i64 1
  %121 = icmp eq i32* %120, %5
  br i1 %121, label %263, label %122

122:                                              ; preds = %119
  %123 = load i32, i32* %104, align 4, !tbaa !10
  br label %102

124:                                              ; preds = %79
  %125 = icmp sgt i64 %15, 3996
  %126 = sdiv i64 %16, 2
  %127 = getelementptr inbounds i32, i32* %13, i64 %126
  br i1 %125, label %128, label %133

128:                                              ; preds = %124
  %129 = sdiv i64 %16, 4
  %130 = getelementptr inbounds i32, i32* %13, i64 %129
  %131 = getelementptr inbounds i32, i32* %127, i64 %129
  %132 = tail call i32 @_ZNSt3__17__sort5IRNS_6__lessIiiEEPiEEjT0_S5_S5_S5_S5_T_(i32* %13, i32* %130, i32* %127, i32* %131, i32* nonnull %8, %"struct.std::__1::__less.5"* nonnull align 1 dereferenceable(1) %2)
  br label %151

133:                                              ; preds = %124
  %134 = load i32, i32* %127, align 4, !tbaa !10
  %135 = load i32, i32* %13, align 4, !tbaa !10
  %136 = icmp slt i32 %134, %135
  %137 = load i32, i32* %8, align 4, !tbaa !10
  %138 = icmp slt i32 %137, %134
  br i1 %136, label %145, label %139

139:                                              ; preds = %133
  br i1 %138, label %140, label %151

140:                                              ; preds = %139
  store i32 %137, i32* %127, align 4, !tbaa !10
  store i32 %134, i32* %8, align 4, !tbaa !10
  %141 = load i32, i32* %127, align 4, !tbaa !10
  %142 = load i32, i32* %13, align 4, !tbaa !10
  %143 = icmp slt i32 %141, %142
  br i1 %143, label %144, label %151

144:                                              ; preds = %140
  store i32 %141, i32* %13, align 4, !tbaa !10
  store i32 %142, i32* %127, align 4, !tbaa !10
  br label %151

145:                                              ; preds = %133
  br i1 %138, label %146, label %147

146:                                              ; preds = %145
  store i32 %137, i32* %13, align 4, !tbaa !10
  store i32 %135, i32* %8, align 4, !tbaa !10
  br label %151

147:                                              ; preds = %145
  store i32 %134, i32* %13, align 4, !tbaa !10
  store i32 %135, i32* %127, align 4, !tbaa !10
  %148 = load i32, i32* %8, align 4, !tbaa !10
  %149 = icmp slt i32 %148, %135
  br i1 %149, label %150, label %151

150:                                              ; preds = %147
  store i32 %148, i32* %127, align 4, !tbaa !10
  store i32 %135, i32* %8, align 4, !tbaa !10
  br label %151

151:                                              ; preds = %150, %147, %146, %144, %140, %139, %128
  %152 = phi i32 [ %132, %128 ], [ 1, %146 ], [ 0, %139 ], [ 2, %144 ], [ 1, %140 ], [ 2, %150 ], [ 1, %147 ]
  %153 = load i32, i32* %13, align 4, !tbaa !10
  %154 = load i32, i32* %127, align 4, !tbaa !10
  %155 = icmp slt i32 %153, %154
  br i1 %155, label %200, label %156

156:                                              ; preds = %151, %195
  %157 = phi i32* [ %158, %195 ], [ %8, %151 ]
  %158 = getelementptr inbounds i32, i32* %157, i64 -1
  %159 = icmp eq i32* %13, %158
  br i1 %159, label %160, label %195

160:                                              ; preds = %156
  %161 = getelementptr inbounds i32, i32* %13, i64 1
  %162 = load i32, i32* %8, align 4, !tbaa !10
  %163 = icmp slt i32 %153, %162
  br i1 %163, label %175, label %164

164:                                              ; preds = %160
  %165 = icmp eq i32* %161, %8
  br i1 %165, label %263, label %166

166:                                              ; preds = %164, %172
  %167 = phi i32* [ %173, %172 ], [ %161, %164 ]
  %168 = load i32, i32* %167, align 4, !tbaa !10
  %169 = icmp slt i32 %153, %168
  br i1 %169, label %170, label %172

170:                                              ; preds = %166
  store i32 %162, i32* %167, align 4, !tbaa !10
  store i32 %168, i32* %8, align 4, !tbaa !10
  %171 = getelementptr inbounds i32, i32* %167, i64 1
  br label %175

172:                                              ; preds = %166
  %173 = getelementptr inbounds i32, i32* %167, i64 1
  %174 = icmp eq i32* %173, %8
  br i1 %174, label %263, label %166

175:                                              ; preds = %170, %160
  %176 = phi i32* [ %161, %160 ], [ %171, %170 ]
  %177 = icmp eq i32* %176, %8
  br i1 %177, label %263, label %178

178:                                              ; preds = %175, %194
  %179 = phi i32* [ %186, %194 ], [ %176, %175 ]
  %180 = phi i32* [ %189, %194 ], [ %8, %175 ]
  %181 = load i32, i32* %13, align 4, !tbaa !10
  br label %182

182:                                              ; preds = %182, %178
  %183 = phi i32* [ %179, %178 ], [ %186, %182 ]
  %184 = load i32, i32* %183, align 4, !tbaa !10
  %185 = icmp slt i32 %181, %184
  %186 = getelementptr inbounds i32, i32* %183, i64 1
  br i1 %185, label %187, label %182

187:                                              ; preds = %182, %187
  %188 = phi i32* [ %189, %187 ], [ %180, %182 ]
  %189 = getelementptr inbounds i32, i32* %188, i64 -1
  %190 = load i32, i32* %189, align 4, !tbaa !10
  %191 = icmp slt i32 %181, %190
  br i1 %191, label %187, label %192

192:                                              ; preds = %187
  %193 = icmp ult i32* %183, %189
  br i1 %193, label %194, label %260

194:                                              ; preds = %192
  store i32 %190, i32* %183, align 4, !tbaa !10
  store i32 %184, i32* %189, align 4, !tbaa !10
  br label %178

195:                                              ; preds = %156
  %196 = load i32, i32* %158, align 4, !tbaa !10
  %197 = icmp slt i32 %196, %154
  br i1 %197, label %198, label %156

198:                                              ; preds = %195
  store i32 %196, i32* %13, align 4, !tbaa !10
  store i32 %153, i32* %158, align 4, !tbaa !10
  %199 = add i32 %152, 1
  br label %200

200:                                              ; preds = %198, %151
  %201 = phi i32 [ %152, %151 ], [ %199, %198 ]
  %202 = phi i32* [ %8, %151 ], [ %158, %198 ]
  %203 = getelementptr inbounds i32, i32* %13, i64 1
  %204 = icmp ult i32* %203, %202
  br i1 %204, label %205, label %227

205:                                              ; preds = %200, %223
  %206 = phi i32* [ %226, %223 ], [ %127, %200 ]
  %207 = phi i32 [ %224, %223 ], [ %201, %200 ]
  %208 = phi i32* [ %215, %223 ], [ %203, %200 ]
  %209 = phi i32* [ %218, %223 ], [ %202, %200 ]
  %210 = load i32, i32* %206, align 4, !tbaa !10
  br label %211

211:                                              ; preds = %211, %205
  %212 = phi i32* [ %208, %205 ], [ %215, %211 ]
  %213 = load i32, i32* %212, align 4, !tbaa !10
  %214 = icmp slt i32 %213, %210
  %215 = getelementptr inbounds i32, i32* %212, i64 1
  br i1 %214, label %211, label %216

216:                                              ; preds = %211, %216
  %217 = phi i32* [ %218, %216 ], [ %209, %211 ]
  %218 = getelementptr inbounds i32, i32* %217, i64 -1
  %219 = load i32, i32* %218, align 4, !tbaa !10
  %220 = icmp slt i32 %219, %210
  br i1 %220, label %221, label %216

221:                                              ; preds = %216
  %222 = icmp ugt i32* %212, %218
  br i1 %222, label %227, label %223

223:                                              ; preds = %221
  store i32 %219, i32* %212, align 4, !tbaa !10
  store i32 %213, i32* %218, align 4, !tbaa !10
  %224 = add i32 %207, 1
  %225 = icmp eq i32* %206, %212
  %226 = select i1 %225, i32* %218, i32* %206
  br label %205

227:                                              ; preds = %221, %200
  %228 = phi i32* [ %127, %200 ], [ %206, %221 ]
  %229 = phi i32 [ %201, %200 ], [ %207, %221 ]
  %230 = phi i32* [ %203, %200 ], [ %212, %221 ]
  %231 = icmp eq i32* %230, %228
  br i1 %231, label %238, label %232

232:                                              ; preds = %227
  %233 = load i32, i32* %228, align 4, !tbaa !10
  %234 = load i32, i32* %230, align 4, !tbaa !10
  %235 = icmp slt i32 %233, %234
  br i1 %235, label %236, label %238

236:                                              ; preds = %232
  store i32 %233, i32* %230, align 4, !tbaa !10
  store i32 %234, i32* %228, align 4, !tbaa !10
  %237 = add i32 %229, 1
  br label %238

238:                                              ; preds = %227, %236, %232
  %239 = phi i32 [ %237, %236 ], [ %229, %232 ], [ %229, %227 ]
  %240 = icmp eq i32 %239, 0
  br i1 %240, label %241, label %248

241:                                              ; preds = %238
  %242 = tail call zeroext i1 @_ZNSt3__127__insertion_sort_incompleteIRNS_6__lessIiiEEPiEEbT0_S5_T_(i32* nonnull %13, i32* %230, %"struct.std::__1::__less.5"* nonnull align 1 dereferenceable(1) %2)
  %243 = getelementptr inbounds i32, i32* %230, i64 1
  %244 = tail call zeroext i1 @_ZNSt3__127__insertion_sort_incompleteIRNS_6__lessIiiEEPiEEbT0_S5_T_(i32* nonnull %243, i32* %5, %"struct.std::__1::__less.5"* nonnull align 1 dereferenceable(1) %2)
  br i1 %244, label %245, label %247

245:                                              ; preds = %241
  br i1 %242, label %263, label %246

246:                                              ; preds = %245, %258
  br label %4

247:                                              ; preds = %241
  br i1 %242, label %260, label %248

248:                                              ; preds = %238, %247
  %249 = ptrtoint i32* %13 to i64
  %250 = ptrtoint i32* %230 to i64
  %251 = sub i64 %250, %249
  %252 = sub i64 %9, %250
  %253 = icmp slt i64 %251, %252
  br i1 %253, label %254, label %258

254:                                              ; preds = %248
  tail call void @_ZNSt3__16__sortIRNS_6__lessIiiEEPiEEvT0_S5_T_(i32* %13, i32* %230, %"struct.std::__1::__less.5"* nonnull align 1 dereferenceable(1) %2)
  %255 = getelementptr inbounds i32, i32* %230, i64 1
  br label %256

256:                                              ; preds = %260, %260, %254
  %257 = phi i32* [ %255, %254 ], [ %262, %260 ], [ %262, %260 ]
  br label %10

258:                                              ; preds = %248
  %259 = getelementptr inbounds i32, i32* %230, i64 1
  tail call void @_ZNSt3__16__sortIRNS_6__lessIiiEEPiEEvT0_S5_T_(i32* nonnull %259, i32* %5, %"struct.std::__1::__less.5"* nonnull align 1 dereferenceable(1) %2)
  br label %246

260:                                              ; preds = %192, %247
  %261 = phi i32 [ 2, %247 ], [ 4, %192 ]
  %262 = phi i32* [ %243, %247 ], [ %183, %192 ]
  switch i32 %261, label %263 [
    i32 0, label %256
    i32 4, label %12
    i32 2, label %256
  ]

263:                                              ; preds = %245, %175, %12, %12, %260, %164, %172, %119, %98, %72, %69, %65, %61, %42, %39, %38, %36, %32, %31, %17, %22, %73
  ret void
}

; Function Attrs: nounwind uwtable
define linkonce_odr hidden i32 @_ZNSt3__17__sort5IRNS_6__lessIiiEEPiEEjT0_S5_S5_S5_S5_T_(i32* %0, i32* %1, i32* %2, i32* %3, i32* %4, %"struct.std::__1::__less.5"* nonnull align 1 dereferenceable(1) %5) local_unnamed_addr #1 comdat {
  %7 = load i32, i32* %1, align 4, !tbaa !10
  %8 = load i32, i32* %0, align 4, !tbaa !10
  %9 = icmp slt i32 %7, %8
  %10 = load i32, i32* %2, align 4, !tbaa !10
  %11 = icmp slt i32 %10, %7
  br i1 %9, label %19, label %12

12:                                               ; preds = %6
  br i1 %11, label %13, label %25

13:                                               ; preds = %12
  store i32 %10, i32* %1, align 4, !tbaa !10
  store i32 %7, i32* %2, align 4, !tbaa !10
  %14 = load i32, i32* %1, align 4, !tbaa !10
  %15 = load i32, i32* %0, align 4, !tbaa !10
  %16 = icmp slt i32 %14, %15
  br i1 %16, label %17, label %25

17:                                               ; preds = %13
  store i32 %14, i32* %0, align 4, !tbaa !10
  store i32 %15, i32* %1, align 4, !tbaa !10
  %18 = load i32, i32* %2, align 4, !tbaa !10
  br label %25

19:                                               ; preds = %6
  br i1 %11, label %20, label %21

20:                                               ; preds = %19
  store i32 %10, i32* %0, align 4, !tbaa !10
  store i32 %8, i32* %2, align 4, !tbaa !10
  br label %25

21:                                               ; preds = %19
  store i32 %7, i32* %0, align 4, !tbaa !10
  store i32 %8, i32* %1, align 4, !tbaa !10
  %22 = load i32, i32* %2, align 4, !tbaa !10
  %23 = icmp slt i32 %22, %8
  br i1 %23, label %24, label %25

24:                                               ; preds = %21
  store i32 %22, i32* %1, align 4, !tbaa !10
  store i32 %8, i32* %2, align 4, !tbaa !10
  br label %25

25:                                               ; preds = %24, %21, %20, %17, %13, %12
  %26 = phi i32 [ %8, %20 ], [ %10, %12 ], [ %18, %17 ], [ %7, %13 ], [ %8, %24 ], [ %22, %21 ]
  %27 = phi i32 [ 1, %20 ], [ 0, %12 ], [ 2, %17 ], [ 1, %13 ], [ 2, %24 ], [ 1, %21 ]
  %28 = load i32, i32* %3, align 4, !tbaa !10
  %29 = icmp slt i32 %28, %26
  br i1 %29, label %30, label %42

30:                                               ; preds = %25
  store i32 %28, i32* %2, align 4, !tbaa !10
  store i32 %26, i32* %3, align 4, !tbaa !10
  %31 = add nuw nsw i32 %27, 1
  %32 = load i32, i32* %2, align 4, !tbaa !10
  %33 = load i32, i32* %1, align 4, !tbaa !10
  %34 = icmp slt i32 %32, %33
  br i1 %34, label %35, label %42

35:                                               ; preds = %30
  store i32 %32, i32* %1, align 4, !tbaa !10
  store i32 %33, i32* %2, align 4, !tbaa !10
  %36 = add nuw nsw i32 %27, 2
  %37 = load i32, i32* %1, align 4, !tbaa !10
  %38 = load i32, i32* %0, align 4, !tbaa !10
  %39 = icmp slt i32 %37, %38
  br i1 %39, label %40, label %42

40:                                               ; preds = %35
  store i32 %37, i32* %0, align 4, !tbaa !10
  store i32 %38, i32* %1, align 4, !tbaa !10
  %41 = add nuw nsw i32 %27, 3
  br label %42

42:                                               ; preds = %25, %30, %35, %40
  %43 = phi i32 [ %41, %40 ], [ %36, %35 ], [ %31, %30 ], [ %27, %25 ]
  %44 = load i32, i32* %4, align 4, !tbaa !10
  %45 = load i32, i32* %3, align 4, !tbaa !10
  %46 = icmp slt i32 %44, %45
  br i1 %46, label %47, label %64

47:                                               ; preds = %42
  store i32 %44, i32* %3, align 4, !tbaa !10
  store i32 %45, i32* %4, align 4, !tbaa !10
  %48 = add nuw nsw i32 %43, 1
  %49 = load i32, i32* %3, align 4, !tbaa !10
  %50 = load i32, i32* %2, align 4, !tbaa !10
  %51 = icmp slt i32 %49, %50
  br i1 %51, label %52, label %64

52:                                               ; preds = %47
  store i32 %49, i32* %2, align 4, !tbaa !10
  store i32 %50, i32* %3, align 4, !tbaa !10
  %53 = add nuw nsw i32 %43, 2
  %54 = load i32, i32* %2, align 4, !tbaa !10
  %55 = load i32, i32* %1, align 4, !tbaa !10
  %56 = icmp slt i32 %54, %55
  br i1 %56, label %57, label %64

57:                                               ; preds = %52
  store i32 %54, i32* %1, align 4, !tbaa !10
  store i32 %55, i32* %2, align 4, !tbaa !10
  %58 = add nuw nsw i32 %43, 3
  %59 = load i32, i32* %1, align 4, !tbaa !10
  %60 = load i32, i32* %0, align 4, !tbaa !10
  %61 = icmp slt i32 %59, %60
  br i1 %61, label %62, label %64

62:                                               ; preds = %57
  store i32 %59, i32* %0, align 4, !tbaa !10
  store i32 %60, i32* %1, align 4, !tbaa !10
  %63 = add nuw nsw i32 %43, 4
  br label %64

64:                                               ; preds = %47, %57, %62, %52, %42
  %65 = phi i32 [ %63, %62 ], [ %58, %57 ], [ %53, %52 ], [ %48, %47 ], [ %43, %42 ]
  ret i32 %65
}

; Function Attrs: uwtable
define weak_odr zeroext i1 @_ZNSt3__127__insertion_sort_incompleteIRNS_6__lessIiiEEPiEEbT0_S5_T_(i32* %0, i32* %1, %"struct.std::__1::__less.5"* nonnull align 1 dereferenceable(1) %2) local_unnamed_addr #0 comdat {
  %4 = ptrtoint i32* %1 to i64
  %5 = ptrtoint i32* %0 to i64
  %6 = sub i64 %4, %5
  %7 = ashr exact i64 %6, 2
  switch i64 %7, label %70 [
    i64 0, label %120
    i64 1, label %120
    i64 2, label %8
    i64 3, label %14
    i64 4, label %34
    i64 5, label %64
  ]

8:                                                ; preds = %3
  %9 = getelementptr inbounds i32, i32* %1, i64 -1
  %10 = load i32, i32* %9, align 4, !tbaa !10
  %11 = load i32, i32* %0, align 4, !tbaa !10
  %12 = icmp slt i32 %10, %11
  br i1 %12, label %13, label %120

13:                                               ; preds = %8
  store i32 %10, i32* %0, align 4, !tbaa !10
  store i32 %11, i32* %9, align 4, !tbaa !10
  br label %120

14:                                               ; preds = %3
  %15 = getelementptr inbounds i32, i32* %0, i64 1
  %16 = getelementptr inbounds i32, i32* %1, i64 -1
  %17 = load i32, i32* %15, align 4, !tbaa !10
  %18 = load i32, i32* %0, align 4, !tbaa !10
  %19 = icmp slt i32 %17, %18
  %20 = load i32, i32* %16, align 4, !tbaa !10
  %21 = icmp slt i32 %20, %17
  br i1 %19, label %28, label %22

22:                                               ; preds = %14
  br i1 %21, label %23, label %120

23:                                               ; preds = %22
  store i32 %20, i32* %15, align 4, !tbaa !10
  store i32 %17, i32* %16, align 4, !tbaa !10
  %24 = load i32, i32* %15, align 4, !tbaa !10
  %25 = load i32, i32* %0, align 4, !tbaa !10
  %26 = icmp slt i32 %24, %25
  br i1 %26, label %27, label %120

27:                                               ; preds = %23
  store i32 %24, i32* %0, align 4, !tbaa !10
  store i32 %25, i32* %15, align 4, !tbaa !10
  br label %120

28:                                               ; preds = %14
  br i1 %21, label %29, label %30

29:                                               ; preds = %28
  store i32 %20, i32* %0, align 4, !tbaa !10
  store i32 %18, i32* %16, align 4, !tbaa !10
  br label %120

30:                                               ; preds = %28
  store i32 %17, i32* %0, align 4, !tbaa !10
  store i32 %18, i32* %15, align 4, !tbaa !10
  %31 = load i32, i32* %16, align 4, !tbaa !10
  %32 = icmp slt i32 %31, %18
  br i1 %32, label %33, label %120

33:                                               ; preds = %30
  store i32 %31, i32* %15, align 4, !tbaa !10
  store i32 %18, i32* %16, align 4, !tbaa !10
  br label %120

34:                                               ; preds = %3
  %35 = getelementptr inbounds i32, i32* %0, i64 1
  %36 = getelementptr inbounds i32, i32* %0, i64 2
  %37 = getelementptr inbounds i32, i32* %1, i64 -1
  %38 = load i32, i32* %35, align 4, !tbaa !10
  %39 = load i32, i32* %0, align 4, !tbaa !10
  %40 = icmp slt i32 %38, %39
  %41 = load i32, i32* %36, align 4, !tbaa !10
  %42 = icmp slt i32 %41, %38
  br i1 %40, label %47, label %43

43:                                               ; preds = %34
  br i1 %42, label %44, label %52

44:                                               ; preds = %43
  store i32 %41, i32* %35, align 4, !tbaa !10
  store i32 %38, i32* %36, align 4, !tbaa !10
  %45 = icmp slt i32 %41, %39
  br i1 %45, label %46, label %52

46:                                               ; preds = %44
  store i32 %41, i32* %0, align 4, !tbaa !10
  store i32 %39, i32* %35, align 4, !tbaa !10
  br label %52

47:                                               ; preds = %34
  br i1 %42, label %48, label %49

48:                                               ; preds = %47
  store i32 %41, i32* %0, align 4, !tbaa !10
  store i32 %39, i32* %36, align 4, !tbaa !10
  br label %52

49:                                               ; preds = %47
  store i32 %38, i32* %0, align 4, !tbaa !10
  store i32 %39, i32* %35, align 4, !tbaa !10
  %50 = icmp slt i32 %41, %39
  br i1 %50, label %51, label %52

51:                                               ; preds = %49
  store i32 %41, i32* %35, align 4, !tbaa !10
  store i32 %39, i32* %36, align 4, !tbaa !10
  br label %52

52:                                               ; preds = %51, %49, %48, %46, %44, %43
  %53 = phi i32 [ %39, %48 ], [ %41, %43 ], [ %38, %46 ], [ %38, %44 ], [ %39, %51 ], [ %41, %49 ]
  %54 = load i32, i32* %37, align 4, !tbaa !10
  %55 = icmp slt i32 %54, %53
  br i1 %55, label %56, label %120

56:                                               ; preds = %52
  store i32 %54, i32* %36, align 4, !tbaa !10
  store i32 %53, i32* %37, align 4, !tbaa !10
  %57 = load i32, i32* %36, align 4, !tbaa !10
  %58 = load i32, i32* %35, align 4, !tbaa !10
  %59 = icmp slt i32 %57, %58
  br i1 %59, label %60, label %120

60:                                               ; preds = %56
  store i32 %57, i32* %35, align 4, !tbaa !10
  store i32 %58, i32* %36, align 4, !tbaa !10
  %61 = load i32, i32* %0, align 4, !tbaa !10
  %62 = icmp slt i32 %57, %61
  br i1 %62, label %63, label %120

63:                                               ; preds = %60
  store i32 %57, i32* %0, align 4, !tbaa !10
  store i32 %61, i32* %35, align 4, !tbaa !10
  br label %120

64:                                               ; preds = %3
  %65 = getelementptr inbounds i32, i32* %0, i64 1
  %66 = getelementptr inbounds i32, i32* %0, i64 2
  %67 = getelementptr inbounds i32, i32* %0, i64 3
  %68 = getelementptr inbounds i32, i32* %1, i64 -1
  %69 = tail call i32 @_ZNSt3__17__sort5IRNS_6__lessIiiEEPiEEjT0_S5_S5_S5_S5_T_(i32* %0, i32* nonnull %65, i32* nonnull %66, i32* nonnull %67, i32* nonnull %68, %"struct.std::__1::__less.5"* nonnull align 1 dereferenceable(1) %2)
  br label %120

70:                                               ; preds = %3
  %71 = getelementptr inbounds i32, i32* %0, i64 2
  %72 = getelementptr inbounds i32, i32* %0, i64 1
  %73 = load i32, i32* %72, align 4, !tbaa !10
  %74 = load i32, i32* %0, align 4, !tbaa !10
  %75 = icmp slt i32 %73, %74
  %76 = load i32, i32* %71, align 4, !tbaa !10
  %77 = icmp slt i32 %76, %73
  br i1 %75, label %82, label %78

78:                                               ; preds = %70
  br i1 %77, label %79, label %87

79:                                               ; preds = %78
  store i32 %76, i32* %72, align 4, !tbaa !10
  store i32 %73, i32* %71, align 4, !tbaa !10
  %80 = icmp slt i32 %76, %74
  br i1 %80, label %81, label %87

81:                                               ; preds = %79
  store i32 %76, i32* %0, align 4, !tbaa !10
  store i32 %74, i32* %72, align 4, !tbaa !10
  br label %87

82:                                               ; preds = %70
  br i1 %77, label %83, label %84

83:                                               ; preds = %82
  store i32 %76, i32* %0, align 4, !tbaa !10
  store i32 %74, i32* %71, align 4, !tbaa !10
  br label %87

84:                                               ; preds = %82
  store i32 %73, i32* %0, align 4, !tbaa !10
  store i32 %74, i32* %72, align 4, !tbaa !10
  %85 = icmp slt i32 %76, %74
  br i1 %85, label %86, label %87

86:                                               ; preds = %84
  store i32 %76, i32* %72, align 4, !tbaa !10
  store i32 %74, i32* %71, align 4, !tbaa !10
  br label %87

87:                                               ; preds = %78, %79, %81, %83, %84, %86
  %88 = phi i32 [ %76, %78 ], [ %73, %79 ], [ %73, %81 ], [ %74, %83 ], [ %76, %84 ], [ %74, %86 ]
  %89 = getelementptr inbounds i32, i32* %0, i64 3
  %90 = icmp eq i32* %89, %1
  br i1 %90, label %120, label %91

91:                                               ; preds = %87, %115
  %92 = phi i32 [ %116, %115 ], [ %88, %87 ]
  %93 = phi i32* [ %113, %115 ], [ %89, %87 ]
  %94 = phi i32 [ %112, %115 ], [ 0, %87 ]
  %95 = phi i32* [ %93, %115 ], [ %71, %87 ]
  %96 = load i32, i32* %93, align 4, !tbaa !10
  %97 = icmp slt i32 %96, %92
  br i1 %97, label %98, label %111

98:                                               ; preds = %91, %103
  %99 = phi i32 [ %105, %103 ], [ %92, %91 ]
  %100 = phi i32* [ %101, %103 ], [ %93, %91 ]
  %101 = phi i32* [ %104, %103 ], [ %95, %91 ]
  store i32 %99, i32* %100, align 4, !tbaa !10
  %102 = icmp eq i32* %101, %0
  br i1 %102, label %107, label %103

103:                                              ; preds = %98
  %104 = getelementptr inbounds i32, i32* %101, i64 -1
  %105 = load i32, i32* %104, align 4, !tbaa !10
  %106 = icmp slt i32 %96, %105
  br i1 %106, label %98, label %107

107:                                              ; preds = %98, %103
  %108 = phi i32* [ %0, %98 ], [ %101, %103 ]
  store i32 %96, i32* %108, align 4, !tbaa !10
  %109 = add i32 %94, 1
  %110 = icmp eq i32 %109, 8
  br i1 %110, label %117, label %111

111:                                              ; preds = %107, %91
  %112 = phi i32 [ %109, %107 ], [ %94, %91 ]
  %113 = getelementptr inbounds i32, i32* %93, i64 1
  %114 = icmp eq i32* %113, %1
  br i1 %114, label %120, label %115

115:                                              ; preds = %111
  %116 = load i32, i32* %93, align 4, !tbaa !10
  br label %91

117:                                              ; preds = %107
  %118 = getelementptr inbounds i32, i32* %93, i64 1
  %119 = icmp eq i32* %118, %1
  br label %120

120:                                              ; preds = %111, %117, %87, %63, %60, %56, %52, %33, %30, %29, %27, %23, %22, %8, %13, %3, %3, %64
  %121 = phi i1 [ true, %64 ], [ true, %3 ], [ true, %3 ], [ true, %13 ], [ true, %8 ], [ true, %22 ], [ true, %23 ], [ true, %27 ], [ true, %29 ], [ true, %30 ], [ true, %33 ], [ true, %52 ], [ true, %56 ], [ true, %60 ], [ true, %63 ], [ true, %87 ], [ %119, %117 ], [ true, %111 ]
  ret i1 %121
}

; Function Attrs: uwtable
define weak_odr void @_ZNSt3__16__sortIRNS_6__lessIjjEEPjEEvT0_S5_T_(i32* %0, i32* %1, %"struct.std::__1::__less.6"* nonnull align 1 dereferenceable(1) %2) local_unnamed_addr #0 comdat {
  br label %4

4:                                                ; preds = %246, %3
  %5 = phi i32* [ %1, %3 ], [ %230, %246 ]
  %6 = phi i32* [ %0, %3 ], [ %13, %246 ]
  %7 = ptrtoint i32* %5 to i64
  %8 = getelementptr inbounds i32, i32* %5, i64 -1
  %9 = ptrtoint i32* %5 to i64
  br label %10

10:                                               ; preds = %256, %4
  %11 = phi i32* [ %6, %4 ], [ %257, %256 ]
  br label %12

12:                                               ; preds = %260, %10
  %13 = phi i32* [ %11, %10 ], [ %262, %260 ]
  %14 = ptrtoint i32* %13 to i64
  %15 = sub i64 %7, %14
  %16 = ashr exact i64 %15, 2
  switch i64 %16, label %79 [
    i64 0, label %263
    i64 1, label %263
    i64 2, label %17
    i64 3, label %23
    i64 4, label %43
    i64 5, label %73
  ]

17:                                               ; preds = %12
  %18 = getelementptr inbounds i32, i32* %5, i64 -1
  %19 = load i32, i32* %18, align 4, !tbaa !10
  %20 = load i32, i32* %13, align 4, !tbaa !10
  %21 = icmp ult i32 %19, %20
  br i1 %21, label %22, label %263

22:                                               ; preds = %17
  store i32 %19, i32* %13, align 4, !tbaa !10
  store i32 %20, i32* %18, align 4, !tbaa !10
  br label %263

23:                                               ; preds = %12
  %24 = getelementptr inbounds i32, i32* %13, i64 1
  %25 = getelementptr inbounds i32, i32* %5, i64 -1
  %26 = load i32, i32* %24, align 4, !tbaa !10
  %27 = load i32, i32* %13, align 4, !tbaa !10
  %28 = icmp ult i32 %26, %27
  %29 = load i32, i32* %25, align 4, !tbaa !10
  %30 = icmp ult i32 %29, %26
  br i1 %28, label %37, label %31

31:                                               ; preds = %23
  br i1 %30, label %32, label %263

32:                                               ; preds = %31
  store i32 %29, i32* %24, align 4, !tbaa !10
  store i32 %26, i32* %25, align 4, !tbaa !10
  %33 = load i32, i32* %24, align 4, !tbaa !10
  %34 = load i32, i32* %13, align 4, !tbaa !10
  %35 = icmp ult i32 %33, %34
  br i1 %35, label %36, label %263

36:                                               ; preds = %32
  store i32 %33, i32* %13, align 4, !tbaa !10
  store i32 %34, i32* %24, align 4, !tbaa !10
  br label %263

37:                                               ; preds = %23
  br i1 %30, label %38, label %39

38:                                               ; preds = %37
  store i32 %29, i32* %13, align 4, !tbaa !10
  store i32 %27, i32* %25, align 4, !tbaa !10
  br label %263

39:                                               ; preds = %37
  store i32 %26, i32* %13, align 4, !tbaa !10
  store i32 %27, i32* %24, align 4, !tbaa !10
  %40 = load i32, i32* %25, align 4, !tbaa !10
  %41 = icmp ult i32 %40, %27
  br i1 %41, label %42, label %263

42:                                               ; preds = %39
  store i32 %40, i32* %24, align 4, !tbaa !10
  store i32 %27, i32* %25, align 4, !tbaa !10
  br label %263

43:                                               ; preds = %12
  %44 = getelementptr inbounds i32, i32* %13, i64 1
  %45 = getelementptr inbounds i32, i32* %13, i64 2
  %46 = getelementptr inbounds i32, i32* %5, i64 -1
  %47 = load i32, i32* %44, align 4, !tbaa !10
  %48 = load i32, i32* %13, align 4, !tbaa !10
  %49 = icmp ult i32 %47, %48
  %50 = load i32, i32* %45, align 4, !tbaa !10
  %51 = icmp ult i32 %50, %47
  br i1 %49, label %56, label %52

52:                                               ; preds = %43
  br i1 %51, label %53, label %61

53:                                               ; preds = %52
  store i32 %50, i32* %44, align 4, !tbaa !10
  store i32 %47, i32* %45, align 4, !tbaa !10
  %54 = icmp ult i32 %50, %48
  br i1 %54, label %55, label %61

55:                                               ; preds = %53
  store i32 %50, i32* %13, align 4, !tbaa !10
  store i32 %48, i32* %44, align 4, !tbaa !10
  br label %61

56:                                               ; preds = %43
  br i1 %51, label %57, label %58

57:                                               ; preds = %56
  store i32 %50, i32* %13, align 4, !tbaa !10
  store i32 %48, i32* %45, align 4, !tbaa !10
  br label %61

58:                                               ; preds = %56
  store i32 %47, i32* %13, align 4, !tbaa !10
  store i32 %48, i32* %44, align 4, !tbaa !10
