; ModuleID = 'll/.ios.instantiations.cpp.o.bc'
source_filename = "/home/misha/sweet/repos/libcxx-llvm-ir/llvm-project/libcxx/src/ios.instantiations.cpp"
target datalayout = "e-m:e-p270:32:32-p271:32:32-p272:64:64-i64:64-f80:128-n8:16:32:64-S128"
target triple = "x86_64-unknown-linux-gnu"

%"class.std::__1::locale::id" = type <{ %"struct.std::__1::once_flag", i32, [4 x i8] }>
%"struct.std::__1::once_flag" = type { i64 }
%"class.std::__1::basic_ios" = type <{ %"class.std::__1::ios_base", %"class.std::__1::basic_ostream"*, i32, [4 x i8] }>
%"class.std::__1::ios_base" = type { i32 (...)**, i32, i64, i64, i32, i32, i8*, i8*, void (i32, %"class.std::__1::ios_base"*, i32)**, i32*, i64, i64, i64*, i64, i64, i8**, i64, i64 }
%"class.std::__1::basic_ostream" = type { i32 (...)**, %"class.std::__1::basic_ios.base" }
%"class.std::__1::basic_ios.base" = type <{ %"class.std::__1::ios_base", %"class.std::__1::basic_ostream"*, i32 }>
%"class.std::__1::basic_ios.0" = type <{ %"class.std::__1::ios_base", %"class.std::__1::basic_ostream.1"*, i32, [4 x i8] }>
%"class.std::__1::basic_ostream.1" = type { i32 (...)**, %"class.std::__1::basic_ios.base.2" }
%"class.std::__1::basic_ios.base.2" = type <{ %"class.std::__1::ios_base", %"class.std::__1::basic_ostream.1"*, i32 }>
%"class.std::__1::basic_streambuf" = type { i32 (...)**, %"class.std::__1::locale", i8*, i8*, i8*, i8*, i8*, i8* }
%"class.std::__1::locale" = type { %"class.std::__1::locale::__imp"* }
%"class.std::__1::locale::__imp" = type opaque
%"class.std::__1::basic_streambuf.4" = type { i32 (...)**, %"class.std::__1::locale", i32*, i32*, i32*, i32*, i32*, i32* }
%"class.std::__1::basic_istream<char, std::__1::char_traits<char>>::sentry" = type { i8 }
%"class.std::__1::basic_istream" = type { i32 (...)**, i64, %"class.std::__1::basic_ios.base" }
%"class.std::__1::basic_istream<wchar_t, std::__1::char_traits<wchar_t>>::sentry" = type { i8 }
%"class.std::__1::basic_istream.5" = type { i32 (...)**, i64, %"class.std::__1::basic_ios.base.2" }
%"class.std::__1::basic_ostream<char, std::__1::char_traits<char>>::sentry" = type { i8, %"class.std::__1::basic_ostream"* }
%"class.std::__1::basic_ostream<wchar_t, std::__1::char_traits<wchar_t>>::sentry" = type { i8, %"class.std::__1::basic_ostream.1"* }
%"class.std::__1::basic_stringbuf" = type <{ %"class.std::__1::basic_streambuf", %"class.std::__1::basic_string", i8*, i32, [4 x i8] }>
%"class.std::__1::basic_string" = type { %"class.std::__1::__compressed_pair" }
%"class.std::__1::__compressed_pair" = type { %"struct.std::__1::__compressed_pair_elem" }
%"struct.std::__1::__compressed_pair_elem" = type { %"struct.std::__1::basic_string<char, std::__1::char_traits<char>, std::__1::allocator<char>>::__rep" }
%"struct.std::__1::basic_string<char, std::__1::char_traits<char>, std::__1::allocator<char>>::__rep" = type { %union.anon.14 }
%union.anon.14 = type { %"struct.std::__1::basic_string<char, std::__1::char_traits<char>, std::__1::allocator<char>>::__long" }
%"struct.std::__1::basic_string<char, std::__1::char_traits<char>, std::__1::allocator<char>>::__long" = type { i64, i64, i8* }
%"class.std::__1::basic_filebuf" = type <{ %"class.std::__1::basic_streambuf", i8*, i8*, i8*, [8 x i8], i64, i8*, i64, %struct._IO_FILE*, %"class.std::__1::codecvt"*, %struct.__mbstate_t, %struct.__mbstate_t, i32, i32, i8, i8, i8, [5 x i8] }>
%struct._IO_FILE = type { i32, i8*, i8*, i8*, i8*, i8*, i8*, i8*, i8*, i8*, i8*, i8*, %struct._IO_marker*, %struct._IO_FILE*, i32, i32, i64, i16, i8, [1 x i8], i8*, i64, %struct._IO_codecvt*, %struct._IO_wide_data*, %struct._IO_FILE*, i8*, i64, i32, [20 x i8] }
%struct._IO_marker = type opaque
%struct._IO_codecvt = type opaque
%struct._IO_wide_data = type opaque
%"class.std::__1::codecvt" = type { %"class.std::__1::locale::facet" }
%"class.std::__1::locale::facet" = type { %"class.std::__1::__shared_count" }
%"class.std::__1::__shared_count" = type { i32 (...)**, i64 }
%struct.__mbstate_t = type { i32, %union.anon }
%union.anon = type { i32 }
%"class.std::__1::num_get" = type { %"class.std::__1::locale::facet" }
%"class.std::__1::ctype" = type <{ %"class.std::__1::locale::facet", i16*, i8, [7 x i8] }>
%"class.std::__1::ctype.7" = type { %"class.std::__1::locale::facet" }
%"class.std::__1::num_get.23" = type { %"class.std::__1::locale::facet" }
%"class.std::__1::num_put" = type { %"class.std::__1::locale::facet" }
%"class.std::__1::num_put.11" = type { %"class.std::__1::locale::facet" }
%"class.std::__1::basic_iostream" = type { %"class.std::__1::basic_istream.base", %"class.std::__1::basic_ostream.base", %"class.std::__1::basic_ios.base" }
%"class.std::__1::basic_istream.base" = type { i32 (...)**, i64 }
%"class.std::__1::basic_ostream.base" = type { i32 (...)** }
%"struct.std::__1::basic_string<char, std::__1::char_traits<char>, std::__1::allocator<char>>::__short" = type { %union.anon.15, [23 x i8] }
%union.anon.15 = type { i8 }
%"class.std::__1::__basic_string_common" = type { i8 }
%"class.std::__1::basic_stringstream" = type { %"class.std::__1::basic_iostream.base", %"class.std::__1::basic_stringbuf", %"class.std::__1::basic_ios.base" }
%"class.std::__1::basic_iostream.base" = type { %"class.std::__1::basic_istream.base", %"class.std::__1::basic_ostream.base" }
%"class.std::__1::basic_ostringstream" = type { %"class.std::__1::basic_ostream.base", %"class.std::__1::basic_stringbuf", %"class.std::__1::basic_ios.base" }
%"class.std::__1::basic_istringstream" = type { %"class.std::__1::basic_istream.base", %"class.std::__1::basic_stringbuf", %"class.std::__1::basic_ios.base" }
%"class.std::__1::basic_ifstream" = type { %"class.std::__1::basic_istream.base", %"class.std::__1::basic_filebuf", %"class.std::__1::basic_ios.base" }
%"class.std::__1::basic_ofstream" = type { %"class.std::__1::basic_ostream.base", %"class.std::__1::basic_filebuf", %"class.std::__1::basic_ios.base" }
%"class.std::bad_cast" = type { %"class.std::exception" }
%"class.std::exception" = type { i32 (...)** }

$_ZNSt3__19basic_iosIcNS_11char_traitsIcEEED5Ev = comdat any

$_ZNSt3__19basic_iosIcNS_11char_traitsIcEEE7copyfmtERKS3_ = comdat any

$_ZNSt3__19basic_iosIwNS_11char_traitsIwEEED5Ev = comdat any

$_ZNSt3__19basic_iosIwNS_11char_traitsIwEEE7copyfmtERKS3_ = comdat any

$_ZNSt3__115basic_streambufIcNS_11char_traitsIcEEED5Ev = comdat any

$_ZNSt3__115basic_streambufIcNS_11char_traitsIcEEE8pubimbueERKNS_6localeE = comdat any

$_ZNKSt3__115basic_streambufIcNS_11char_traitsIcEEE6getlocEv = comdat any

$_ZNSt3__115basic_streambufIcNS_11char_traitsIcEEE9pubsetbufEPcl = comdat any

$_ZNSt3__115basic_streambufIcNS_11char_traitsIcEEE10pubseekoffExNS_8ios_base7seekdirEj = comdat any

$_ZNSt3__115basic_streambufIcNS_11char_traitsIcEEE10pubseekposENS_4fposI11__mbstate_tEEj = comdat any

$_ZNSt3__115basic_streambufIcNS_11char_traitsIcEEE7pubsyncEv = comdat any

$_ZNSt3__115basic_streambufIcNS_11char_traitsIcEEE8in_availEv = comdat any

$_ZNSt3__115basic_streambufIcNS_11char_traitsIcEEE6snextcEv = comdat any

$_ZNSt3__115basic_streambufIcNS_11char_traitsIcEEE6sbumpcEv = comdat any

$_ZNSt3__115basic_streambufIcNS_11char_traitsIcEEE5sgetcEv = comdat any

$_ZNSt3__115basic_streambufIcNS_11char_traitsIcEEE5sgetnEPcl = comdat any

$_ZNSt3__115basic_streambufIcNS_11char_traitsIcEEE9sputbackcEc = comdat any

$_ZNSt3__115basic_streambufIcNS_11char_traitsIcEEE7sungetcEv = comdat any

$_ZNSt3__115basic_streambufIcNS_11char_traitsIcEEE5sputcEc = comdat any

$_ZNSt3__115basic_streambufIcNS_11char_traitsIcEEE5sputnEPKcl = comdat any

$_ZNSt3__115basic_streambufIcNS_11char_traitsIcEEEC5Ev = comdat any

$_ZNSt3__115basic_streambufIcNS_11char_traitsIcEEEC5ERKS3_ = comdat any

$_ZNSt3__115basic_streambufIcNS_11char_traitsIcEEEaSERKS3_ = comdat any

$_ZNSt3__115basic_streambufIcNS_11char_traitsIcEEE4swapERS3_ = comdat any

$_ZNSt3__115basic_streambufIcNS_11char_traitsIcEEE5gbumpEi = comdat any

$_ZNSt3__115basic_streambufIcNS_11char_traitsIcEEE4setgEPcS4_S4_ = comdat any

$_ZNSt3__115basic_streambufIcNS_11char_traitsIcEEE5pbumpEi = comdat any

$_ZNSt3__115basic_streambufIcNS_11char_traitsIcEEE4setpEPcS4_ = comdat any

$_ZNSt3__115basic_streambufIcNS_11char_traitsIcEEE5imbueERKNS_6localeE = comdat any

$_ZNSt3__115basic_streambufIcNS_11char_traitsIcEEE6setbufEPcl = comdat any

$_ZNSt3__115basic_streambufIcNS_11char_traitsIcEEE7seekoffExNS_8ios_base7seekdirEj = comdat any

$_ZNSt3__115basic_streambufIcNS_11char_traitsIcEEE7seekposENS_4fposI11__mbstate_tEEj = comdat any

$_ZNSt3__115basic_streambufIcNS_11char_traitsIcEEE4syncEv = comdat any

$_ZNSt3__115basic_streambufIcNS_11char_traitsIcEEE9showmanycEv = comdat any

$_ZNSt3__115basic_streambufIcNS_11char_traitsIcEEE6xsgetnEPcl = comdat any

$_ZNSt3__115basic_streambufIcNS_11char_traitsIcEEE9underflowEv = comdat any

$_ZNSt3__115basic_streambufIcNS_11char_traitsIcEEE5uflowEv = comdat any

$_ZNSt3__115basic_streambufIcNS_11char_traitsIcEEE9pbackfailEi = comdat any

$_ZNSt3__115basic_streambufIcNS_11char_traitsIcEEE6xsputnEPKcl = comdat any

$_ZNSt3__115basic_streambufIcNS_11char_traitsIcEEE8overflowEi = comdat any

$_ZNSt3__115basic_streambufIwNS_11char_traitsIwEEED5Ev = comdat any

$_ZNSt3__115basic_streambufIwNS_11char_traitsIwEEE8pubimbueERKNS_6localeE = comdat any

$_ZNKSt3__115basic_streambufIwNS_11char_traitsIwEEE6getlocEv = comdat any

$_ZNSt3__115basic_streambufIwNS_11char_traitsIwEEE9pubsetbufEPwl = comdat any

$_ZNSt3__115basic_streambufIwNS_11char_traitsIwEEE10pubseekoffExNS_8ios_base7seekdirEj = comdat any

$_ZNSt3__115basic_streambufIwNS_11char_traitsIwEEE10pubseekposENS_4fposI11__mbstate_tEEj = comdat any

$_ZNSt3__115basic_streambufIwNS_11char_traitsIwEEE7pubsyncEv = comdat any

$_ZNSt3__115basic_streambufIwNS_11char_traitsIwEEE8in_availEv = comdat any

$_ZNSt3__115basic_streambufIwNS_11char_traitsIwEEE6snextcEv = comdat any

$_ZNSt3__115basic_streambufIwNS_11char_traitsIwEEE6sbumpcEv = comdat any

$_ZNSt3__115basic_streambufIwNS_11char_traitsIwEEE5sgetcEv = comdat any

$_ZNSt3__115basic_streambufIwNS_11char_traitsIwEEE5sgetnEPwl = comdat any

$_ZNSt3__115basic_streambufIwNS_11char_traitsIwEEE9sputbackcEw = comdat any

$_ZNSt3__115basic_streambufIwNS_11char_traitsIwEEE7sungetcEv = comdat any

$_ZNSt3__115basic_streambufIwNS_11char_traitsIwEEE5sputcEw = comdat any

$_ZNSt3__115basic_streambufIwNS_11char_traitsIwEEE5sputnEPKwl = comdat any

$_ZNSt3__115basic_streambufIwNS_11char_traitsIwEEEC5Ev = comdat any

$_ZNSt3__115basic_streambufIwNS_11char_traitsIwEEEC5ERKS3_ = comdat any

$_ZNSt3__115basic_streambufIwNS_11char_traitsIwEEEaSERKS3_ = comdat any

$_ZNSt3__115basic_streambufIwNS_11char_traitsIwEEE4swapERS3_ = comdat any

$_ZNSt3__115basic_streambufIwNS_11char_traitsIwEEE5gbumpEi = comdat any

$_ZNSt3__115basic_streambufIwNS_11char_traitsIwEEE4setgEPwS4_S4_ = comdat any

$_ZNSt3__115basic_streambufIwNS_11char_traitsIwEEE5pbumpEi = comdat any

$_ZNSt3__115basic_streambufIwNS_11char_traitsIwEEE4setpEPwS4_ = comdat any

$_ZNSt3__115basic_streambufIwNS_11char_traitsIwEEE5imbueERKNS_6localeE = comdat any

$_ZNSt3__115basic_streambufIwNS_11char_traitsIwEEE6setbufEPwl = comdat any

$_ZNSt3__115basic_streambufIwNS_11char_traitsIwEEE7seekoffExNS_8ios_base7seekdirEj = comdat any

$_ZNSt3__115basic_streambufIwNS_11char_traitsIwEEE7seekposENS_4fposI11__mbstate_tEEj = comdat any

$_ZNSt3__115basic_streambufIwNS_11char_traitsIwEEE4syncEv = comdat any

$_ZNSt3__115basic_streambufIwNS_11char_traitsIwEEE9showmanycEv = comdat any

$_ZNSt3__115basic_streambufIwNS_11char_traitsIwEEE6xsgetnEPwl = comdat any

$_ZNSt3__115basic_streambufIwNS_11char_traitsIwEEE9underflowEv = comdat any

$_ZNSt3__115basic_streambufIwNS_11char_traitsIwEEE5uflowEv = comdat any

$_ZNSt3__115basic_streambufIwNS_11char_traitsIwEEE9pbackfailEj = comdat any

$_ZNSt3__115basic_streambufIwNS_11char_traitsIwEEE6xsputnEPKwl = comdat any

$_ZNSt3__115basic_streambufIwNS_11char_traitsIwEEE8overflowEj = comdat any

$_ZNSt3__113basic_istreamIcNS_11char_traitsIcEEEC2EPNS_15basic_streambufIcS2_EE = comdat any

$_ZNSt3__113basic_istreamIcNS_11char_traitsIcEEEC1EPNS_15basic_streambufIcS2_EE = comdat any

$_ZNSt3__113basic_istreamIcNS_11char_traitsIcEEED2Ev = comdat any

$_ZNSt3__113basic_istreamIcNS_11char_traitsIcEEED1Ev = comdat any

$_ZTv0_n24_NSt3__113basic_istreamIcNS_11char_traitsIcEEED1Ev = comdat any

$_ZNSt3__113basic_istreamIcNS_11char_traitsIcEEED0Ev = comdat any

$_ZTv0_n24_NSt3__113basic_istreamIcNS_11char_traitsIcEEED0Ev = comdat any

$_ZNSt3__113basic_istreamIcNS_11char_traitsIcEEE4swapERS3_ = comdat any

$_ZNSt3__113basic_istreamIcNS_11char_traitsIcEEE6sentryC5ERS3_b = comdat any

$_ZNSt3__113basic_ostreamIcNS_11char_traitsIcEEE5flushEv = comdat any

$_ZNSt3__113basic_istreamIcNS_11char_traitsIcEEErsEPFRS3_S4_E = comdat any

$_ZNSt3__113basic_istreamIcNS_11char_traitsIcEEErsEPFRNS_9basic_iosIcS2_EES6_E = comdat any

$_ZNSt3__113basic_istreamIcNS_11char_traitsIcEEErsEPFRNS_8ios_baseES5_E = comdat any

$_ZNSt3__113basic_istreamIcNS_11char_traitsIcEEErsEPNS_15basic_streambufIcS2_EE = comdat any

$__clang_call_terminate = comdat any

$_ZNSt3__113basic_istreamIcNS_11char_traitsIcEEErsERb = comdat any

$_ZNSt3__118__input_arithmeticIbcNS_11char_traitsIcEEEERNS_13basic_istreamIT0_T1_EES7_RT_ = comdat any

$_ZNSt3__113basic_istreamIcNS_11char_traitsIcEEErsERs = comdat any

$_ZNSt3__138__input_arithmetic_with_numeric_limitsIscNS_11char_traitsIcEEEERNS_13basic_istreamIT0_T1_EES7_RT_ = comdat any

$_ZNSt3__113basic_istreamIcNS_11char_traitsIcEEErsERt = comdat any

$_ZNSt3__118__input_arithmeticItcNS_11char_traitsIcEEEERNS_13basic_istreamIT0_T1_EES7_RT_ = comdat any

$_ZNSt3__113basic_istreamIcNS_11char_traitsIcEEErsERi = comdat any

$_ZNSt3__138__input_arithmetic_with_numeric_limitsIicNS_11char_traitsIcEEEERNS_13basic_istreamIT0_T1_EES7_RT_ = comdat any

$_ZNSt3__113basic_istreamIcNS_11char_traitsIcEEErsERj = comdat any

$_ZNSt3__118__input_arithmeticIjcNS_11char_traitsIcEEEERNS_13basic_istreamIT0_T1_EES7_RT_ = comdat any

$_ZNSt3__113basic_istreamIcNS_11char_traitsIcEEErsERl = comdat any

$_ZNSt3__118__input_arithmeticIlcNS_11char_traitsIcEEEERNS_13basic_istreamIT0_T1_EES7_RT_ = comdat any

$_ZNSt3__113basic_istreamIcNS_11char_traitsIcEEErsERm = comdat any

$_ZNSt3__118__input_arithmeticImcNS_11char_traitsIcEEEERNS_13basic_istreamIT0_T1_EES7_RT_ = comdat any

$_ZNSt3__113basic_istreamIcNS_11char_traitsIcEEErsERx = comdat any

$_ZNSt3__118__input_arithmeticIxcNS_11char_traitsIcEEEERNS_13basic_istreamIT0_T1_EES7_RT_ = comdat any

$_ZNSt3__113basic_istreamIcNS_11char_traitsIcEEErsERy = comdat any

$_ZNSt3__118__input_arithmeticIycNS_11char_traitsIcEEEERNS_13basic_istreamIT0_T1_EES7_RT_ = comdat any

$_ZNSt3__113basic_istreamIcNS_11char_traitsIcEEErsERf = comdat any

$_ZNSt3__118__input_arithmeticIfcNS_11char_traitsIcEEEERNS_13basic_istreamIT0_T1_EES7_RT_ = comdat any

$_ZNSt3__113basic_istreamIcNS_11char_traitsIcEEErsERd = comdat any

$_ZNSt3__118__input_arithmeticIdcNS_11char_traitsIcEEEERNS_13basic_istreamIT0_T1_EES7_RT_ = comdat any

$_ZNSt3__113basic_istreamIcNS_11char_traitsIcEEErsERe = comdat any

$_ZNSt3__118__input_arithmeticIecNS_11char_traitsIcEEEERNS_13basic_istreamIT0_T1_EES7_RT_ = comdat any

$_ZNSt3__113basic_istreamIcNS_11char_traitsIcEEErsERPv = comdat any

$_ZNSt3__118__input_arithmeticIPvcNS_11char_traitsIcEEEERNS_13basic_istreamIT0_T1_EES8_RT_ = comdat any

$_ZNSt3__113basic_istreamIcNS_11char_traitsIcEEE3getEv = comdat any

$_ZNSt3__113basic_istreamIcNS_11char_traitsIcEEE3getERc = comdat any

$_ZNSt3__113basic_istreamIcNS_11char_traitsIcEEE3getEPcl = comdat any

$_ZNSt3__113basic_istreamIcNS_11char_traitsIcEEE3getEPclc = comdat any

$_ZNSt3__113basic_istreamIcNS_11char_traitsIcEEE3getERNS_15basic_streambufIcS2_EE = comdat any

$_ZNSt3__113basic_istreamIcNS_11char_traitsIcEEE3getERNS_15basic_streambufIcS2_EEc = comdat any

$_ZNSt3__113basic_istreamIcNS_11char_traitsIcEEE7getlineEPcl = comdat any

$_ZNSt3__113basic_istreamIcNS_11char_traitsIcEEE7getlineEPclc = comdat any

$_ZNSt3__113basic_istreamIcNS_11char_traitsIcEEE6ignoreEli = comdat any

$_ZNSt3__113basic_istreamIcNS_11char_traitsIcEEE4peekEv = comdat any

$_ZNSt3__113basic_istreamIcNS_11char_traitsIcEEE4readEPcl = comdat any

$_ZNSt3__113basic_istreamIcNS_11char_traitsIcEEE8readsomeEPcl = comdat any

$_ZNSt3__113basic_istreamIcNS_11char_traitsIcEEE7putbackEc = comdat any

$_ZNSt3__113basic_istreamIcNS_11char_traitsIcEEE5ungetEv = comdat any

$_ZNSt3__113basic_istreamIcNS_11char_traitsIcEEE4syncEv = comdat any

$_ZNSt3__113basic_istreamIcNS_11char_traitsIcEEE5tellgEv = comdat any

$_ZNSt3__113basic_istreamIcNS_11char_traitsIcEEE5seekgENS_4fposI11__mbstate_tEE = comdat any

$_ZNSt3__113basic_istreamIcNS_11char_traitsIcEEE5seekgExNS_8ios_base7seekdirE = comdat any

$_ZNSt3__113basic_istreamIwNS_11char_traitsIwEEEC2EPNS_15basic_streambufIwS2_EE = comdat any

$_ZNSt3__113basic_istreamIwNS_11char_traitsIwEEEC1EPNS_15basic_streambufIwS2_EE = comdat any

$_ZNSt3__113basic_istreamIwNS_11char_traitsIwEEED2Ev = comdat any

$_ZNSt3__113basic_istreamIwNS_11char_traitsIwEEED1Ev = comdat any

$_ZTv0_n24_NSt3__113basic_istreamIwNS_11char_traitsIwEEED1Ev = comdat any

$_ZNSt3__113basic_istreamIwNS_11char_traitsIwEEED0Ev = comdat any

$_ZTv0_n24_NSt3__113basic_istreamIwNS_11char_traitsIwEEED0Ev = comdat any

$_ZNSt3__113basic_istreamIwNS_11char_traitsIwEEE4swapERS3_ = comdat any

$_ZNSt3__113basic_istreamIwNS_11char_traitsIwEEE6sentryC5ERS3_b = comdat any

$_ZNSt3__113basic_ostreamIwNS_11char_traitsIwEEE5flushEv = comdat any

$_ZNSt3__113basic_istreamIwNS_11char_traitsIwEEErsEPFRS3_S4_E = comdat any

$_ZNSt3__113basic_istreamIwNS_11char_traitsIwEEErsEPFRNS_9basic_iosIwS2_EES6_E = comdat any

$_ZNSt3__113basic_istreamIwNS_11char_traitsIwEEErsEPFRNS_8ios_baseES5_E = comdat any

$_ZNSt3__113basic_istreamIwNS_11char_traitsIwEEErsEPNS_15basic_streambufIwS2_EE = comdat any

$_ZNSt3__113basic_istreamIwNS_11char_traitsIwEEErsERb = comdat any

$_ZNSt3__118__input_arithmeticIbwNS_11char_traitsIwEEEERNS_13basic_istreamIT0_T1_EES7_RT_ = comdat any

$_ZNSt3__113basic_istreamIwNS_11char_traitsIwEEErsERs = comdat any

$_ZNSt3__138__input_arithmetic_with_numeric_limitsIswNS_11char_traitsIwEEEERNS_13basic_istreamIT0_T1_EES7_RT_ = comdat any

$_ZNSt3__113basic_istreamIwNS_11char_traitsIwEEErsERt = comdat any

$_ZNSt3__118__input_arithmeticItwNS_11char_traitsIwEEEERNS_13basic_istreamIT0_T1_EES7_RT_ = comdat any

$_ZNSt3__113basic_istreamIwNS_11char_traitsIwEEErsERi = comdat any

$_ZNSt3__138__input_arithmetic_with_numeric_limitsIiwNS_11char_traitsIwEEEERNS_13basic_istreamIT0_T1_EES7_RT_ = comdat any

$_ZNSt3__113basic_istreamIwNS_11char_traitsIwEEErsERj = comdat any

$_ZNSt3__118__input_arithmeticIjwNS_11char_traitsIwEEEERNS_13basic_istreamIT0_T1_EES7_RT_ = comdat any

$_ZNSt3__113basic_istreamIwNS_11char_traitsIwEEErsERl = comdat any

$_ZNSt3__118__input_arithmeticIlwNS_11char_traitsIwEEEERNS_13basic_istreamIT0_T1_EES7_RT_ = comdat any

$_ZNSt3__113basic_istreamIwNS_11char_traitsIwEEErsERm = comdat any

$_ZNSt3__118__input_arithmeticImwNS_11char_traitsIwEEEERNS_13basic_istreamIT0_T1_EES7_RT_ = comdat any

$_ZNSt3__113basic_istreamIwNS_11char_traitsIwEEErsERx = comdat any

$_ZNSt3__118__input_arithmeticIxwNS_11char_traitsIwEEEERNS_13basic_istreamIT0_T1_EES7_RT_ = comdat any

$_ZNSt3__113basic_istreamIwNS_11char_traitsIwEEErsERy = comdat any

$_ZNSt3__118__input_arithmeticIywNS_11char_traitsIwEEEERNS_13basic_istreamIT0_T1_EES7_RT_ = comdat any

$_ZNSt3__113basic_istreamIwNS_11char_traitsIwEEErsERf = comdat any

$_ZNSt3__118__input_arithmeticIfwNS_11char_traitsIwEEEERNS_13basic_istreamIT0_T1_EES7_RT_ = comdat any

$_ZNSt3__113basic_istreamIwNS_11char_traitsIwEEErsERd = comdat any

$_ZNSt3__118__input_arithmeticIdwNS_11char_traitsIwEEEERNS_13basic_istreamIT0_T1_EES7_RT_ = comdat any

$_ZNSt3__113basic_istreamIwNS_11char_traitsIwEEErsERe = comdat any

$_ZNSt3__118__input_arithmeticIewNS_11char_traitsIwEEEERNS_13basic_istreamIT0_T1_EES7_RT_ = comdat any

$_ZNSt3__113basic_istreamIwNS_11char_traitsIwEEErsERPv = comdat any

$_ZNSt3__118__input_arithmeticIPvwNS_11char_traitsIwEEEERNS_13basic_istreamIT0_T1_EES8_RT_ = comdat any

$_ZNSt3__113basic_istreamIwNS_11char_traitsIwEEE3getEv = comdat any

$_ZNSt3__113basic_istreamIwNS_11char_traitsIwEEE3getERw = comdat any

$_ZNSt3__113basic_istreamIwNS_11char_traitsIwEEE3getEPwl = comdat any

$_ZNSt3__113basic_istreamIwNS_11char_traitsIwEEE3getEPwlw = comdat any

$_ZNSt3__113basic_istreamIwNS_11char_traitsIwEEE3getERNS_15basic_streambufIwS2_EE = comdat any

$_ZNSt3__113basic_istreamIwNS_11char_traitsIwEEE3getERNS_15basic_streambufIwS2_EEw = comdat any

$_ZNSt3__113basic_istreamIwNS_11char_traitsIwEEE7getlineEPwl = comdat any

$_ZNSt3__113basic_istreamIwNS_11char_traitsIwEEE7getlineEPwlw = comdat any

$_ZNSt3__113basic_istreamIwNS_11char_traitsIwEEE6ignoreElj = comdat any

$_ZNSt3__113basic_istreamIwNS_11char_traitsIwEEE4peekEv = comdat any

$_ZNSt3__113basic_istreamIwNS_11char_traitsIwEEE4readEPwl = comdat any

$_ZNSt3__113basic_istreamIwNS_11char_traitsIwEEE8readsomeEPwl = comdat any

$_ZNSt3__113basic_istreamIwNS_11char_traitsIwEEE7putbackEw = comdat any

$_ZNSt3__113basic_istreamIwNS_11char_traitsIwEEE5ungetEv = comdat any

$_ZNSt3__113basic_istreamIwNS_11char_traitsIwEEE4syncEv = comdat any

$_ZNSt3__113basic_istreamIwNS_11char_traitsIwEEE5tellgEv = comdat any

$_ZNSt3__113basic_istreamIwNS_11char_traitsIwEEE5seekgENS_4fposI11__mbstate_tEE = comdat any

$_ZNSt3__113basic_istreamIwNS_11char_traitsIwEEE5seekgExNS_8ios_base7seekdirE = comdat any

$_ZNSt3__113basic_ostreamIcNS_11char_traitsIcEEEC2EPNS_15basic_streambufIcS2_EE = comdat any

$_ZNSt3__113basic_ostreamIcNS_11char_traitsIcEEEC1EPNS_15basic_streambufIcS2_EE = comdat any

$_ZNSt3__113basic_ostreamIcNS_11char_traitsIcEEED2Ev = comdat any

$_ZNSt3__113basic_ostreamIcNS_11char_traitsIcEEED1Ev = comdat any

$_ZTv0_n24_NSt3__113basic_ostreamIcNS_11char_traitsIcEEED1Ev = comdat any

$_ZNSt3__113basic_ostreamIcNS_11char_traitsIcEEED0Ev = comdat any

$_ZTv0_n24_NSt3__113basic_ostreamIcNS_11char_traitsIcEEED0Ev = comdat any

$_ZNSt3__113basic_ostreamIcNS_11char_traitsIcEEE4swapERS3_ = comdat any

$_ZNSt3__113basic_ostreamIcNS_11char_traitsIcEEE6sentryC5ERS3_ = comdat any

$_ZNSt3__113basic_ostreamIcNS_11char_traitsIcEEE6sentryD5Ev = comdat any

$_ZNSt3__113basic_ostreamIcNS_11char_traitsIcEEElsEPFRS3_S4_E = comdat any

$_ZNSt3__113basic_ostreamIcNS_11char_traitsIcEEElsEPFRNS_9basic_iosIcS2_EES6_E = comdat any

$_ZNSt3__113basic_ostreamIcNS_11char_traitsIcEEElsEPFRNS_8ios_baseES5_E = comdat any

$_ZNSt3__113basic_ostreamIcNS_11char_traitsIcEEElsEb = comdat any

$_ZNSt3__113basic_ostreamIcNS_11char_traitsIcEEElsEs = comdat any

$_ZNSt3__113basic_ostreamIcNS_11char_traitsIcEEElsEt = comdat any

$_ZNSt3__113basic_ostreamIcNS_11char_traitsIcEEElsEi = comdat any

$_ZNSt3__113basic_ostreamIcNS_11char_traitsIcEEElsEj = comdat any

$_ZNSt3__113basic_ostreamIcNS_11char_traitsIcEEElsEl = comdat any

$_ZNSt3__113basic_ostreamIcNS_11char_traitsIcEEElsEm = comdat any

$_ZNSt3__113basic_ostreamIcNS_11char_traitsIcEEElsEx = comdat any

$_ZNSt3__113basic_ostreamIcNS_11char_traitsIcEEElsEy = comdat any

$_ZNSt3__113basic_ostreamIcNS_11char_traitsIcEEElsEf = comdat any

$_ZNSt3__113basic_ostreamIcNS_11char_traitsIcEEElsEd = comdat any

$_ZNSt3__113basic_ostreamIcNS_11char_traitsIcEEElsEe = comdat any

$_ZNSt3__113basic_ostreamIcNS_11char_traitsIcEEElsEPKv = comdat any

$_ZNSt3__113basic_ostreamIcNS_11char_traitsIcEEElsEPNS_15basic_streambufIcS2_EE = comdat any

$_ZNSt3__113basic_ostreamIcNS_11char_traitsIcEEE3putEc = comdat any

$_ZNSt3__113basic_ostreamIcNS_11char_traitsIcEEE5writeEPKcl = comdat any

$_ZNSt3__113basic_ostreamIcNS_11char_traitsIcEEE5tellpEv = comdat any

$_ZNSt3__113basic_ostreamIcNS_11char_traitsIcEEE5seekpENS_4fposI11__mbstate_tEE = comdat any

$_ZNSt3__113basic_ostreamIcNS_11char_traitsIcEEE5seekpExNS_8ios_base7seekdirE = comdat any

$_ZNSt3__113basic_ostreamIwNS_11char_traitsIwEEEC2EPNS_15basic_streambufIwS2_EE = comdat any

$_ZNSt3__113basic_ostreamIwNS_11char_traitsIwEEEC1EPNS_15basic_streambufIwS2_EE = comdat any

$_ZNSt3__113basic_ostreamIwNS_11char_traitsIwEEED2Ev = comdat any

$_ZNSt3__113basic_ostreamIwNS_11char_traitsIwEEED1Ev = comdat any

$_ZTv0_n24_NSt3__113basic_ostreamIwNS_11char_traitsIwEEED1Ev = comdat any

$_ZNSt3__113basic_ostreamIwNS_11char_traitsIwEEED0Ev = comdat any

$_ZTv0_n24_NSt3__113basic_ostreamIwNS_11char_traitsIwEEED0Ev = comdat any

$_ZNSt3__113basic_ostreamIwNS_11char_traitsIwEEE4swapERS3_ = comdat any

$_ZNSt3__113basic_ostreamIwNS_11char_traitsIwEEE6sentryC5ERS3_ = comdat any

$_ZNSt3__113basic_ostreamIwNS_11char_traitsIwEEE6sentryD5Ev = comdat any

$_ZNSt3__113basic_ostreamIwNS_11char_traitsIwEEElsEPFRS3_S4_E = comdat any

$_ZNSt3__113basic_ostreamIwNS_11char_traitsIwEEElsEPFRNS_9basic_iosIwS2_EES6_E = comdat any

$_ZNSt3__113basic_ostreamIwNS_11char_traitsIwEEElsEPFRNS_8ios_baseES5_E = comdat any

$_ZNSt3__113basic_ostreamIwNS_11char_traitsIwEEElsEb = comdat any

$_ZNSt3__113basic_ostreamIwNS_11char_traitsIwEEElsEs = comdat any

$_ZNSt3__113basic_ostreamIwNS_11char_traitsIwEEElsEt = comdat any

$_ZNSt3__113basic_ostreamIwNS_11char_traitsIwEEElsEi = comdat any

$_ZNSt3__113basic_ostreamIwNS_11char_traitsIwEEElsEj = comdat any

$_ZNSt3__113basic_ostreamIwNS_11char_traitsIwEEElsEl = comdat any

$_ZNSt3__113basic_ostreamIwNS_11char_traitsIwEEElsEm = comdat any

$_ZNSt3__113basic_ostreamIwNS_11char_traitsIwEEElsEx = comdat any

$_ZNSt3__113basic_ostreamIwNS_11char_traitsIwEEElsEy = comdat any

$_ZNSt3__113basic_ostreamIwNS_11char_traitsIwEEElsEf = comdat any

$_ZNSt3__113basic_ostreamIwNS_11char_traitsIwEEElsEd = comdat any

$_ZNSt3__113basic_ostreamIwNS_11char_traitsIwEEElsEe = comdat any

$_ZNSt3__113basic_ostreamIwNS_11char_traitsIwEEElsEPKv = comdat any

$_ZNSt3__113basic_ostreamIwNS_11char_traitsIwEEElsEPNS_15basic_streambufIwS2_EE = comdat any

$_ZNSt3__113basic_ostreamIwNS_11char_traitsIwEEE3putEw = comdat any

$_ZNSt3__113basic_ostreamIwNS_11char_traitsIwEEE5writeEPKwl = comdat any

$_ZNSt3__113basic_ostreamIwNS_11char_traitsIwEEE5tellpEv = comdat any

$_ZNSt3__113basic_ostreamIwNS_11char_traitsIwEEE5seekpENS_4fposI11__mbstate_tEE = comdat any

$_ZNSt3__113basic_ostreamIwNS_11char_traitsIwEEE5seekpExNS_8ios_base7seekdirE = comdat any

$_ZNSt3__114basic_iostreamIcNS_11char_traitsIcEEEC2EPNS_15basic_streambufIcS2_EE = comdat any

$_ZNSt3__114basic_iostreamIcNS_11char_traitsIcEEEC1EPNS_15basic_streambufIcS2_EE = comdat any

$_ZNSt3__114basic_iostreamIcNS_11char_traitsIcEEED2Ev = comdat any

$_ZNSt3__114basic_iostreamIcNS_11char_traitsIcEEED1Ev = comdat any

$_ZThn16_NSt3__114basic_iostreamIcNS_11char_traitsIcEEED1Ev = comdat any

$_ZTv0_n24_NSt3__114basic_iostreamIcNS_11char_traitsIcEEED1Ev = comdat any

$_ZNSt3__114basic_iostreamIcNS_11char_traitsIcEEED0Ev = comdat any

$_ZThn16_NSt3__114basic_iostreamIcNS_11char_traitsIcEEED0Ev = comdat any

$_ZTv0_n24_NSt3__114basic_iostreamIcNS_11char_traitsIcEEED0Ev = comdat any

$_ZNSt3__114basic_iostreamIcNS_11char_traitsIcEEE4swapERS3_ = comdat any

$_ZNSt3__115basic_stringbufIcNS_11char_traitsIcEENS_9allocatorIcEEEC5EOS5_ = comdat any

$_ZNSt3__115basic_stringbufIcNS_11char_traitsIcEENS_9allocatorIcEEEaSEOS5_ = comdat any

$_ZNSt3__115basic_stringbufIcNS_11char_traitsIcEENS_9allocatorIcEEE4swapERS5_ = comdat any

$_ZNKSt3__115basic_stringbufIcNS_11char_traitsIcEENS_9allocatorIcEEE3strEv = comdat any

$_ZNSt3__115basic_stringbufIcNS_11char_traitsIcEENS_9allocatorIcEEE3strERKNS_12basic_stringIcS2_S4_EE = comdat any

$_ZNSt3__115basic_stringbufIcNS_11char_traitsIcEENS_9allocatorIcEEE9underflowEv = comdat any

$_ZNSt3__115basic_stringbufIcNS_11char_traitsIcEENS_9allocatorIcEEE9pbackfailEi = comdat any

$_ZNSt3__115basic_stringbufIcNS_11char_traitsIcEENS_9allocatorIcEEE8overflowEi = comdat any

$_ZNSt3__115basic_stringbufIcNS_11char_traitsIcEENS_9allocatorIcEEE7seekoffExNS_8ios_base7seekdirEj = comdat any

$_ZNSt3__118basic_stringstreamIcNS_11char_traitsIcEENS_9allocatorIcEEEaSEOS5_ = comdat any

$_ZNSt3__119basic_ostringstreamIcNS_11char_traitsIcEENS_9allocatorIcEEEaSEOS5_ = comdat any

$_ZNSt3__119basic_istringstreamIcNS_11char_traitsIcEENS_9allocatorIcEEEaSEOS5_ = comdat any

$_ZNSt3__114basic_ifstreamIcNS_11char_traitsIcEEE4openEPKcj = comdat any

$_ZNSt3__113basic_filebufIcNS_11char_traitsIcEEE4openEPKcj = comdat any

$_ZNSt3__114basic_ifstreamIcNS_11char_traitsIcEEE4openERKNS_12basic_stringIcS2_NS_9allocatorIcEEEEj = comdat any

$_ZNSt3__114basic_ofstreamIcNS_11char_traitsIcEEE4openEPKcj = comdat any

$_ZNSt3__114basic_ofstreamIcNS_11char_traitsIcEEE4openERKNS_12basic_stringIcS2_NS_9allocatorIcEEEEj = comdat any

$_ZNSt3__113basic_filebufIcNS_11char_traitsIcEEEC5Ev = comdat any

$_ZNSt3__113basic_filebufIcNS_11char_traitsIcEEEC5EOS3_ = comdat any

$_ZNSt3__113basic_filebufIcNS_11char_traitsIcEEED5Ev = comdat any

$_ZNSt3__113basic_filebufIcNS_11char_traitsIcEEE5closeEv = comdat any

$_ZNSt3__113basic_filebufIcNS_11char_traitsIcEEE4swapERS3_ = comdat any

$_ZNSt3__113basic_filebufIcNS_11char_traitsIcEEE9underflowEv = comdat any

$_ZNSt3__113basic_filebufIcNS_11char_traitsIcEEE11__read_modeEv = comdat any

$_ZNSt3__116__throw_bad_castEv = comdat any

$_ZNSt3__113basic_filebufIcNS_11char_traitsIcEEE9pbackfailEi = comdat any

$_ZNSt3__113basic_filebufIcNS_11char_traitsIcEEE8overflowEi = comdat any

$_ZNSt3__113basic_filebufIcNS_11char_traitsIcEEE12__write_modeEv = comdat any

$_ZNSt3__113basic_filebufIcNS_11char_traitsIcEEE6setbufEPcl = comdat any

$_ZNSt3__113basic_filebufIcNS_11char_traitsIcEEE7seekoffExNS_8ios_base7seekdirEj = comdat any

$_ZNSt3__113basic_filebufIcNS_11char_traitsIcEEE7seekposENS_4fposI11__mbstate_tEEj = comdat any

$_ZNSt3__113basic_filebufIcNS_11char_traitsIcEEE4syncEv = comdat any

$_ZNSt3__113basic_filebufIcNS_11char_traitsIcEEE5imbueERKNS_6localeE = comdat any

$_ZNSt3__115basic_stringbufIcNS_11char_traitsIcEENS_9allocatorIcEEED2Ev = comdat any

$_ZNSt3__115basic_stringbufIcNS_11char_traitsIcEENS_9allocatorIcEEED0Ev = comdat any

$_ZNSt3__115basic_stringbufIcNS_11char_traitsIcEENS_9allocatorIcEEE7seekposENS_4fposI11__mbstate_tEEj = comdat any

$_ZNSt3__118basic_stringstreamIcNS_11char_traitsIcEENS_9allocatorIcEEED1Ev = comdat any

$_ZNSt3__118basic_stringstreamIcNS_11char_traitsIcEENS_9allocatorIcEEED0Ev = comdat any

$_ZThn16_NSt3__118basic_stringstreamIcNS_11char_traitsIcEENS_9allocatorIcEEED1Ev = comdat any

$_ZThn16_NSt3__118basic_stringstreamIcNS_11char_traitsIcEENS_9allocatorIcEEED0Ev = comdat any

$_ZTv0_n24_NSt3__118basic_stringstreamIcNS_11char_traitsIcEENS_9allocatorIcEEED1Ev = comdat any

$_ZTv0_n24_NSt3__118basic_stringstreamIcNS_11char_traitsIcEENS_9allocatorIcEEED0Ev = comdat any

$_ZNSt3__119basic_ostringstreamIcNS_11char_traitsIcEENS_9allocatorIcEEED1Ev = comdat any

$_ZNSt3__119basic_ostringstreamIcNS_11char_traitsIcEENS_9allocatorIcEEED0Ev = comdat any

$_ZTv0_n24_NSt3__119basic_ostringstreamIcNS_11char_traitsIcEENS_9allocatorIcEEED1Ev = comdat any

$_ZTv0_n24_NSt3__119basic_ostringstreamIcNS_11char_traitsIcEENS_9allocatorIcEEED0Ev = comdat any

$_ZNSt3__119basic_istringstreamIcNS_11char_traitsIcEENS_9allocatorIcEEED1Ev = comdat any

$_ZNSt3__119basic_istringstreamIcNS_11char_traitsIcEENS_9allocatorIcEEED0Ev = comdat any

$_ZTv0_n24_NSt3__119basic_istringstreamIcNS_11char_traitsIcEENS_9allocatorIcEEED1Ev = comdat any

$_ZTv0_n24_NSt3__119basic_istringstreamIcNS_11char_traitsIcEENS_9allocatorIcEEED0Ev = comdat any

$_ZNSt3__114basic_ifstreamIcNS_11char_traitsIcEEED1Ev = comdat any

$_ZNSt3__114basic_ifstreamIcNS_11char_traitsIcEEED0Ev = comdat any

$_ZTv0_n24_NSt3__114basic_ifstreamIcNS_11char_traitsIcEEED1Ev = comdat any

$_ZTv0_n24_NSt3__114basic_ifstreamIcNS_11char_traitsIcEEED0Ev = comdat any

$_ZNSt3__114basic_ofstreamIcNS_11char_traitsIcEEED1Ev = comdat any

$_ZNSt3__114basic_ofstreamIcNS_11char_traitsIcEEED0Ev = comdat any

$_ZTv0_n24_NSt3__114basic_ofstreamIcNS_11char_traitsIcEEED1Ev = comdat any

$_ZTv0_n24_NSt3__114basic_ofstreamIcNS_11char_traitsIcEEED0Ev = comdat any

$_ZTVNSt3__115basic_streambufIcNS_11char_traitsIcEEEE = comdat any

$_ZTVNSt3__115basic_streambufIwNS_11char_traitsIwEEEE = comdat any

$_ZTVNSt3__113basic_istreamIcNS_11char_traitsIcEEEE = comdat any

$_ZTTNSt3__113basic_istreamIcNS_11char_traitsIcEEEE = comdat any

$_ZTVNSt3__113basic_istreamIwNS_11char_traitsIwEEEE = comdat any

$_ZTTNSt3__113basic_istreamIwNS_11char_traitsIwEEEE = comdat any

$_ZTVNSt3__113basic_ostreamIcNS_11char_traitsIcEEEE = comdat any

$_ZTTNSt3__113basic_ostreamIcNS_11char_traitsIcEEEE = comdat any

$_ZTVNSt3__113basic_ostreamIwNS_11char_traitsIwEEEE = comdat any

$_ZTTNSt3__113basic_ostreamIwNS_11char_traitsIwEEEE = comdat any

$_ZTVNSt3__114basic_iostreamIcNS_11char_traitsIcEEEE = comdat any

$_ZTTNSt3__114basic_iostreamIcNS_11char_traitsIcEEEE = comdat any

$_ZTVNSt3__115basic_stringbufIcNS_11char_traitsIcEENS_9allocatorIcEEEE = comdat any

$_ZTVNSt3__113basic_filebufIcNS_11char_traitsIcEEEE = comdat any

$_ZTVNSt3__19basic_iosIcNS_11char_traitsIcEEEE = comdat any

$_ZTSNSt3__19basic_iosIcNS_11char_traitsIcEEEE = comdat any

$_ZTINSt3__19basic_iosIcNS_11char_traitsIcEEEE = comdat any

$_ZTVNSt3__19basic_iosIwNS_11char_traitsIwEEEE = comdat any

$_ZTSNSt3__19basic_iosIwNS_11char_traitsIwEEEE = comdat any

$_ZTINSt3__19basic_iosIwNS_11char_traitsIwEEEE = comdat any

$_ZTSNSt3__115basic_streambufIcNS_11char_traitsIcEEEE = comdat any

$_ZTINSt3__115basic_streambufIcNS_11char_traitsIcEEEE = comdat any

$_ZTSNSt3__115basic_streambufIwNS_11char_traitsIwEEEE = comdat any

$_ZTINSt3__115basic_streambufIwNS_11char_traitsIwEEEE = comdat any

$_ZTSNSt3__113basic_istreamIcNS_11char_traitsIcEEEE = comdat any

$_ZTINSt3__113basic_istreamIcNS_11char_traitsIcEEEE = comdat any

$_ZTSNSt3__113basic_istreamIwNS_11char_traitsIwEEEE = comdat any

$_ZTINSt3__113basic_istreamIwNS_11char_traitsIwEEEE = comdat any

$_ZTSNSt3__113basic_ostreamIcNS_11char_traitsIcEEEE = comdat any

$_ZTINSt3__113basic_ostreamIcNS_11char_traitsIcEEEE = comdat any

$_ZTSNSt3__113basic_ostreamIwNS_11char_traitsIwEEEE = comdat any

$_ZTINSt3__113basic_ostreamIwNS_11char_traitsIwEEEE = comdat any

$_ZTCNSt3__114basic_iostreamIcNS_11char_traitsIcEEEE0_NS_13basic_istreamIcS2_EE = comdat any

$_ZTCNSt3__114basic_iostreamIcNS_11char_traitsIcEEEE16_NS_13basic_ostreamIcS2_EE = comdat any

$_ZTSNSt3__114basic_iostreamIcNS_11char_traitsIcEEEE = comdat any

$_ZTINSt3__114basic_iostreamIcNS_11char_traitsIcEEEE = comdat any

$_ZTSNSt3__115basic_stringbufIcNS_11char_traitsIcEENS_9allocatorIcEEEE = comdat any

$_ZTINSt3__115basic_stringbufIcNS_11char_traitsIcEENS_9allocatorIcEEEE = comdat any

$_ZTVNSt3__118basic_stringstreamIcNS_11char_traitsIcEENS_9allocatorIcEEEE = comdat any

$_ZTTNSt3__118basic_stringstreamIcNS_11char_traitsIcEENS_9allocatorIcEEEE = comdat any

$_ZTCNSt3__118basic_stringstreamIcNS_11char_traitsIcEENS_9allocatorIcEEEE0_NS_14basic_iostreamIcS2_EE = comdat any

$_ZTCNSt3__118basic_stringstreamIcNS_11char_traitsIcEENS_9allocatorIcEEEE0_NS_13basic_istreamIcS2_EE = comdat any

$_ZTCNSt3__118basic_stringstreamIcNS_11char_traitsIcEENS_9allocatorIcEEEE16_NS_13basic_ostreamIcS2_EE = comdat any

$_ZTSNSt3__118basic_stringstreamIcNS_11char_traitsIcEENS_9allocatorIcEEEE = comdat any

$_ZTINSt3__118basic_stringstreamIcNS_11char_traitsIcEENS_9allocatorIcEEEE = comdat any

$_ZTVNSt3__119basic_ostringstreamIcNS_11char_traitsIcEENS_9allocatorIcEEEE = comdat any

$_ZTTNSt3__119basic_ostringstreamIcNS_11char_traitsIcEENS_9allocatorIcEEEE = comdat any

$_ZTCNSt3__119basic_ostringstreamIcNS_11char_traitsIcEENS_9allocatorIcEEEE0_NS_13basic_ostreamIcS2_EE = comdat any

$_ZTSNSt3__119basic_ostringstreamIcNS_11char_traitsIcEENS_9allocatorIcEEEE = comdat any

$_ZTINSt3__119basic_ostringstreamIcNS_11char_traitsIcEENS_9allocatorIcEEEE = comdat any

$_ZTVNSt3__119basic_istringstreamIcNS_11char_traitsIcEENS_9allocatorIcEEEE = comdat any

$_ZTTNSt3__119basic_istringstreamIcNS_11char_traitsIcEENS_9allocatorIcEEEE = comdat any

$_ZTCNSt3__119basic_istringstreamIcNS_11char_traitsIcEENS_9allocatorIcEEEE0_NS_13basic_istreamIcS2_EE = comdat any

$_ZTSNSt3__119basic_istringstreamIcNS_11char_traitsIcEENS_9allocatorIcEEEE = comdat any

$_ZTINSt3__119basic_istringstreamIcNS_11char_traitsIcEENS_9allocatorIcEEEE = comdat any

$_ZTVNSt3__114basic_ifstreamIcNS_11char_traitsIcEEEE = comdat any

$_ZTTNSt3__114basic_ifstreamIcNS_11char_traitsIcEEEE = comdat any

$_ZTCNSt3__114basic_ifstreamIcNS_11char_traitsIcEEEE0_NS_13basic_istreamIcS2_EE = comdat any

$_ZTSNSt3__114basic_ifstreamIcNS_11char_traitsIcEEEE = comdat any

$_ZTINSt3__114basic_ifstreamIcNS_11char_traitsIcEEEE = comdat any

$_ZTVNSt3__114basic_ofstreamIcNS_11char_traitsIcEEEE = comdat any

$_ZTTNSt3__114basic_ofstreamIcNS_11char_traitsIcEEEE = comdat any

$_ZTCNSt3__114basic_ofstreamIcNS_11char_traitsIcEEEE0_NS_13basic_ostreamIcS2_EE = comdat any

$_ZTSNSt3__114basic_ofstreamIcNS_11char_traitsIcEEEE = comdat any

$_ZTINSt3__114basic_ofstreamIcNS_11char_traitsIcEEEE = comdat any

$_ZTSNSt3__113basic_filebufIcNS_11char_traitsIcEEEE = comdat any

$_ZTINSt3__113basic_filebufIcNS_11char_traitsIcEEEE = comdat any

@_ZTVNSt3__115basic_streambufIcNS_11char_traitsIcEEEE = weak_odr unnamed_addr constant { [16 x i8*] } { [16 x i8*] [i8* null, i8* bitcast ({ i8*, i8* }* @_ZTINSt3__115basic_streambufIcNS_11char_traitsIcEEEE to i8*), i8* bitcast (void (%"class.std::__1::basic_streambuf"*)* @_ZNSt3__115basic_streambufIcNS_11char_traitsIcEEED2Ev to i8*), i8* bitcast (void (%"class.std::__1::basic_streambuf"*)* @_ZNSt3__115basic_streambufIcNS_11char_traitsIcEEED0Ev to i8*), i8* bitcast (void (%"class.std::__1::basic_streambuf"*, %"class.std::__1::locale"*)* @_ZNSt3__115basic_streambufIcNS_11char_traitsIcEEE5imbueERKNS_6localeE to i8*), i8* bitcast (%"class.std::__1::basic_streambuf"* (%"class.std::__1::basic_streambuf"*, i8*, i64)* @_ZNSt3__115basic_streambufIcNS_11char_traitsIcEEE6setbufEPcl to i8*), i8* bitcast ({ i64, i64 } (%"class.std::__1::basic_streambuf"*, i64, i32, i32)* @_ZNSt3__115basic_streambufIcNS_11char_traitsIcEEE7seekoffExNS_8ios_base7seekdirEj to i8*), i8* bitcast ({ i64, i64 } (%"class.std::__1::basic_streambuf"*, i64, i64, i32)* @_ZNSt3__115basic_streambufIcNS_11char_traitsIcEEE7seekposENS_4fposI11__mbstate_tEEj to i8*), i8* bitcast (i32 (%"class.std::__1::basic_streambuf"*)* @_ZNSt3__115basic_streambufIcNS_11char_traitsIcEEE4syncEv to i8*), i8* bitcast (i64 (%"class.std::__1::basic_streambuf"*)* @_ZNSt3__115basic_streambufIcNS_11char_traitsIcEEE9showmanycEv to i8*), i8* bitcast (i64 (%"class.std::__1::basic_streambuf"*, i8*, i64)* @_ZNSt3__115basic_streambufIcNS_11char_traitsIcEEE6xsgetnEPcl to i8*), i8* bitcast (i32 (%"class.std::__1::basic_streambuf"*)* @_ZNSt3__115basic_streambufIcNS_11char_traitsIcEEE9underflowEv to i8*), i8* bitcast (i32 (%"class.std::__1::basic_streambuf"*)* @_ZNSt3__115basic_streambufIcNS_11char_traitsIcEEE5uflowEv to i8*), i8* bitcast (i32 (%"class.std::__1::basic_streambuf"*, i32)* @_ZNSt3__115basic_streambufIcNS_11char_traitsIcEEE9pbackfailEi to i8*), i8* bitcast (i64 (%"class.std::__1::basic_streambuf"*, i8*, i64)* @_ZNSt3__115basic_streambufIcNS_11char_traitsIcEEE6xsputnEPKcl to i8*), i8* bitcast (i32 (%"class.std::__1::basic_streambuf"*, i32)* @_ZNSt3__115basic_streambufIcNS_11char_traitsIcEEE8overflowEi to i8*)] }, comdat, align 8
@_ZTVNSt3__115basic_streambufIwNS_11char_traitsIwEEEE = weak_odr unnamed_addr constant { [16 x i8*] } { [16 x i8*] [i8* null, i8* bitcast ({ i8*, i8* }* @_ZTINSt3__115basic_streambufIwNS_11char_traitsIwEEEE to i8*), i8* bitcast (void (%"class.std::__1::basic_streambuf.4"*)* @_ZNSt3__115basic_streambufIwNS_11char_traitsIwEEED2Ev to i8*), i8* bitcast (void (%"class.std::__1::basic_streambuf.4"*)* @_ZNSt3__115basic_streambufIwNS_11char_traitsIwEEED0Ev to i8*), i8* bitcast (void (%"class.std::__1::basic_streambuf.4"*, %"class.std::__1::locale"*)* @_ZNSt3__115basic_streambufIwNS_11char_traitsIwEEE5imbueERKNS_6localeE to i8*), i8* bitcast (%"class.std::__1::basic_streambuf.4"* (%"class.std::__1::basic_streambuf.4"*, i32*, i64)* @_ZNSt3__115basic_streambufIwNS_11char_traitsIwEEE6setbufEPwl to i8*), i8* bitcast ({ i64, i64 } (%"class.std::__1::basic_streambuf.4"*, i64, i32, i32)* @_ZNSt3__115basic_streambufIwNS_11char_traitsIwEEE7seekoffExNS_8ios_base7seekdirEj to i8*), i8* bitcast ({ i64, i64 } (%"class.std::__1::basic_streambuf.4"*, i64, i64, i32)* @_ZNSt3__115basic_streambufIwNS_11char_traitsIwEEE7seekposENS_4fposI11__mbstate_tEEj to i8*), i8* bitcast (i32 (%"class.std::__1::basic_streambuf.4"*)* @_ZNSt3__115basic_streambufIwNS_11char_traitsIwEEE4syncEv to i8*), i8* bitcast (i64 (%"class.std::__1::basic_streambuf.4"*)* @_ZNSt3__115basic_streambufIwNS_11char_traitsIwEEE9showmanycEv to i8*), i8* bitcast (i64 (%"class.std::__1::basic_streambuf.4"*, i32*, i64)* @_ZNSt3__115basic_streambufIwNS_11char_traitsIwEEE6xsgetnEPwl to i8*), i8* bitcast (i32 (%"class.std::__1::basic_streambuf.4"*)* @_ZNSt3__115basic_streambufIwNS_11char_traitsIwEEE9underflowEv to i8*), i8* bitcast (i32 (%"class.std::__1::basic_streambuf.4"*)* @_ZNSt3__115basic_streambufIwNS_11char_traitsIwEEE5uflowEv to i8*), i8* bitcast (i32 (%"class.std::__1::basic_streambuf.4"*, i32)* @_ZNSt3__115basic_streambufIwNS_11char_traitsIwEEE9pbackfailEj to i8*), i8* bitcast (i64 (%"class.std::__1::basic_streambuf.4"*, i32*, i64)* @_ZNSt3__115basic_streambufIwNS_11char_traitsIwEEE6xsputnEPKwl to i8*), i8* bitcast (i32 (%"class.std::__1::basic_streambuf.4"*, i32)* @_ZNSt3__115basic_streambufIwNS_11char_traitsIwEEE8overflowEj to i8*)] }, comdat, align 8
@_ZTVNSt3__113basic_istreamIcNS_11char_traitsIcEEEE = weak_odr unnamed_addr constant { [5 x i8*], [5 x i8*] } { [5 x i8*] [i8* inttoptr (i64 16 to i8*), i8* null, i8* bitcast ({ i8*, i8*, i32, i32, i8*, i64 }* @_ZTINSt3__113basic_istreamIcNS_11char_traitsIcEEEE to i8*), i8* bitcast (void (%"class.std::__1::basic_istream"*)* @_ZNSt3__113basic_istreamIcNS_11char_traitsIcEEED1Ev to i8*), i8* bitcast (void (%"class.std::__1::basic_istream"*)* @_ZNSt3__113basic_istreamIcNS_11char_traitsIcEEED0Ev to i8*)], [5 x i8*] [i8* inttoptr (i64 -16 to i8*), i8* inttoptr (i64 -16 to i8*), i8* bitcast ({ i8*, i8*, i32, i32, i8*, i64 }* @_ZTINSt3__113basic_istreamIcNS_11char_traitsIcEEEE to i8*), i8* bitcast (void (%"class.std::__1::basic_istream"*)* @_ZTv0_n24_NSt3__113basic_istreamIcNS_11char_traitsIcEEED1Ev to i8*), i8* bitcast (void (%"class.std::__1::basic_istream"*)* @_ZTv0_n24_NSt3__113basic_istreamIcNS_11char_traitsIcEEED0Ev to i8*)] }, comdat, align 8
@_ZTTNSt3__113basic_istreamIcNS_11char_traitsIcEEEE = weak_odr unnamed_addr constant [2 x i8*] [i8* bitcast (i8** getelementptr inbounds ({ [5 x i8*], [5 x i8*] }, { [5 x i8*], [5 x i8*] }* @_ZTVNSt3__113basic_istreamIcNS_11char_traitsIcEEEE, i32 0, inrange i32 0, i32 3) to i8*), i8* bitcast (i8** getelementptr inbounds ({ [5 x i8*], [5 x i8*] }, { [5 x i8*], [5 x i8*] }* @_ZTVNSt3__113basic_istreamIcNS_11char_traitsIcEEEE, i32 0, inrange i32 1, i32 3) to i8*)], comdat, align 8
@_ZTVNSt3__113basic_istreamIwNS_11char_traitsIwEEEE = weak_odr unnamed_addr constant { [5 x i8*], [5 x i8*] } { [5 x i8*] [i8* inttoptr (i64 16 to i8*), i8* null, i8* bitcast ({ i8*, i8*, i32, i32, i8*, i64 }* @_ZTINSt3__113basic_istreamIwNS_11char_traitsIwEEEE to i8*), i8* bitcast (void (%"class.std::__1::basic_istream.5"*)* @_ZNSt3__113basic_istreamIwNS_11char_traitsIwEEED1Ev to i8*), i8* bitcast (void (%"class.std::__1::basic_istream.5"*)* @_ZNSt3__113basic_istreamIwNS_11char_traitsIwEEED0Ev to i8*)], [5 x i8*] [i8* inttoptr (i64 -16 to i8*), i8* inttoptr (i64 -16 to i8*), i8* bitcast ({ i8*, i8*, i32, i32, i8*, i64 }* @_ZTINSt3__113basic_istreamIwNS_11char_traitsIwEEEE to i8*), i8* bitcast (void (%"class.std::__1::basic_istream.5"*)* @_ZTv0_n24_NSt3__113basic_istreamIwNS_11char_traitsIwEEED1Ev to i8*), i8* bitcast (void (%"class.std::__1::basic_istream.5"*)* @_ZTv0_n24_NSt3__113basic_istreamIwNS_11char_traitsIwEEED0Ev to i8*)] }, comdat, align 8
@_ZTTNSt3__113basic_istreamIwNS_11char_traitsIwEEEE = weak_odr unnamed_addr constant [2 x i8*] [i8* bitcast (i8** getelementptr inbounds ({ [5 x i8*], [5 x i8*] }, { [5 x i8*], [5 x i8*] }* @_ZTVNSt3__113basic_istreamIwNS_11char_traitsIwEEEE, i32 0, inrange i32 0, i32 3) to i8*), i8* bitcast (i8** getelementptr inbounds ({ [5 x i8*], [5 x i8*] }, { [5 x i8*], [5 x i8*] }* @_ZTVNSt3__113basic_istreamIwNS_11char_traitsIwEEEE, i32 0, inrange i32 1, i32 3) to i8*)], comdat, align 8
@_ZTVNSt3__113basic_ostreamIcNS_11char_traitsIcEEEE = weak_odr unnamed_addr constant { [5 x i8*], [5 x i8*] } { [5 x i8*] [i8* inttoptr (i64 8 to i8*), i8* null, i8* bitcast ({ i8*, i8*, i32, i32, i8*, i64 }* @_ZTINSt3__113basic_ostreamIcNS_11char_traitsIcEEEE to i8*), i8* bitcast (void (%"class.std::__1::basic_ostream"*)* @_ZNSt3__113basic_ostreamIcNS_11char_traitsIcEEED1Ev to i8*), i8* bitcast (void (%"class.std::__1::basic_ostream"*)* @_ZNSt3__113basic_ostreamIcNS_11char_traitsIcEEED0Ev to i8*)], [5 x i8*] [i8* inttoptr (i64 -8 to i8*), i8* inttoptr (i64 -8 to i8*), i8* bitcast ({ i8*, i8*, i32, i32, i8*, i64 }* @_ZTINSt3__113basic_ostreamIcNS_11char_traitsIcEEEE to i8*), i8* bitcast (void (%"class.std::__1::basic_ostream"*)* @_ZTv0_n24_NSt3__113basic_ostreamIcNS_11char_traitsIcEEED1Ev to i8*), i8* bitcast (void (%"class.std::__1::basic_ostream"*)* @_ZTv0_n24_NSt3__113basic_ostreamIcNS_11char_traitsIcEEED0Ev to i8*)] }, comdat, align 8
@_ZTTNSt3__113basic_ostreamIcNS_11char_traitsIcEEEE = weak_odr unnamed_addr constant [2 x i8*] [i8* bitcast (i8** getelementptr inbounds ({ [5 x i8*], [5 x i8*] }, { [5 x i8*], [5 x i8*] }* @_ZTVNSt3__113basic_ostreamIcNS_11char_traitsIcEEEE, i32 0, inrange i32 0, i32 3) to i8*), i8* bitcast (i8** getelementptr inbounds ({ [5 x i8*], [5 x i8*] }, { [5 x i8*], [5 x i8*] }* @_ZTVNSt3__113basic_ostreamIcNS_11char_traitsIcEEEE, i32 0, inrange i32 1, i32 3) to i8*)], comdat, align 8
@_ZTVNSt3__113basic_ostreamIwNS_11char_traitsIwEEEE = weak_odr unnamed_addr constant { [5 x i8*], [5 x i8*] } { [5 x i8*] [i8* inttoptr (i64 8 to i8*), i8* null, i8* bitcast ({ i8*, i8*, i32, i32, i8*, i64 }* @_ZTINSt3__113basic_ostreamIwNS_11char_traitsIwEEEE to i8*), i8* bitcast (void (%"class.std::__1::basic_ostream.1"*)* @_ZNSt3__113basic_ostreamIwNS_11char_traitsIwEEED1Ev to i8*), i8* bitcast (void (%"class.std::__1::basic_ostream.1"*)* @_ZNSt3__113basic_ostreamIwNS_11char_traitsIwEEED0Ev to i8*)], [5 x i8*] [i8* inttoptr (i64 -8 to i8*), i8* inttoptr (i64 -8 to i8*), i8* bitcast ({ i8*, i8*, i32, i32, i8*, i64 }* @_ZTINSt3__113basic_ostreamIwNS_11char_traitsIwEEEE to i8*), i8* bitcast (void (%"class.std::__1::basic_ostream.1"*)* @_ZTv0_n24_NSt3__113basic_ostreamIwNS_11char_traitsIwEEED1Ev to i8*), i8* bitcast (void (%"class.std::__1::basic_ostream.1"*)* @_ZTv0_n24_NSt3__113basic_ostreamIwNS_11char_traitsIwEEED0Ev to i8*)] }, comdat, align 8
@_ZTTNSt3__113basic_ostreamIwNS_11char_traitsIwEEEE = weak_odr unnamed_addr constant [2 x i8*] [i8* bitcast (i8** getelementptr inbounds ({ [5 x i8*], [5 x i8*] }, { [5 x i8*], [5 x i8*] }* @_ZTVNSt3__113basic_ostreamIwNS_11char_traitsIwEEEE, i32 0, inrange i32 0, i32 3) to i8*), i8* bitcast (i8** getelementptr inbounds ({ [5 x i8*], [5 x i8*] }, { [5 x i8*], [5 x i8*] }* @_ZTVNSt3__113basic_ostreamIwNS_11char_traitsIwEEEE, i32 0, inrange i32 1, i32 3) to i8*)], comdat, align 8
@_ZTVNSt3__114basic_iostreamIcNS_11char_traitsIcEEEE = weak_odr unnamed_addr constant { [5 x i8*], [5 x i8*], [5 x i8*] } { [5 x i8*] [i8* inttoptr (i64 24 to i8*), i8* null, i8* bitcast ({ i8*, i8*, i32, i32, i8*, i64, i8*, i64 }* @_ZTINSt3__114basic_iostreamIcNS_11char_traitsIcEEEE to i8*), i8* bitcast (void (%"class.std::__1::basic_iostream"*)* @_ZNSt3__114basic_iostreamIcNS_11char_traitsIcEEED1Ev to i8*), i8* bitcast (void (%"class.std::__1::basic_iostream"*)* @_ZNSt3__114basic_iostreamIcNS_11char_traitsIcEEED0Ev to i8*)], [5 x i8*] [i8* inttoptr (i64 8 to i8*), i8* inttoptr (i64 -16 to i8*), i8* bitcast ({ i8*, i8*, i32, i32, i8*, i64, i8*, i64 }* @_ZTINSt3__114basic_iostreamIcNS_11char_traitsIcEEEE to i8*), i8* bitcast (void (%"class.std::__1::basic_iostream"*)* @_ZThn16_NSt3__114basic_iostreamIcNS_11char_traitsIcEEED1Ev to i8*), i8* bitcast (void (%"class.std::__1::basic_iostream"*)* @_ZThn16_NSt3__114basic_iostreamIcNS_11char_traitsIcEEED0Ev to i8*)], [5 x i8*] [i8* inttoptr (i64 -24 to i8*), i8* inttoptr (i64 -24 to i8*), i8* bitcast ({ i8*, i8*, i32, i32, i8*, i64, i8*, i64 }* @_ZTINSt3__114basic_iostreamIcNS_11char_traitsIcEEEE to i8*), i8* bitcast (void (%"class.std::__1::basic_iostream"*)* @_ZTv0_n24_NSt3__114basic_iostreamIcNS_11char_traitsIcEEED1Ev to i8*), i8* bitcast (void (%"class.std::__1::basic_iostream"*)* @_ZTv0_n24_NSt3__114basic_iostreamIcNS_11char_traitsIcEEED0Ev to i8*)] }, comdat, align 8
@_ZTTNSt3__114basic_iostreamIcNS_11char_traitsIcEEEE = weak_odr unnamed_addr constant [7 x i8*] [i8* bitcast (i8** getelementptr inbounds ({ [5 x i8*], [5 x i8*], [5 x i8*] }, { [5 x i8*], [5 x i8*], [5 x i8*] }* @_ZTVNSt3__114basic_iostreamIcNS_11char_traitsIcEEEE, i32 0, inrange i32 0, i32 3) to i8*), i8* bitcast (i8** getelementptr inbounds ({ [5 x i8*], [5 x i8*] }, { [5 x i8*], [5 x i8*] }* @_ZTCNSt3__114basic_iostreamIcNS_11char_traitsIcEEEE0_NS_13basic_istreamIcS2_EE, i32 0, inrange i32 0, i32 3) to i8*), i8* bitcast (i8** getelementptr inbounds ({ [5 x i8*], [5 x i8*] }, { [5 x i8*], [5 x i8*] }* @_ZTCNSt3__114basic_iostreamIcNS_11char_traitsIcEEEE0_NS_13basic_istreamIcS2_EE, i32 0, inrange i32 1, i32 3) to i8*), i8* bitcast (i8** getelementptr inbounds ({ [5 x i8*], [5 x i8*] }, { [5 x i8*], [5 x i8*] }* @_ZTCNSt3__114basic_iostreamIcNS_11char_traitsIcEEEE16_NS_13basic_ostreamIcS2_EE, i32 0, inrange i32 0, i32 3) to i8*), i8* bitcast (i8** getelementptr inbounds ({ [5 x i8*], [5 x i8*] }, { [5 x i8*], [5 x i8*] }* @_ZTCNSt3__114basic_iostreamIcNS_11char_traitsIcEEEE16_NS_13basic_ostreamIcS2_EE, i32 0, inrange i32 1, i32 3) to i8*), i8* bitcast (i8** getelementptr inbounds ({ [5 x i8*], [5 x i8*], [5 x i8*] }, { [5 x i8*], [5 x i8*], [5 x i8*] }* @_ZTVNSt3__114basic_iostreamIcNS_11char_traitsIcEEEE, i32 0, inrange i32 2, i32 3) to i8*), i8* bitcast (i8** getelementptr inbounds ({ [5 x i8*], [5 x i8*], [5 x i8*] }, { [5 x i8*], [5 x i8*], [5 x i8*] }* @_ZTVNSt3__114basic_iostreamIcNS_11char_traitsIcEEEE, i32 0, inrange i32 1, i32 3) to i8*)], comdat, align 8
@_ZTVNSt3__115basic_stringbufIcNS_11char_traitsIcEENS_9allocatorIcEEEE = weak_odr unnamed_addr constant { [16 x i8*] } { [16 x i8*] [i8* null, i8* bitcast ({ i8*, i8*, i8* }* @_ZTINSt3__115basic_stringbufIcNS_11char_traitsIcEENS_9allocatorIcEEEE to i8*), i8* bitcast (void (%"class.std::__1::basic_stringbuf"*)* @_ZNSt3__115basic_stringbufIcNS_11char_traitsIcEENS_9allocatorIcEEED2Ev to i8*), i8* bitcast (void (%"class.std::__1::basic_stringbuf"*)* @_ZNSt3__115basic_stringbufIcNS_11char_traitsIcEENS_9allocatorIcEEED0Ev to i8*), i8* bitcast (void (%"class.std::__1::basic_streambuf"*, %"class.std::__1::locale"*)* @_ZNSt3__115basic_streambufIcNS_11char_traitsIcEEE5imbueERKNS_6localeE to i8*), i8* bitcast (%"class.std::__1::basic_streambuf"* (%"class.std::__1::basic_streambuf"*, i8*, i64)* @_ZNSt3__115basic_streambufIcNS_11char_traitsIcEEE6setbufEPcl to i8*), i8* bitcast ({ i64, i64 } (%"class.std::__1::basic_stringbuf"*, i64, i32, i32)* @_ZNSt3__115basic_stringbufIcNS_11char_traitsIcEENS_9allocatorIcEEE7seekoffExNS_8ios_base7seekdirEj to i8*), i8* bitcast ({ i64, i64 } (%"class.std::__1::basic_stringbuf"*, i64, i64, i32)* @_ZNSt3__115basic_stringbufIcNS_11char_traitsIcEENS_9allocatorIcEEE7seekposENS_4fposI11__mbstate_tEEj to i8*), i8* bitcast (i32 (%"class.std::__1::basic_streambuf"*)* @_ZNSt3__115basic_streambufIcNS_11char_traitsIcEEE4syncEv to i8*), i8* bitcast (i64 (%"class.std::__1::basic_streambuf"*)* @_ZNSt3__115basic_streambufIcNS_11char_traitsIcEEE9showmanycEv to i8*), i8* bitcast (i64 (%"class.std::__1::basic_streambuf"*, i8*, i64)* @_ZNSt3__115basic_streambufIcNS_11char_traitsIcEEE6xsgetnEPcl to i8*), i8* bitcast (i32 (%"class.std::__1::basic_stringbuf"*)* @_ZNSt3__115basic_stringbufIcNS_11char_traitsIcEENS_9allocatorIcEEE9underflowEv to i8*), i8* bitcast (i32 (%"class.std::__1::basic_streambuf"*)* @_ZNSt3__115basic_streambufIcNS_11char_traitsIcEEE5uflowEv to i8*), i8* bitcast (i32 (%"class.std::__1::basic_stringbuf"*, i32)* @_ZNSt3__115basic_stringbufIcNS_11char_traitsIcEENS_9allocatorIcEEE9pbackfailEi to i8*), i8* bitcast (i64 (%"class.std::__1::basic_streambuf"*, i8*, i64)* @_ZNSt3__115basic_streambufIcNS_11char_traitsIcEEE6xsputnEPKcl to i8*), i8* bitcast (i32 (%"class.std::__1::basic_stringbuf"*, i32)* @_ZNSt3__115basic_stringbufIcNS_11char_traitsIcEENS_9allocatorIcEEE8overflowEi to i8*)] }, comdat, align 8
@_ZTVNSt3__113basic_filebufIcNS_11char_traitsIcEEEE = weak_odr unnamed_addr constant { [16 x i8*] } { [16 x i8*] [i8* null, i8* bitcast ({ i8*, i8*, i8* }* @_ZTINSt3__113basic_filebufIcNS_11char_traitsIcEEEE to i8*), i8* bitcast (void (%"class.std::__1::basic_filebuf"*)* @_ZNSt3__113basic_filebufIcNS_11char_traitsIcEEED2Ev to i8*), i8* bitcast (void (%"class.std::__1::basic_filebuf"*)* @_ZNSt3__113basic_filebufIcNS_11char_traitsIcEEED0Ev to i8*), i8* bitcast (void (%"class.std::__1::basic_filebuf"*, %"class.std::__1::locale"*)* @_ZNSt3__113basic_filebufIcNS_11char_traitsIcEEE5imbueERKNS_6localeE to i8*), i8* bitcast (%"class.std::__1::basic_streambuf"* (%"class.std::__1::basic_filebuf"*, i8*, i64)* @_ZNSt3__113basic_filebufIcNS_11char_traitsIcEEE6setbufEPcl to i8*), i8* bitcast ({ i64, i64 } (%"class.std::__1::basic_filebuf"*, i64, i32, i32)* @_ZNSt3__113basic_filebufIcNS_11char_traitsIcEEE7seekoffExNS_8ios_base7seekdirEj to i8*), i8* bitcast ({ i64, i64 } (%"class.std::__1::basic_filebuf"*, i64, i64, i32)* @_ZNSt3__113basic_filebufIcNS_11char_traitsIcEEE7seekposENS_4fposI11__mbstate_tEEj to i8*), i8* bitcast (i32 (%"class.std::__1::basic_filebuf"*)* @_ZNSt3__113basic_filebufIcNS_11char_traitsIcEEE4syncEv to i8*), i8* bitcast (i64 (%"class.std::__1::basic_streambuf"*)* @_ZNSt3__115basic_streambufIcNS_11char_traitsIcEEE9showmanycEv to i8*), i8* bitcast (i64 (%"class.std::__1::basic_streambuf"*, i8*, i64)* @_ZNSt3__115basic_streambufIcNS_11char_traitsIcEEE6xsgetnEPcl to i8*), i8* bitcast (i32 (%"class.std::__1::basic_filebuf"*)* @_ZNSt3__113basic_filebufIcNS_11char_traitsIcEEE9underflowEv to i8*), i8* bitcast (i32 (%"class.std::__1::basic_streambuf"*)* @_ZNSt3__115basic_streambufIcNS_11char_traitsIcEEE5uflowEv to i8*), i8* bitcast (i32 (%"class.std::__1::basic_filebuf"*, i32)* @_ZNSt3__113basic_filebufIcNS_11char_traitsIcEEE9pbackfailEi to i8*), i8* bitcast (i64 (%"class.std::__1::basic_streambuf"*, i8*, i64)* @_ZNSt3__115basic_streambufIcNS_11char_traitsIcEEE6xsputnEPKcl to i8*), i8* bitcast (i32 (%"class.std::__1::basic_filebuf"*, i32)* @_ZNSt3__113basic_filebufIcNS_11char_traitsIcEEE8overflowEi to i8*)] }, comdat, align 8
@_ZTVNSt3__19basic_iosIcNS_11char_traitsIcEEEE = weak_odr unnamed_addr constant { [4 x i8*] } { [4 x i8*] [i8* null, i8* bitcast ({ i8*, i8*, i8* }* @_ZTINSt3__19basic_iosIcNS_11char_traitsIcEEEE to i8*), i8* bitcast (void (%"class.std::__1::basic_ios"*)* @_ZNSt3__19basic_iosIcNS_11char_traitsIcEEED2Ev to i8*), i8* bitcast (void (%"class.std::__1::basic_ios"*)* @_ZNSt3__19basic_iosIcNS_11char_traitsIcEEED0Ev to i8*)] }, comdat, align 8
@_ZTVN10__cxxabiv120__si_class_type_infoE = external global i8*
@_ZTSNSt3__19basic_iosIcNS_11char_traitsIcEEEE = weak_odr constant [42 x i8] c"NSt3__19basic_iosIcNS_11char_traitsIcEEEE\00", comdat, align 1
@_ZTINSt3__18ios_baseE = external constant i8*
@_ZTINSt3__19basic_iosIcNS_11char_traitsIcEEEE = weak_odr constant { i8*, i8*, i8* } { i8* bitcast (i8** getelementptr inbounds (i8*, i8** @_ZTVN10__cxxabiv120__si_class_type_infoE, i64 2) to i8*), i8* getelementptr inbounds ([42 x i8], [42 x i8]* @_ZTSNSt3__19basic_iosIcNS_11char_traitsIcEEEE, i32 0, i32 0), i8* bitcast (i8** @_ZTINSt3__18ios_baseE to i8*) }, comdat, align 8
@_ZTVNSt3__19basic_iosIwNS_11char_traitsIwEEEE = weak_odr unnamed_addr constant { [4 x i8*] } { [4 x i8*] [i8* null, i8* bitcast ({ i8*, i8*, i8* }* @_ZTINSt3__19basic_iosIwNS_11char_traitsIwEEEE to i8*), i8* bitcast (void (%"class.std::__1::basic_ios.0"*)* @_ZNSt3__19basic_iosIwNS_11char_traitsIwEEED2Ev to i8*), i8* bitcast (void (%"class.std::__1::basic_ios.0"*)* @_ZNSt3__19basic_iosIwNS_11char_traitsIwEEED0Ev to i8*)] }, comdat, align 8
@_ZTSNSt3__19basic_iosIwNS_11char_traitsIwEEEE = weak_odr constant [42 x i8] c"NSt3__19basic_iosIwNS_11char_traitsIwEEEE\00", comdat, align 1
@_ZTINSt3__19basic_iosIwNS_11char_traitsIwEEEE = weak_odr constant { i8*, i8*, i8* } { i8* bitcast (i8** getelementptr inbounds (i8*, i8** @_ZTVN10__cxxabiv120__si_class_type_infoE, i64 2) to i8*), i8* getelementptr inbounds ([42 x i8], [42 x i8]* @_ZTSNSt3__19basic_iosIwNS_11char_traitsIwEEEE, i32 0, i32 0), i8* bitcast (i8** @_ZTINSt3__18ios_baseE to i8*) }, comdat, align 8
@_ZTVN10__cxxabiv117__class_type_infoE = external global i8*
@_ZTSNSt3__115basic_streambufIcNS_11char_traitsIcEEEE = weak_odr constant [49 x i8] c"NSt3__115basic_streambufIcNS_11char_traitsIcEEEE\00", comdat, align 1
@_ZTINSt3__115basic_streambufIcNS_11char_traitsIcEEEE = weak_odr constant { i8*, i8* } { i8* bitcast (i8** getelementptr inbounds (i8*, i8** @_ZTVN10__cxxabiv117__class_type_infoE, i64 2) to i8*), i8* getelementptr inbounds ([49 x i8], [49 x i8]* @_ZTSNSt3__115basic_streambufIcNS_11char_traitsIcEEEE, i32 0, i32 0) }, comdat, align 8
@_ZTSNSt3__115basic_streambufIwNS_11char_traitsIwEEEE = weak_odr constant [49 x i8] c"NSt3__115basic_streambufIwNS_11char_traitsIwEEEE\00", comdat, align 1
@_ZTINSt3__115basic_streambufIwNS_11char_traitsIwEEEE = weak_odr constant { i8*, i8* } { i8* bitcast (i8** getelementptr inbounds (i8*, i8** @_ZTVN10__cxxabiv117__class_type_infoE, i64 2) to i8*), i8* getelementptr inbounds ([49 x i8], [49 x i8]* @_ZTSNSt3__115basic_streambufIwNS_11char_traitsIwEEEE, i32 0, i32 0) }, comdat, align 8
@_ZTVN10__cxxabiv121__vmi_class_type_infoE = external global i8*
@_ZTSNSt3__113basic_istreamIcNS_11char_traitsIcEEEE = weak_odr constant [47 x i8] c"NSt3__113basic_istreamIcNS_11char_traitsIcEEEE\00", comdat, align 1
@_ZTINSt3__113basic_istreamIcNS_11char_traitsIcEEEE = weak_odr constant { i8*, i8*, i32, i32, i8*, i64 } { i8* bitcast (i8** getelementptr inbounds (i8*, i8** @_ZTVN10__cxxabiv121__vmi_class_type_infoE, i64 2) to i8*), i8* getelementptr inbounds ([47 x i8], [47 x i8]* @_ZTSNSt3__113basic_istreamIcNS_11char_traitsIcEEEE, i32 0, i32 0), i32 0, i32 1, i8* bitcast ({ i8*, i8*, i8* }* @_ZTINSt3__19basic_iosIcNS_11char_traitsIcEEEE to i8*), i64 -6141 }, comdat, align 8
@_ZTSNSt3__113basic_istreamIwNS_11char_traitsIwEEEE = weak_odr constant [47 x i8] c"NSt3__113basic_istreamIwNS_11char_traitsIwEEEE\00", comdat, align 1
@_ZTINSt3__113basic_istreamIwNS_11char_traitsIwEEEE = weak_odr constant { i8*, i8*, i32, i32, i8*, i64 } { i8* bitcast (i8** getelementptr inbounds (i8*, i8** @_ZTVN10__cxxabiv121__vmi_class_type_infoE, i64 2) to i8*), i8* getelementptr inbounds ([47 x i8], [47 x i8]* @_ZTSNSt3__113basic_istreamIwNS_11char_traitsIwEEEE, i32 0, i32 0), i32 0, i32 1, i8* bitcast ({ i8*, i8*, i8* }* @_ZTINSt3__19basic_iosIwNS_11char_traitsIwEEEE to i8*), i64 -6141 }, comdat, align 8
@_ZTSNSt3__113basic_ostreamIcNS_11char_traitsIcEEEE = weak_odr constant [47 x i8] c"NSt3__113basic_ostreamIcNS_11char_traitsIcEEEE\00", comdat, align 1
@_ZTINSt3__113basic_ostreamIcNS_11char_traitsIcEEEE = weak_odr constant { i8*, i8*, i32, i32, i8*, i64 } { i8* bitcast (i8** getelementptr inbounds (i8*, i8** @_ZTVN10__cxxabiv121__vmi_class_type_infoE, i64 2) to i8*), i8* getelementptr inbounds ([47 x i8], [47 x i8]* @_ZTSNSt3__113basic_ostreamIcNS_11char_traitsIcEEEE, i32 0, i32 0), i32 0, i32 1, i8* bitcast ({ i8*, i8*, i8* }* @_ZTINSt3__19basic_iosIcNS_11char_traitsIcEEEE to i8*), i64 -6141 }, comdat, align 8
@_ZTSNSt3__113basic_ostreamIwNS_11char_traitsIwEEEE = weak_odr constant [47 x i8] c"NSt3__113basic_ostreamIwNS_11char_traitsIwEEEE\00", comdat, align 1
@_ZTINSt3__113basic_ostreamIwNS_11char_traitsIwEEEE = weak_odr constant { i8*, i8*, i32, i32, i8*, i64 } { i8* bitcast (i8** getelementptr inbounds (i8*, i8** @_ZTVN10__cxxabiv121__vmi_class_type_infoE, i64 2) to i8*), i8* getelementptr inbounds ([47 x i8], [47 x i8]* @_ZTSNSt3__113basic_ostreamIwNS_11char_traitsIwEEEE, i32 0, i32 0), i32 0, i32 1, i8* bitcast ({ i8*, i8*, i8* }* @_ZTINSt3__19basic_iosIwNS_11char_traitsIwEEEE to i8*), i64 -6141 }, comdat, align 8
@_ZTCNSt3__114basic_iostreamIcNS_11char_traitsIcEEEE0_NS_13basic_istreamIcS2_EE = weak_odr unnamed_addr constant { [5 x i8*], [5 x i8*] } { [5 x i8*] [i8* inttoptr (i64 24 to i8*), i8* null, i8* bitcast ({ i8*, i8*, i32, i32, i8*, i64 }* @_ZTINSt3__113basic_istreamIcNS_11char_traitsIcEEEE to i8*), i8* bitcast (void (%"class.std::__1::basic_istream"*)* @_ZNSt3__113basic_istreamIcNS_11char_traitsIcEEED1Ev to i8*), i8* bitcast (void (%"class.std::__1::basic_istream"*)* @_ZNSt3__113basic_istreamIcNS_11char_traitsIcEEED0Ev to i8*)], [5 x i8*] [i8* inttoptr (i64 -24 to i8*), i8* inttoptr (i64 -24 to i8*), i8* bitcast ({ i8*, i8*, i32, i32, i8*, i64 }* @_ZTINSt3__113basic_istreamIcNS_11char_traitsIcEEEE to i8*), i8* bitcast (void (%"class.std::__1::basic_istream"*)* @_ZTv0_n24_NSt3__113basic_istreamIcNS_11char_traitsIcEEED1Ev to i8*), i8* bitcast (void (%"class.std::__1::basic_istream"*)* @_ZTv0_n24_NSt3__113basic_istreamIcNS_11char_traitsIcEEED0Ev to i8*)] }, comdat, align 8
@_ZTCNSt3__114basic_iostreamIcNS_11char_traitsIcEEEE16_NS_13basic_ostreamIcS2_EE = weak_odr unnamed_addr constant { [5 x i8*], [5 x i8*] } { [5 x i8*] [i8* inttoptr (i64 8 to i8*), i8* null, i8* bitcast ({ i8*, i8*, i32, i32, i8*, i64 }* @_ZTINSt3__113basic_ostreamIcNS_11char_traitsIcEEEE to i8*), i8* bitcast (void (%"class.std::__1::basic_ostream"*)* @_ZNSt3__113basic_ostreamIcNS_11char_traitsIcEEED1Ev to i8*), i8* bitcast (void (%"class.std::__1::basic_ostream"*)* @_ZNSt3__113basic_ostreamIcNS_11char_traitsIcEEED0Ev to i8*)], [5 x i8*] [i8* inttoptr (i64 -8 to i8*), i8* inttoptr (i64 -8 to i8*), i8* bitcast ({ i8*, i8*, i32, i32, i8*, i64 }* @_ZTINSt3__113basic_ostreamIcNS_11char_traitsIcEEEE to i8*), i8* bitcast (void (%"class.std::__1::basic_ostream"*)* @_ZTv0_n24_NSt3__113basic_ostreamIcNS_11char_traitsIcEEED1Ev to i8*), i8* bitcast (void (%"class.std::__1::basic_ostream"*)* @_ZTv0_n24_NSt3__113basic_ostreamIcNS_11char_traitsIcEEED0Ev to i8*)] }, comdat, align 8
@_ZTSNSt3__114basic_iostreamIcNS_11char_traitsIcEEEE = weak_odr constant [48 x i8] c"NSt3__114basic_iostreamIcNS_11char_traitsIcEEEE\00", comdat, align 1
@_ZTINSt3__114basic_iostreamIcNS_11char_traitsIcEEEE = weak_odr constant { i8*, i8*, i32, i32, i8*, i64, i8*, i64 } { i8* bitcast (i8** getelementptr inbounds (i8*, i8** @_ZTVN10__cxxabiv121__vmi_class_type_infoE, i64 2) to i8*), i8* getelementptr inbounds ([48 x i8], [48 x i8]* @_ZTSNSt3__114basic_iostreamIcNS_11char_traitsIcEEEE, i32 0, i32 0), i32 3, i32 2, i8* bitcast ({ i8*, i8*, i32, i32, i8*, i64 }* @_ZTINSt3__113basic_istreamIcNS_11char_traitsIcEEEE to i8*), i64 2, i8* bitcast ({ i8*, i8*, i32, i32, i8*, i64 }* @_ZTINSt3__113basic_ostreamIcNS_11char_traitsIcEEEE to i8*), i64 4098 }, comdat, align 8
@_ZTSNSt3__115basic_stringbufIcNS_11char_traitsIcEENS_9allocatorIcEEEE = weak_odr constant [66 x i8] c"NSt3__115basic_stringbufIcNS_11char_traitsIcEENS_9allocatorIcEEEE\00", comdat, align 1
@_ZTINSt3__115basic_stringbufIcNS_11char_traitsIcEENS_9allocatorIcEEEE = weak_odr constant { i8*, i8*, i8* } { i8* bitcast (i8** getelementptr inbounds (i8*, i8** @_ZTVN10__cxxabiv120__si_class_type_infoE, i64 2) to i8*), i8* getelementptr inbounds ([66 x i8], [66 x i8]* @_ZTSNSt3__115basic_stringbufIcNS_11char_traitsIcEENS_9allocatorIcEEEE, i32 0, i32 0), i8* bitcast ({ i8*, i8* }* @_ZTINSt3__115basic_streambufIcNS_11char_traitsIcEEEE to i8*) }, comdat, align 8
@_ZTVNSt3__118basic_stringstreamIcNS_11char_traitsIcEENS_9allocatorIcEEEE = weak_odr unnamed_addr constant { [5 x i8*], [5 x i8*], [5 x i8*] } { [5 x i8*] [i8* inttoptr (i64 128 to i8*), i8* null, i8* bitcast ({ i8*, i8*, i8* }* @_ZTINSt3__118basic_stringstreamIcNS_11char_traitsIcEENS_9allocatorIcEEEE to i8*), i8* bitcast (void (%"class.std::__1::basic_stringstream"*)* @_ZNSt3__118basic_stringstreamIcNS_11char_traitsIcEENS_9allocatorIcEEED1Ev to i8*), i8* bitcast (void (%"class.std::__1::basic_stringstream"*)* @_ZNSt3__118basic_stringstreamIcNS_11char_traitsIcEENS_9allocatorIcEEED0Ev to i8*)], [5 x i8*] [i8* inttoptr (i64 112 to i8*), i8* inttoptr (i64 -16 to i8*), i8* bitcast ({ i8*, i8*, i8* }* @_ZTINSt3__118basic_stringstreamIcNS_11char_traitsIcEENS_9allocatorIcEEEE to i8*), i8* bitcast (void (%"class.std::__1::basic_stringstream"*)* @_ZThn16_NSt3__118basic_stringstreamIcNS_11char_traitsIcEENS_9allocatorIcEEED1Ev to i8*), i8* bitcast (void (%"class.std::__1::basic_stringstream"*)* @_ZThn16_NSt3__118basic_stringstreamIcNS_11char_traitsIcEENS_9allocatorIcEEED0Ev to i8*)], [5 x i8*] [i8* inttoptr (i64 -128 to i8*), i8* inttoptr (i64 -128 to i8*), i8* bitcast ({ i8*, i8*, i8* }* @_ZTINSt3__118basic_stringstreamIcNS_11char_traitsIcEENS_9allocatorIcEEEE to i8*), i8* bitcast (void (%"class.std::__1::basic_stringstream"*)* @_ZTv0_n24_NSt3__118basic_stringstreamIcNS_11char_traitsIcEENS_9allocatorIcEEED1Ev to i8*), i8* bitcast (void (%"class.std::__1::basic_stringstream"*)* @_ZTv0_n24_NSt3__118basic_stringstreamIcNS_11char_traitsIcEENS_9allocatorIcEEED0Ev to i8*)] }, comdat, align 8
@_ZTTNSt3__118basic_stringstreamIcNS_11char_traitsIcEENS_9allocatorIcEEEE = weak_odr unnamed_addr constant [10 x i8*] [i8* bitcast (i8** getelementptr inbounds ({ [5 x i8*], [5 x i8*], [5 x i8*] }, { [5 x i8*], [5 x i8*], [5 x i8*] }* @_ZTVNSt3__118basic_stringstreamIcNS_11char_traitsIcEENS_9allocatorIcEEEE, i32 0, inrange i32 0, i32 3) to i8*), i8* bitcast (i8** getelementptr inbounds ({ [5 x i8*], [5 x i8*], [5 x i8*] }, { [5 x i8*], [5 x i8*], [5 x i8*] }* @_ZTCNSt3__118basic_stringstreamIcNS_11char_traitsIcEENS_9allocatorIcEEEE0_NS_14basic_iostreamIcS2_EE, i32 0, inrange i32 0, i32 3) to i8*), i8* bitcast (i8** getelementptr inbounds ({ [5 x i8*], [5 x i8*] }, { [5 x i8*], [5 x i8*] }* @_ZTCNSt3__118basic_stringstreamIcNS_11char_traitsIcEENS_9allocatorIcEEEE0_NS_13basic_istreamIcS2_EE, i32 0, inrange i32 0, i32 3) to i8*), i8* bitcast (i8** getelementptr inbounds ({ [5 x i8*], [5 x i8*] }, { [5 x i8*], [5 x i8*] }* @_ZTCNSt3__118basic_stringstreamIcNS_11char_traitsIcEENS_9allocatorIcEEEE0_NS_13basic_istreamIcS2_EE, i32 0, inrange i32 1, i32 3) to i8*), i8* bitcast (i8** getelementptr inbounds ({ [5 x i8*], [5 x i8*] }, { [5 x i8*], [5 x i8*] }* @_ZTCNSt3__118basic_stringstreamIcNS_11char_traitsIcEENS_9allocatorIcEEEE16_NS_13basic_ostreamIcS2_EE, i32 0, inrange i32 0, i32 3) to i8*), i8* bitcast (i8** getelementptr inbounds ({ [5 x i8*], [5 x i8*] }, { [5 x i8*], [5 x i8*] }* @_ZTCNSt3__118basic_stringstreamIcNS_11char_traitsIcEENS_9allocatorIcEEEE16_NS_13basic_ostreamIcS2_EE, i32 0, inrange i32 1, i32 3) to i8*), i8* bitcast (i8** getelementptr inbounds ({ [5 x i8*], [5 x i8*], [5 x i8*] }, { [5 x i8*], [5 x i8*], [5 x i8*] }* @_ZTCNSt3__118basic_stringstreamIcNS_11char_traitsIcEENS_9allocatorIcEEEE0_NS_14basic_iostreamIcS2_EE, i32 0, inrange i32 2, i32 3) to i8*), i8* bitcast (i8** getelementptr inbounds ({ [5 x i8*], [5 x i8*], [5 x i8*] }, { [5 x i8*], [5 x i8*], [5 x i8*] }* @_ZTCNSt3__118basic_stringstreamIcNS_11char_traitsIcEENS_9allocatorIcEEEE0_NS_14basic_iostreamIcS2_EE, i32 0, inrange i32 1, i32 3) to i8*), i8* bitcast (i8** getelementptr inbounds ({ [5 x i8*], [5 x i8*], [5 x i8*] }, { [5 x i8*], [5 x i8*], [5 x i8*] }* @_ZTVNSt3__118basic_stringstreamIcNS_11char_traitsIcEENS_9allocatorIcEEEE, i32 0, inrange i32 2, i32 3) to i8*), i8* bitcast (i8** getelementptr inbounds ({ [5 x i8*], [5 x i8*], [5 x i8*] }, { [5 x i8*], [5 x i8*], [5 x i8*] }* @_ZTVNSt3__118basic_stringstreamIcNS_11char_traitsIcEENS_9allocatorIcEEEE, i32 0, inrange i32 1, i32 3) to i8*)], comdat, align 8
@_ZTCNSt3__118basic_stringstreamIcNS_11char_traitsIcEENS_9allocatorIcEEEE0_NS_14basic_iostreamIcS2_EE = weak_odr unnamed_addr constant { [5 x i8*], [5 x i8*], [5 x i8*] } { [5 x i8*] [i8* inttoptr (i64 128 to i8*), i8* null, i8* bitcast ({ i8*, i8*, i32, i32, i8*, i64, i8*, i64 }* @_ZTINSt3__114basic_iostreamIcNS_11char_traitsIcEEEE to i8*), i8* bitcast (void (%"class.std::__1::basic_iostream"*)* @_ZNSt3__114basic_iostreamIcNS_11char_traitsIcEEED1Ev to i8*), i8* bitcast (void (%"class.std::__1::basic_iostream"*)* @_ZNSt3__114basic_iostreamIcNS_11char_traitsIcEEED0Ev to i8*)], [5 x i8*] [i8* inttoptr (i64 112 to i8*), i8* inttoptr (i64 -16 to i8*), i8* bitcast ({ i8*, i8*, i32, i32, i8*, i64, i8*, i64 }* @_ZTINSt3__114basic_iostreamIcNS_11char_traitsIcEEEE to i8*), i8* bitcast (void (%"class.std::__1::basic_iostream"*)* @_ZThn16_NSt3__114basic_iostreamIcNS_11char_traitsIcEEED1Ev to i8*), i8* bitcast (void (%"class.std::__1::basic_iostream"*)* @_ZThn16_NSt3__114basic_iostreamIcNS_11char_traitsIcEEED0Ev to i8*)], [5 x i8*] [i8* inttoptr (i64 -128 to i8*), i8* inttoptr (i64 -128 to i8*), i8* bitcast ({ i8*, i8*, i32, i32, i8*, i64, i8*, i64 }* @_ZTINSt3__114basic_iostreamIcNS_11char_traitsIcEEEE to i8*), i8* bitcast (void (%"class.std::__1::basic_iostream"*)* @_ZTv0_n24_NSt3__114basic_iostreamIcNS_11char_traitsIcEEED1Ev to i8*), i8* bitcast (void (%"class.std::__1::basic_iostream"*)* @_ZTv0_n24_NSt3__114basic_iostreamIcNS_11char_traitsIcEEED0Ev to i8*)] }, comdat, align 8
@_ZTCNSt3__118basic_stringstreamIcNS_11char_traitsIcEENS_9allocatorIcEEEE0_NS_13basic_istreamIcS2_EE = weak_odr unnamed_addr constant { [5 x i8*], [5 x i8*] } { [5 x i8*] [i8* inttoptr (i64 128 to i8*), i8* null, i8* bitcast ({ i8*, i8*, i32, i32, i8*, i64 }* @_ZTINSt3__113basic_istreamIcNS_11char_traitsIcEEEE to i8*), i8* bitcast (void (%"class.std::__1::basic_istream"*)* @_ZNSt3__113basic_istreamIcNS_11char_traitsIcEEED1Ev to i8*), i8* bitcast (void (%"class.std::__1::basic_istream"*)* @_ZNSt3__113basic_istreamIcNS_11char_traitsIcEEED0Ev to i8*)], [5 x i8*] [i8* inttoptr (i64 -128 to i8*), i8* inttoptr (i64 -128 to i8*), i8* bitcast ({ i8*, i8*, i32, i32, i8*, i64 }* @_ZTINSt3__113basic_istreamIcNS_11char_traitsIcEEEE to i8*), i8* bitcast (void (%"class.std::__1::basic_istream"*)* @_ZTv0_n24_NSt3__113basic_istreamIcNS_11char_traitsIcEEED1Ev to i8*), i8* bitcast (void (%"class.std::__1::basic_istream"*)* @_ZTv0_n24_NSt3__113basic_istreamIcNS_11char_traitsIcEEED0Ev to i8*)] }, comdat, align 8
@_ZTCNSt3__118basic_stringstreamIcNS_11char_traitsIcEENS_9allocatorIcEEEE16_NS_13basic_ostreamIcS2_EE = weak_odr unnamed_addr constant { [5 x i8*], [5 x i8*] } { [5 x i8*] [i8* inttoptr (i64 112 to i8*), i8* null, i8* bitcast ({ i8*, i8*, i32, i32, i8*, i64 }* @_ZTINSt3__113basic_ostreamIcNS_11char_traitsIcEEEE to i8*), i8* bitcast (void (%"class.std::__1::basic_ostream"*)* @_ZNSt3__113basic_ostreamIcNS_11char_traitsIcEEED1Ev to i8*), i8* bitcast (void (%"class.std::__1::basic_ostream"*)* @_ZNSt3__113basic_ostreamIcNS_11char_traitsIcEEED0Ev to i8*)], [5 x i8*] [i8* inttoptr (i64 -112 to i8*), i8* inttoptr (i64 -112 to i8*), i8* bitcast ({ i8*, i8*, i32, i32, i8*, i64 }* @_ZTINSt3__113basic_ostreamIcNS_11char_traitsIcEEEE to i8*), i8* bitcast (void (%"class.std::__1::basic_ostream"*)* @_ZTv0_n24_NSt3__113basic_ostreamIcNS_11char_traitsIcEEED1Ev to i8*), i8* bitcast (void (%"class.std::__1::basic_ostream"*)* @_ZTv0_n24_NSt3__113basic_ostreamIcNS_11char_traitsIcEEED0Ev to i8*)] }, comdat, align 8
@_ZTSNSt3__118basic_stringstreamIcNS_11char_traitsIcEENS_9allocatorIcEEEE = weak_odr constant [69 x i8] c"NSt3__118basic_stringstreamIcNS_11char_traitsIcEENS_9allocatorIcEEEE\00", comdat, align 1
@_ZTINSt3__118basic_stringstreamIcNS_11char_traitsIcEENS_9allocatorIcEEEE = weak_odr constant { i8*, i8*, i8* } { i8* bitcast (i8** getelementptr inbounds (i8*, i8** @_ZTVN10__cxxabiv120__si_class_type_infoE, i64 2) to i8*), i8* getelementptr inbounds ([69 x i8], [69 x i8]* @_ZTSNSt3__118basic_stringstreamIcNS_11char_traitsIcEENS_9allocatorIcEEEE, i32 0, i32 0), i8* bitcast ({ i8*, i8*, i32, i32, i8*, i64, i8*, i64 }* @_ZTINSt3__114basic_iostreamIcNS_11char_traitsIcEEEE to i8*) }, comdat, align 8
@_ZTVNSt3__119basic_ostringstreamIcNS_11char_traitsIcEENS_9allocatorIcEEEE = weak_odr unnamed_addr constant { [5 x i8*], [5 x i8*] } { [5 x i8*] [i8* inttoptr (i64 112 to i8*), i8* null, i8* bitcast ({ i8*, i8*, i8* }* @_ZTINSt3__119basic_ostringstreamIcNS_11char_traitsIcEENS_9allocatorIcEEEE to i8*), i8* bitcast (void (%"class.std::__1::basic_ostringstream"*)* @_ZNSt3__119basic_ostringstreamIcNS_11char_traitsIcEENS_9allocatorIcEEED1Ev to i8*), i8* bitcast (void (%"class.std::__1::basic_ostringstream"*)* @_ZNSt3__119basic_ostringstreamIcNS_11char_traitsIcEENS_9allocatorIcEEED0Ev to i8*)], [5 x i8*] [i8* inttoptr (i64 -112 to i8*), i8* inttoptr (i64 -112 to i8*), i8* bitcast ({ i8*, i8*, i8* }* @_ZTINSt3__119basic_ostringstreamIcNS_11char_traitsIcEENS_9allocatorIcEEEE to i8*), i8* bitcast (void (%"class.std::__1::basic_ostringstream"*)* @_ZTv0_n24_NSt3__119basic_ostringstreamIcNS_11char_traitsIcEENS_9allocatorIcEEED1Ev to i8*), i8* bitcast (void (%"class.std::__1::basic_ostringstream"*)* @_ZTv0_n24_NSt3__119basic_ostringstreamIcNS_11char_traitsIcEENS_9allocatorIcEEED0Ev to i8*)] }, comdat, align 8
@_ZTTNSt3__119basic_ostringstreamIcNS_11char_traitsIcEENS_9allocatorIcEEEE = weak_odr unnamed_addr constant [4 x i8*] [i8* bitcast (i8** getelementptr inbounds ({ [5 x i8*], [5 x i8*] }, { [5 x i8*], [5 x i8*] }* @_ZTVNSt3__119basic_ostringstreamIcNS_11char_traitsIcEENS_9allocatorIcEEEE, i32 0, inrange i32 0, i32 3) to i8*), i8* bitcast (i8** getelementptr inbounds ({ [5 x i8*], [5 x i8*] }, { [5 x i8*], [5 x i8*] }* @_ZTCNSt3__119basic_ostringstreamIcNS_11char_traitsIcEENS_9allocatorIcEEEE0_NS_13basic_ostreamIcS2_EE, i32 0, inrange i32 0, i32 3) to i8*), i8* bitcast (i8** getelementptr inbounds ({ [5 x i8*], [5 x i8*] }, { [5 x i8*], [5 x i8*] }* @_ZTCNSt3__119basic_ostringstreamIcNS_11char_traitsIcEENS_9allocatorIcEEEE0_NS_13basic_ostreamIcS2_EE, i32 0, inrange i32 1, i32 3) to i8*), i8* bitcast (i8** getelementptr inbounds ({ [5 x i8*], [5 x i8*] }, { [5 x i8*], [5 x i8*] }* @_ZTVNSt3__119basic_ostringstreamIcNS_11char_traitsIcEENS_9allocatorIcEEEE, i32 0, inrange i32 1, i32 3) to i8*)], comdat, align 8
@_ZTCNSt3__119basic_ostringstreamIcNS_11char_traitsIcEENS_9allocatorIcEEEE0_NS_13basic_ostreamIcS2_EE = weak_odr unnamed_addr constant { [5 x i8*], [5 x i8*] } { [5 x i8*] [i8* inttoptr (i64 112 to i8*), i8* null, i8* bitcast ({ i8*, i8*, i32, i32, i8*, i64 }* @_ZTINSt3__113basic_ostreamIcNS_11char_traitsIcEEEE to i8*), i8* bitcast (void (%"class.std::__1::basic_ostream"*)* @_ZNSt3__113basic_ostreamIcNS_11char_traitsIcEEED1Ev to i8*), i8* bitcast (void (%"class.std::__1::basic_ostream"*)* @_ZNSt3__113basic_ostreamIcNS_11char_traitsIcEEED0Ev to i8*)], [5 x i8*] [i8* inttoptr (i64 -112 to i8*), i8* inttoptr (i64 -112 to i8*), i8* bitcast ({ i8*, i8*, i32, i32, i8*, i64 }* @_ZTINSt3__113basic_ostreamIcNS_11char_traitsIcEEEE to i8*), i8* bitcast (void (%"class.std::__1::basic_ostream"*)* @_ZTv0_n24_NSt3__113basic_ostreamIcNS_11char_traitsIcEEED1Ev to i8*), i8* bitcast (void (%"class.std::__1::basic_ostream"*)* @_ZTv0_n24_NSt3__113basic_ostreamIcNS_11char_traitsIcEEED0Ev to i8*)] }, comdat, align 8
@_ZTSNSt3__119basic_ostringstreamIcNS_11char_traitsIcEENS_9allocatorIcEEEE = weak_odr constant [70 x i8] c"NSt3__119basic_ostringstreamIcNS_11char_traitsIcEENS_9allocatorIcEEEE\00", comdat, align 1
@_ZTINSt3__119basic_ostringstreamIcNS_11char_traitsIcEENS_9allocatorIcEEEE = weak_odr constant { i8*, i8*, i8* } { i8* bitcast (i8** getelementptr inbounds (i8*, i8** @_ZTVN10__cxxabiv120__si_class_type_infoE, i64 2) to i8*), i8* getelementptr inbounds ([70 x i8], [70 x i8]* @_ZTSNSt3__119basic_ostringstreamIcNS_11char_traitsIcEENS_9allocatorIcEEEE, i32 0, i32 0), i8* bitcast ({ i8*, i8*, i32, i32, i8*, i64 }* @_ZTINSt3__113basic_ostreamIcNS_11char_traitsIcEEEE to i8*) }, comdat, align 8
@_ZTVNSt3__119basic_istringstreamIcNS_11char_traitsIcEENS_9allocatorIcEEEE = weak_odr unnamed_addr constant { [5 x i8*], [5 x i8*] } { [5 x i8*] [i8* inttoptr (i64 120 to i8*), i8* null, i8* bitcast ({ i8*, i8*, i8* }* @_ZTINSt3__119basic_istringstreamIcNS_11char_traitsIcEENS_9allocatorIcEEEE to i8*), i8* bitcast (void (%"class.std::__1::basic_istringstream"*)* @_ZNSt3__119basic_istringstreamIcNS_11char_traitsIcEENS_9allocatorIcEEED1Ev to i8*), i8* bitcast (void (%"class.std::__1::basic_istringstream"*)* @_ZNSt3__119basic_istringstreamIcNS_11char_traitsIcEENS_9allocatorIcEEED0Ev to i8*)], [5 x i8*] [i8* inttoptr (i64 -120 to i8*), i8* inttoptr (i64 -120 to i8*), i8* bitcast ({ i8*, i8*, i8* }* @_ZTINSt3__119basic_istringstreamIcNS_11char_traitsIcEENS_9allocatorIcEEEE to i8*), i8* bitcast (void (%"class.std::__1::basic_istringstream"*)* @_ZTv0_n24_NSt3__119basic_istringstreamIcNS_11char_traitsIcEENS_9allocatorIcEEED1Ev to i8*), i8* bitcast (void (%"class.std::__1::basic_istringstream"*)* @_ZTv0_n24_NSt3__119basic_istringstreamIcNS_11char_traitsIcEENS_9allocatorIcEEED0Ev to i8*)] }, comdat, align 8
@_ZTTNSt3__119basic_istringstreamIcNS_11char_traitsIcEENS_9allocatorIcEEEE = weak_odr unnamed_addr constant [4 x i8*] [i8* bitcast (i8** getelementptr inbounds ({ [5 x i8*], [5 x i8*] }, { [5 x i8*], [5 x i8*] }* @_ZTVNSt3__119basic_istringstreamIcNS_11char_traitsIcEENS_9allocatorIcEEEE, i32 0, inrange i32 0, i32 3) to i8*), i8* bitcast (i8** getelementptr inbounds ({ [5 x i8*], [5 x i8*] }, { [5 x i8*], [5 x i8*] }* @_ZTCNSt3__119basic_istringstreamIcNS_11char_traitsIcEENS_9allocatorIcEEEE0_NS_13basic_istreamIcS2_EE, i32 0, inrange i32 0, i32 3) to i8*), i8* bitcast (i8** getelementptr inbounds ({ [5 x i8*], [5 x i8*] }, { [5 x i8*], [5 x i8*] }* @_ZTCNSt3__119basic_istringstreamIcNS_11char_traitsIcEENS_9allocatorIcEEEE0_NS_13basic_istreamIcS2_EE, i32 0, inrange i32 1, i32 3) to i8*), i8* bitcast (i8** getelementptr inbounds ({ [5 x i8*], [5 x i8*] }, { [5 x i8*], [5 x i8*] }* @_ZTVNSt3__119basic_istringstreamIcNS_11char_traitsIcEENS_9allocatorIcEEEE, i32 0, inrange i32 1, i32 3) to i8*)], comdat, align 8
@_ZTCNSt3__119basic_istringstreamIcNS_11char_traitsIcEENS_9allocatorIcEEEE0_NS_13basic_istreamIcS2_EE = weak_odr unnamed_addr constant { [5 x i8*], [5 x i8*] } { [5 x i8*] [i8* inttoptr (i64 120 to i8*), i8* null, i8* bitcast ({ i8*, i8*, i32, i32, i8*, i64 }* @_ZTINSt3__113basic_istreamIcNS_11char_traitsIcEEEE to i8*), i8* bitcast (void (%"class.std::__1::basic_istream"*)* @_ZNSt3__113basic_istreamIcNS_11char_traitsIcEEED1Ev to i8*), i8* bitcast (void (%"class.std::__1::basic_istream"*)* @_ZNSt3__113basic_istreamIcNS_11char_traitsIcEEED0Ev to i8*)], [5 x i8*] [i8* inttoptr (i64 -120 to i8*), i8* inttoptr (i64 -120 to i8*), i8* bitcast ({ i8*, i8*, i32, i32, i8*, i64 }* @_ZTINSt3__113basic_istreamIcNS_11char_traitsIcEEEE to i8*), i8* bitcast (void (%"class.std::__1::basic_istream"*)* @_ZTv0_n24_NSt3__113basic_istreamIcNS_11char_traitsIcEEED1Ev to i8*), i8* bitcast (void (%"class.std::__1::basic_istream"*)* @_ZTv0_n24_NSt3__113basic_istreamIcNS_11char_traitsIcEEED0Ev to i8*)] }, comdat, align 8
@_ZTSNSt3__119basic_istringstreamIcNS_11char_traitsIcEENS_9allocatorIcEEEE = weak_odr constant [70 x i8] c"NSt3__119basic_istringstreamIcNS_11char_traitsIcEENS_9allocatorIcEEEE\00", comdat, align 1
@_ZTINSt3__119basic_istringstreamIcNS_11char_traitsIcEENS_9allocatorIcEEEE = weak_odr constant { i8*, i8*, i8* } { i8* bitcast (i8** getelementptr inbounds (i8*, i8** @_ZTVN10__cxxabiv120__si_class_type_infoE, i64 2) to i8*), i8* getelementptr inbounds ([70 x i8], [70 x i8]* @_ZTSNSt3__119basic_istringstreamIcNS_11char_traitsIcEENS_9allocatorIcEEEE, i32 0, i32 0), i8* bitcast ({ i8*, i8*, i32, i32, i8*, i64 }* @_ZTINSt3__113basic_istreamIcNS_11char_traitsIcEEEE to i8*) }, comdat, align 8
@_ZTVNSt3__114basic_ifstreamIcNS_11char_traitsIcEEEE = weak_odr unnamed_addr constant { [5 x i8*], [5 x i8*] } { [5 x i8*] [i8* inttoptr (i64 184 to i8*), i8* null, i8* bitcast ({ i8*, i8*, i8* }* @_ZTINSt3__114basic_ifstreamIcNS_11char_traitsIcEEEE to i8*), i8* bitcast (void (%"class.std::__1::basic_ifstream"*)* @_ZNSt3__114basic_ifstreamIcNS_11char_traitsIcEEED1Ev to i8*), i8* bitcast (void (%"class.std::__1::basic_ifstream"*)* @_ZNSt3__114basic_ifstreamIcNS_11char_traitsIcEEED0Ev to i8*)], [5 x i8*] [i8* inttoptr (i64 -184 to i8*), i8* inttoptr (i64 -184 to i8*), i8* bitcast ({ i8*, i8*, i8* }* @_ZTINSt3__114basic_ifstreamIcNS_11char_traitsIcEEEE to i8*), i8* bitcast (void (%"class.std::__1::basic_ifstream"*)* @_ZTv0_n24_NSt3__114basic_ifstreamIcNS_11char_traitsIcEEED1Ev to i8*), i8* bitcast (void (%"class.std::__1::basic_ifstream"*)* @_ZTv0_n24_NSt3__114basic_ifstreamIcNS_11char_traitsIcEEED0Ev to i8*)] }, comdat, align 8
@_ZTTNSt3__114basic_ifstreamIcNS_11char_traitsIcEEEE = weak_odr unnamed_addr constant [4 x i8*] [i8* bitcast (i8** getelementptr inbounds ({ [5 x i8*], [5 x i8*] }, { [5 x i8*], [5 x i8*] }* @_ZTVNSt3__114basic_ifstreamIcNS_11char_traitsIcEEEE, i32 0, inrange i32 0, i32 3) to i8*), i8* bitcast (i8** getelementptr inbounds ({ [5 x i8*], [5 x i8*] }, { [5 x i8*], [5 x i8*] }* @_ZTCNSt3__114basic_ifstreamIcNS_11char_traitsIcEEEE0_NS_13basic_istreamIcS2_EE, i32 0, inrange i32 0, i32 3) to i8*), i8* bitcast (i8** getelementptr inbounds ({ [5 x i8*], [5 x i8*] }, { [5 x i8*], [5 x i8*] }* @_ZTCNSt3__114basic_ifstreamIcNS_11char_traitsIcEEEE0_NS_13basic_istreamIcS2_EE, i32 0, inrange i32 1, i32 3) to i8*), i8* bitcast (i8** getelementptr inbounds ({ [5 x i8*], [5 x i8*] }, { [5 x i8*], [5 x i8*] }* @_ZTVNSt3__114basic_ifstreamIcNS_11char_traitsIcEEEE, i32 0, inrange i32 1, i32 3) to i8*)], comdat, align 8
@_ZTCNSt3__114basic_ifstreamIcNS_11char_traitsIcEEEE0_NS_13basic_istreamIcS2_EE = weak_odr unnamed_addr constant { [5 x i8*], [5 x i8*] } { [5 x i8*] [i8* inttoptr (i64 184 to i8*), i8* null, i8* bitcast ({ i8*, i8*, i32, i32, i8*, i64 }* @_ZTINSt3__113basic_istreamIcNS_11char_traitsIcEEEE to i8*), i8* bitcast (void (%"class.std::__1::basic_istream"*)* @_ZNSt3__113basic_istreamIcNS_11char_traitsIcEEED1Ev to i8*), i8* bitcast (void (%"class.std::__1::basic_istream"*)* @_ZNSt3__113basic_istreamIcNS_11char_traitsIcEEED0Ev to i8*)], [5 x i8*] [i8* inttoptr (i64 -184 to i8*), i8* inttoptr (i64 -184 to i8*), i8* bitcast ({ i8*, i8*, i32, i32, i8*, i64 }* @_ZTINSt3__113basic_istreamIcNS_11char_traitsIcEEEE to i8*), i8* bitcast (void (%"class.std::__1::basic_istream"*)* @_ZTv0_n24_NSt3__113basic_istreamIcNS_11char_traitsIcEEED1Ev to i8*), i8* bitcast (void (%"class.std::__1::basic_istream"*)* @_ZTv0_n24_NSt3__113basic_istreamIcNS_11char_traitsIcEEED0Ev to i8*)] }, comdat, align 8
@_ZTSNSt3__114basic_ifstreamIcNS_11char_traitsIcEEEE = weak_odr constant [48 x i8] c"NSt3__114basic_ifstreamIcNS_11char_traitsIcEEEE\00", comdat, align 1
@_ZTINSt3__114basic_ifstreamIcNS_11char_traitsIcEEEE = weak_odr constant { i8*, i8*, i8* } { i8* bitcast (i8** getelementptr inbounds (i8*, i8** @_ZTVN10__cxxabiv120__si_class_type_infoE, i64 2) to i8*), i8* getelementptr inbounds ([48 x i8], [48 x i8]* @_ZTSNSt3__114basic_ifstreamIcNS_11char_traitsIcEEEE, i32 0, i32 0), i8* bitcast ({ i8*, i8*, i32, i32, i8*, i64 }* @_ZTINSt3__113basic_istreamIcNS_11char_traitsIcEEEE to i8*) }, comdat, align 8
@_ZTVNSt3__114basic_ofstreamIcNS_11char_traitsIcEEEE = weak_odr unnamed_addr constant { [5 x i8*], [5 x i8*] } { [5 x i8*] [i8* inttoptr (i64 176 to i8*), i8* null, i8* bitcast ({ i8*, i8*, i8* }* @_ZTINSt3__114basic_ofstreamIcNS_11char_traitsIcEEEE to i8*), i8* bitcast (void (%"class.std::__1::basic_ofstream"*)* @_ZNSt3__114basic_ofstreamIcNS_11char_traitsIcEEED1Ev to i8*), i8* bitcast (void (%"class.std::__1::basic_ofstream"*)* @_ZNSt3__114basic_ofstreamIcNS_11char_traitsIcEEED0Ev to i8*)], [5 x i8*] [i8* inttoptr (i64 -176 to i8*), i8* inttoptr (i64 -176 to i8*), i8* bitcast ({ i8*, i8*, i8* }* @_ZTINSt3__114basic_ofstreamIcNS_11char_traitsIcEEEE to i8*), i8* bitcast (void (%"class.std::__1::basic_ofstream"*)* @_ZTv0_n24_NSt3__114basic_ofstreamIcNS_11char_traitsIcEEED1Ev to i8*), i8* bitcast (void (%"class.std::__1::basic_ofstream"*)* @_ZTv0_n24_NSt3__114basic_ofstreamIcNS_11char_traitsIcEEED0Ev to i8*)] }, comdat, align 8
@_ZTTNSt3__114basic_ofstreamIcNS_11char_traitsIcEEEE = weak_odr unnamed_addr constant [4 x i8*] [i8* bitcast (i8** getelementptr inbounds ({ [5 x i8*], [5 x i8*] }, { [5 x i8*], [5 x i8*] }* @_ZTVNSt3__114basic_ofstreamIcNS_11char_traitsIcEEEE, i32 0, inrange i32 0, i32 3) to i8*), i8* bitcast (i8** getelementptr inbounds ({ [5 x i8*], [5 x i8*] }, { [5 x i8*], [5 x i8*] }* @_ZTCNSt3__114basic_ofstreamIcNS_11char_traitsIcEEEE0_NS_13basic_ostreamIcS2_EE, i32 0, inrange i32 0, i32 3) to i8*), i8* bitcast (i8** getelementptr inbounds ({ [5 x i8*], [5 x i8*] }, { [5 x i8*], [5 x i8*] }* @_ZTCNSt3__114basic_ofstreamIcNS_11char_traitsIcEEEE0_NS_13basic_ostreamIcS2_EE, i32 0, inrange i32 1, i32 3) to i8*), i8* bitcast (i8** getelementptr inbounds ({ [5 x i8*], [5 x i8*] }, { [5 x i8*], [5 x i8*] }* @_ZTVNSt3__114basic_ofstreamIcNS_11char_traitsIcEEEE, i32 0, inrange i32 1, i32 3) to i8*)], comdat, align 8
@_ZTCNSt3__114basic_ofstreamIcNS_11char_traitsIcEEEE0_NS_13basic_ostreamIcS2_EE = weak_odr unnamed_addr constant { [5 x i8*], [5 x i8*] } { [5 x i8*] [i8* inttoptr (i64 176 to i8*), i8* null, i8* bitcast ({ i8*, i8*, i32, i32, i8*, i64 }* @_ZTINSt3__113basic_ostreamIcNS_11char_traitsIcEEEE to i8*), i8* bitcast (void (%"class.std::__1::basic_ostream"*)* @_ZNSt3__113basic_ostreamIcNS_11char_traitsIcEEED1Ev to i8*), i8* bitcast (void (%"class.std::__1::basic_ostream"*)* @_ZNSt3__113basic_ostreamIcNS_11char_traitsIcEEED0Ev to i8*)], [5 x i8*] [i8* inttoptr (i64 -176 to i8*), i8* inttoptr (i64 -176 to i8*), i8* bitcast ({ i8*, i8*, i32, i32, i8*, i64 }* @_ZTINSt3__113basic_ostreamIcNS_11char_traitsIcEEEE to i8*), i8* bitcast (void (%"class.std::__1::basic_ostream"*)* @_ZTv0_n24_NSt3__113basic_ostreamIcNS_11char_traitsIcEEED1Ev to i8*), i8* bitcast (void (%"class.std::__1::basic_ostream"*)* @_ZTv0_n24_NSt3__113basic_ostreamIcNS_11char_traitsIcEEED0Ev to i8*)] }, comdat, align 8
@_ZTSNSt3__114basic_ofstreamIcNS_11char_traitsIcEEEE = weak_odr constant [48 x i8] c"NSt3__114basic_ofstreamIcNS_11char_traitsIcEEEE\00", comdat, align 1
@_ZTINSt3__114basic_ofstreamIcNS_11char_traitsIcEEEE = weak_odr constant { i8*, i8*, i8* } { i8* bitcast (i8** getelementptr inbounds (i8*, i8** @_ZTVN10__cxxabiv120__si_class_type_infoE, i64 2) to i8*), i8* getelementptr inbounds ([48 x i8], [48 x i8]* @_ZTSNSt3__114basic_ofstreamIcNS_11char_traitsIcEEEE, i32 0, i32 0), i8* bitcast ({ i8*, i8*, i32, i32, i8*, i64 }* @_ZTINSt3__113basic_ostreamIcNS_11char_traitsIcEEEE to i8*) }, comdat, align 8
@_ZTSNSt3__113basic_filebufIcNS_11char_traitsIcEEEE = weak_odr constant [47 x i8] c"NSt3__113basic_filebufIcNS_11char_traitsIcEEEE\00", comdat, align 1
@_ZTINSt3__113basic_filebufIcNS_11char_traitsIcEEEE = weak_odr constant { i8*, i8*, i8* } { i8* bitcast (i8** getelementptr inbounds (i8*, i8** @_ZTVN10__cxxabiv120__si_class_type_infoE, i64 2) to i8*), i8* getelementptr inbounds ([47 x i8], [47 x i8]* @_ZTSNSt3__113basic_filebufIcNS_11char_traitsIcEEEE, i32 0, i32 0), i8* bitcast ({ i8*, i8* }* @_ZTINSt3__115basic_streambufIcNS_11char_traitsIcEEEE to i8*) }, comdat, align 8
@_ZTISt8bad_cast = external constant i8*
@_ZNSt3__15ctypeIcE2idE = external global %"class.std::__1::locale::id", align 8
@_ZNSt3__17num_getIcNS_19istreambuf_iteratorIcNS_11char_traitsIcEEEEE2idE = external global %"class.std::__1::locale::id", align 8
@_ZNSt3__15ctypeIwE2idE = external global %"class.std::__1::locale::id", align 8
@_ZNSt3__17num_getIwNS_19istreambuf_iteratorIwNS_11char_traitsIwEEEEE2idE = external global %"class.std::__1::locale::id", align 8
@_ZNSt3__17num_putIcNS_19ostreambuf_iteratorIcNS_11char_traitsIcEEEEE2idE = external global %"class.std::__1::locale::id", align 8
@_ZNSt3__17num_putIwNS_19ostreambuf_iteratorIwNS_11char_traitsIwEEEEE2idE = external global %"class.std::__1::locale::id", align 8
@_ZNSt3__17codecvtIcc11__mbstate_tE2idE = external global %"class.std::__1::locale::id", align 8
@.str.1 = private unnamed_addr constant [2 x i8] c"w\00", align 1
@.str.2 = private unnamed_addr constant [2 x i8] c"a\00", align 1
@.str.3 = private unnamed_addr constant [2 x i8] c"r\00", align 1
@.str.4 = private unnamed_addr constant [3 x i8] c"r+\00", align 1
@.str.5 = private unnamed_addr constant [3 x i8] c"w+\00", align 1
@.str.6 = private unnamed_addr constant [3 x i8] c"a+\00", align 1
@.str.7 = private unnamed_addr constant [3 x i8] c"wb\00", align 1
@.str.8 = private unnamed_addr constant [3 x i8] c"ab\00", align 1
@.str.9 = private unnamed_addr constant [3 x i8] c"rb\00", align 1
@.str.10 = private unnamed_addr constant [4 x i8] c"r+b\00", align 1
@.str.11 = private unnamed_addr constant [4 x i8] c"w+b\00", align 1
@.str.12 = private unnamed_addr constant [4 x i8] c"a+b\00", align 1

@_ZNSt3__19basic_iosIcNS_11char_traitsIcEEED1Ev = weak_odr unnamed_addr alias void (%"class.std::__1::basic_ios"*), void (%"class.std::__1::basic_ios"*)* @_ZNSt3__19basic_iosIcNS_11char_traitsIcEEED2Ev
@_ZNSt3__19basic_iosIwNS_11char_traitsIwEEED1Ev = weak_odr unnamed_addr alias void (%"class.std::__1::basic_ios.0"*), void (%"class.std::__1::basic_ios.0"*)* @_ZNSt3__19basic_iosIwNS_11char_traitsIwEEED2Ev
@_ZNSt3__115basic_streambufIcNS_11char_traitsIcEEED1Ev = weak_odr unnamed_addr alias void (%"class.std::__1::basic_streambuf"*), void (%"class.std::__1::basic_streambuf"*)* @_ZNSt3__115basic_streambufIcNS_11char_traitsIcEEED2Ev
@_ZNSt3__115basic_streambufIcNS_11char_traitsIcEEEC1Ev = weak_odr unnamed_addr alias void (%"class.std::__1::basic_streambuf"*), void (%"class.std::__1::basic_streambuf"*)* @_ZNSt3__115basic_streambufIcNS_11char_traitsIcEEEC2Ev
@_ZNSt3__115basic_streambufIcNS_11char_traitsIcEEEC1ERKS3_ = weak_odr unnamed_addr alias void (%"class.std::__1::basic_streambuf"*, %"class.std::__1::basic_streambuf"*), void (%"class.std::__1::basic_streambuf"*, %"class.std::__1::basic_streambuf"*)* @_ZNSt3__115basic_streambufIcNS_11char_traitsIcEEEC2ERKS3_
@_ZNSt3__115basic_streambufIwNS_11char_traitsIwEEED1Ev = weak_odr unnamed_addr alias void (%"class.std::__1::basic_streambuf.4"*), void (%"class.std::__1::basic_streambuf.4"*)* @_ZNSt3__115basic_streambufIwNS_11char_traitsIwEEED2Ev
@_ZNSt3__115basic_streambufIwNS_11char_traitsIwEEEC1Ev = weak_odr unnamed_addr alias void (%"class.std::__1::basic_streambuf.4"*), void (%"class.std::__1::basic_streambuf.4"*)* @_ZNSt3__115basic_streambufIwNS_11char_traitsIwEEEC2Ev
@_ZNSt3__115basic_streambufIwNS_11char_traitsIwEEEC1ERKS3_ = weak_odr unnamed_addr alias void (%"class.std::__1::basic_streambuf.4"*, %"class.std::__1::basic_streambuf.4"*), void (%"class.std::__1::basic_streambuf.4"*, %"class.std::__1::basic_streambuf.4"*)* @_ZNSt3__115basic_streambufIwNS_11char_traitsIwEEEC2ERKS3_
@_ZNSt3__113basic_istreamIcNS_11char_traitsIcEEE6sentryC1ERS3_b = weak_odr unnamed_addr alias void (%"class.std::__1::basic_istream<char, std::__1::char_traits<char>>::sentry"*, %"class.std::__1::basic_istream"*, i1), void (%"class.std::__1::basic_istream<char, std::__1::char_traits<char>>::sentry"*, %"class.std::__1::basic_istream"*, i1)* @_ZNSt3__113basic_istreamIcNS_11char_traitsIcEEE6sentryC2ERS3_b
@_ZNSt3__113basic_istreamIwNS_11char_traitsIwEEE6sentryC1ERS3_b = weak_odr unnamed_addr alias void (%"class.std::__1::basic_istream<wchar_t, std::__1::char_traits<wchar_t>>::sentry"*, %"class.std::__1::basic_istream.5"*, i1), void (%"class.std::__1::basic_istream<wchar_t, std::__1::char_traits<wchar_t>>::sentry"*, %"class.std::__1::basic_istream.5"*, i1)* @_ZNSt3__113basic_istreamIwNS_11char_traitsIwEEE6sentryC2ERS3_b
@_ZNSt3__113basic_ostreamIcNS_11char_traitsIcEEE6sentryC1ERS3_ = weak_odr unnamed_addr alias void (%"class.std::__1::basic_ostream<char, std::__1::char_traits<char>>::sentry"*, %"class.std::__1::basic_ostream"*), void (%"class.std::__1::basic_ostream<char, std::__1::char_traits<char>>::sentry"*, %"class.std::__1::basic_ostream"*)* @_ZNSt3__113basic_ostreamIcNS_11char_traitsIcEEE6sentryC2ERS3_
@_ZNSt3__113basic_ostreamIcNS_11char_traitsIcEEE6sentryD1Ev = weak_odr unnamed_addr alias void (%"class.std::__1::basic_ostream<char, std::__1::char_traits<char>>::sentry"*), void (%"class.std::__1::basic_ostream<char, std::__1::char_traits<char>>::sentry"*)* @_ZNSt3__113basic_ostreamIcNS_11char_traitsIcEEE6sentryD2Ev
@_ZNSt3__113basic_ostreamIwNS_11char_traitsIwEEE6sentryC1ERS3_ = weak_odr unnamed_addr alias void (%"class.std::__1::basic_ostream<wchar_t, std::__1::char_traits<wchar_t>>::sentry"*, %"class.std::__1::basic_ostream.1"*), void (%"class.std::__1::basic_ostream<wchar_t, std::__1::char_traits<wchar_t>>::sentry"*, %"class.std::__1::basic_ostream.1"*)* @_ZNSt3__113basic_ostreamIwNS_11char_traitsIwEEE6sentryC2ERS3_
@_ZNSt3__113basic_ostreamIwNS_11char_traitsIwEEE6sentryD1Ev = weak_odr unnamed_addr alias void (%"class.std::__1::basic_ostream<wchar_t, std::__1::char_traits<wchar_t>>::sentry"*), void (%"class.std::__1::basic_ostream<wchar_t, std::__1::char_traits<wchar_t>>::sentry"*)* @_ZNSt3__113basic_ostreamIwNS_11char_traitsIwEEE6sentryD2Ev
@_ZNSt3__115basic_stringbufIcNS_11char_traitsIcEENS_9allocatorIcEEEC1EOS5_ = weak_odr unnamed_addr alias void (%"class.std::__1::basic_stringbuf"*, %"class.std::__1::basic_stringbuf"*), void (%"class.std::__1::basic_stringbuf"*, %"class.std::__1::basic_stringbuf"*)* @_ZNSt3__115basic_stringbufIcNS_11char_traitsIcEENS_9allocatorIcEEEC2EOS5_
@_ZNSt3__113basic_filebufIcNS_11char_traitsIcEEEC1Ev = weak_odr unnamed_addr alias void (%"class.std::__1::basic_filebuf"*), void (%"class.std::__1::basic_filebuf"*)* @_ZNSt3__113basic_filebufIcNS_11char_traitsIcEEEC2Ev
@_ZNSt3__113basic_filebufIcNS_11char_traitsIcEEEC1EOS3_ = weak_odr unnamed_addr alias void (%"class.std::__1::basic_filebuf"*, %"class.std::__1::basic_filebuf"*), void (%"class.std::__1::basic_filebuf"*, %"class.std::__1::basic_filebuf"*)* @_ZNSt3__113basic_filebufIcNS_11char_traitsIcEEEC2EOS3_
@_ZNSt3__113basic_filebufIcNS_11char_traitsIcEEED1Ev = weak_odr unnamed_addr alias void (%"class.std::__1::basic_filebuf"*), void (%"class.std::__1::basic_filebuf"*)* @_ZNSt3__113basic_filebufIcNS_11char_traitsIcEEED2Ev

; Function Attrs: nounwind uwtable
define weak_odr void @_ZNSt3__19basic_iosIcNS_11char_traitsIcEEED2Ev(%"class.std::__1::basic_ios"* %0) unnamed_addr #0 comdat($_ZNSt3__19basic_iosIcNS_11char_traitsIcEEED5Ev) align 2 {
  %2 = getelementptr %"class.std::__1::basic_ios", %"class.std::__1::basic_ios"* %0, i64 0, i32 0
  tail call void @_ZNSt3__18ios_baseD2Ev(%"class.std::__1::ios_base"* %2) #14
  ret void
}

; Function Attrs: nounwind
declare void @_ZNSt3__18ios_baseD2Ev(%"class.std::__1::ios_base"*) unnamed_addr #1

; Function Attrs: nounwind uwtable
define weak_odr void @_ZNSt3__19basic_iosIcNS_11char_traitsIcEEED0Ev(%"class.std::__1::basic_ios"* %0) unnamed_addr #0 comdat($_ZNSt3__19basic_iosIcNS_11char_traitsIcEEED5Ev) align 2 {
  %2 = getelementptr %"class.std::__1::basic_ios", %"class.std::__1::basic_ios"* %0, i64 0, i32 0
  tail call void @_ZNSt3__18ios_baseD2Ev(%"class.std::__1::ios_base"* %2) #14
  %3 = bitcast %"class.std::__1::basic_ios"* %0 to i8*
  tail call void @_ZdlPv(i8* %3) #15
  ret void
}

; Function Attrs: nobuiltin nounwind
declare void @_ZdlPv(i8*) local_unnamed_addr #2

; Function Attrs: uwtable
define weak_odr nonnull align 8 dereferenceable(148) %"class.std::__1::basic_ios"* @_ZNSt3__19basic_iosIcNS_11char_traitsIcEEE7copyfmtERKS3_(%"class.std::__1::basic_ios"* %0, %"class.std::__1::basic_ios"* nonnull align 8 dereferenceable(148) %1) local_unnamed_addr #3 comdat align 2 {
  %3 = icmp eq %"class.std::__1::basic_ios"* %0, %1
  br i1 %3, label %20, label %4

4:                                                ; preds = %2
  %5 = getelementptr %"class.std::__1::basic_ios", %"class.std::__1::basic_ios"* %0, i64 0, i32 0
  tail call void @_ZNSt3__18ios_base16__call_callbacksENS0_5eventE(%"class.std::__1::ios_base"* %5, i32 0)
  %6 = getelementptr inbounds %"class.std::__1::basic_ios", %"class.std::__1::basic_ios"* %1, i64 0, i32 0
  tail call void @_ZNSt3__18ios_base7copyfmtERKS0_(%"class.std::__1::ios_base"* %5, %"class.std::__1::ios_base"* nonnull align 8 dereferenceable(136) %6)
  %7 = getelementptr inbounds %"class.std::__1::basic_ios", %"class.std::__1::basic_ios"* %1, i64 0, i32 1
  %8 = bitcast %"class.std::__1::basic_ostream"** %7 to i64*
  %9 = load i64, i64* %8, align 8, !tbaa !3
  %10 = getelementptr inbounds %"class.std::__1::basic_ios", %"class.std::__1::basic_ios"* %0, i64 0, i32 1
  %11 = bitcast %"class.std::__1::basic_ostream"** %10 to i64*
  store i64 %9, i64* %11, align 8, !tbaa !3
  %12 = getelementptr inbounds %"class.std::__1::basic_ios", %"class.std::__1::basic_ios"* %1, i64 0, i32 2
  %13 = load i32, i32* %12, align 8, !tbaa !9
  %14 = getelementptr inbounds %"class.std::__1::basic_ios", %"class.std::__1::basic_ios"* %0, i64 0, i32 2
  store i32 %13, i32* %14, align 8, !tbaa !9
  tail call void @_ZNSt3__18ios_base16__call_callbacksENS0_5eventE(%"class.std::__1::ios_base"* %5, i32 2)
  %15 = getelementptr inbounds %"class.std::__1::basic_ios", %"class.std::__1::basic_ios"* %1, i64 0, i32 0, i32 5
  %16 = load i32, i32* %15, align 4, !tbaa !10
  %17 = getelementptr inbounds %"class.std::__1::basic_ios", %"class.std::__1::basic_ios"* %0, i64 0, i32 0, i32 5
  store i32 %16, i32* %17, align 4, !tbaa !10
  %18 = getelementptr inbounds %"class.std::__1::basic_ios", %"class.std::__1::basic_ios"* %0, i64 0, i32 0, i32 4
  %19 = load i32, i32* %18, align 8, !tbaa !13
  tail call void @_ZNSt3__18ios_base5clearEj(%"class.std::__1::ios_base"* %5, i32 %19)
  br label %20

20:                                               ; preds = %2, %4
  ret %"class.std::__1::basic_ios"* %0
}

declare void @_ZNSt3__18ios_base16__call_callbacksENS0_5eventE(%"class.std::__1::ios_base"*, i32) local_unnamed_addr #4

declare void @_ZNSt3__18ios_base7copyfmtERKS0_(%"class.std::__1::ios_base"*, %"class.std::__1::ios_base"* nonnull align 8 dereferenceable(136)) local_unnamed_addr #4

; Function Attrs: nounwind uwtable
define weak_odr void @_ZNSt3__19basic_iosIwNS_11char_traitsIwEEED2Ev(%"class.std::__1::basic_ios.0"* %0) unnamed_addr #0 comdat($_ZNSt3__19basic_iosIwNS_11char_traitsIwEEED5Ev) align 2 {
  %2 = getelementptr %"class.std::__1::basic_ios.0", %"class.std::__1::basic_ios.0"* %0, i64 0, i32 0
  tail call void @_ZNSt3__18ios_baseD2Ev(%"class.std::__1::ios_base"* %2) #14
  ret void
}

; Function Attrs: nounwind uwtable
define weak_odr void @_ZNSt3__19basic_iosIwNS_11char_traitsIwEEED0Ev(%"class.std::__1::basic_ios.0"* %0) unnamed_addr #0 comdat($_ZNSt3__19basic_iosIwNS_11char_traitsIwEEED5Ev) align 2 {
  %2 = getelementptr %"class.std::__1::basic_ios.0", %"class.std::__1::basic_ios.0"* %0, i64 0, i32 0
  tail call void @_ZNSt3__18ios_baseD2Ev(%"class.std::__1::ios_base"* %2) #14
  %3 = bitcast %"class.std::__1::basic_ios.0"* %0 to i8*
  tail call void @_ZdlPv(i8* %3) #15
  ret void
}

; Function Attrs: uwtable
define weak_odr nonnull align 8 dereferenceable(148) %"class.std::__1::basic_ios.0"* @_ZNSt3__19basic_iosIwNS_11char_traitsIwEEE7copyfmtERKS3_(%"class.std::__1::basic_ios.0"* %0, %"class.std::__1::basic_ios.0"* nonnull align 8 dereferenceable(148) %1) local_unnamed_addr #3 comdat align 2 {
  %3 = icmp eq %"class.std::__1::basic_ios.0"* %0, %1
  br i1 %3, label %20, label %4

4:                                                ; preds = %2
  %5 = getelementptr %"class.std::__1::basic_ios.0", %"class.std::__1::basic_ios.0"* %0, i64 0, i32 0
  tail call void @_ZNSt3__18ios_base16__call_callbacksENS0_5eventE(%"class.std::__1::ios_base"* %5, i32 0)
  %6 = getelementptr inbounds %"class.std::__1::basic_ios.0", %"class.std::__1::basic_ios.0"* %1, i64 0, i32 0
  tail call void @_ZNSt3__18ios_base7copyfmtERKS0_(%"class.std::__1::ios_base"* %5, %"class.std::__1::ios_base"* nonnull align 8 dereferenceable(136) %6)
  %7 = getelementptr inbounds %"class.std::__1::basic_ios.0", %"class.std::__1::basic_ios.0"* %1, i64 0, i32 1
  %8 = bitcast %"class.std::__1::basic_ostream.1"** %7 to i64*
  %9 = load i64, i64* %8, align 8, !tbaa !14
  %10 = getelementptr inbounds %"class.std::__1::basic_ios.0", %"class.std::__1::basic_ios.0"* %0, i64 0, i32 1
  %11 = bitcast %"class.std::__1::basic_ostream.1"** %10 to i64*
  store i64 %9, i64* %11, align 8, !tbaa !14
  %12 = getelementptr inbounds %"class.std::__1::basic_ios.0", %"class.std::__1::basic_ios.0"* %1, i64 0, i32 2
  %13 = load i32, i32* %12, align 8, !tbaa !16
  %14 = getelementptr inbounds %"class.std::__1::basic_ios.0", %"class.std::__1::basic_ios.0"* %0, i64 0, i32 2
  store i32 %13, i32* %14, align 8, !tbaa !16
  tail call void @_ZNSt3__18ios_base16__call_callbacksENS0_5eventE(%"class.std::__1::ios_base"* %5, i32 2)
  %15 = getelementptr inbounds %"class.std::__1::basic_ios.0", %"class.std::__1::basic_ios.0"* %1, i64 0, i32 0, i32 5
  %16 = load i32, i32* %15, align 4, !tbaa !10
  %17 = getelementptr inbounds %"class.std::__1::basic_ios.0", %"class.std::__1::basic_ios.0"* %0, i64 0, i32 0, i32 5
  store i32 %16, i32* %17, align 4, !tbaa !10
  %18 = getelementptr inbounds %"class.std::__1::basic_ios.0", %"class.std::__1::basic_ios.0"* %0, i64 0, i32 0, i32 4
  %19 = load i32, i32* %18, align 8, !tbaa !13
  tail call void @_ZNSt3__18ios_base5clearEj(%"class.std::__1::ios_base"* %5, i32 %19)
  br label %20

20:                                               ; preds = %2, %4
  ret %"class.std::__1::basic_ios.0"* %0
}

; Function Attrs: nounwind uwtable
define weak_odr void @_ZNSt3__115basic_streambufIcNS_11char_traitsIcEEED2Ev(%"class.std::__1::basic_streambuf"* %0) unnamed_addr #0 comdat($_ZNSt3__115basic_streambufIcNS_11char_traitsIcEEED5Ev) align 2 {
  %2 = getelementptr %"class.std::__1::basic_streambuf", %"class.std::__1::basic_streambuf"* %0, i64 0, i32 0
  store i32 (...)** bitcast (i8** getelementptr inbounds ({ [16 x i8*] }, { [16 x i8*] }* @_ZTVNSt3__115basic_streambufIcNS_11char_traitsIcEEEE, i64 0, inrange i32 0, i64 2) to i32 (...)**), i32 (...)*** %2, align 8, !tbaa !17
  %3 = getelementptr inbounds %"class.std::__1::basic_streambuf", %"class.std::__1::basic_streambuf"* %0, i64 0, i32 1
  tail call void @_ZNSt3__16localeD1Ev(%"class.std::__1::locale"* nonnull %3) #14
  ret void
}

; Function Attrs: nounwind
declare void @_ZNSt3__16localeD1Ev(%"class.std::__1::locale"*) unnamed_addr #1

; Function Attrs: nounwind uwtable
define weak_odr void @_ZNSt3__115basic_streambufIcNS_11char_traitsIcEEED0Ev(%"class.std::__1::basic_streambuf"* %0) unnamed_addr #0 comdat($_ZNSt3__115basic_streambufIcNS_11char_traitsIcEEED5Ev) align 2 {
  %2 = getelementptr %"class.std::__1::basic_streambuf", %"class.std::__1::basic_streambuf"* %0, i64 0, i32 0
  store i32 (...)** bitcast (i8** getelementptr inbounds ({ [16 x i8*] }, { [16 x i8*] }* @_ZTVNSt3__115basic_streambufIcNS_11char_traitsIcEEEE, i64 0, inrange i32 0, i64 2) to i32 (...)**), i32 (...)*** %2, align 8, !tbaa !17
  %3 = getelementptr inbounds %"class.std::__1::basic_streambuf", %"class.std::__1::basic_streambuf"* %0, i64 0, i32 1
  tail call void @_ZNSt3__16localeD1Ev(%"class.std::__1::locale"* nonnull %3) #14
  %4 = bitcast %"class.std::__1::basic_streambuf"* %0 to i8*
  tail call void @_ZdlPv(i8* %4) #15
  ret void
}

; Function Attrs: inlinehint uwtable
define weak_odr void @_ZNSt3__115basic_streambufIcNS_11char_traitsIcEEE8pubimbueERKNS_6localeE(%"class.std::__1::locale"* noalias sret align 8 %0, %"class.std::__1::basic_streambuf"* %1, %"class.std::__1::locale"* nonnull align 8 dereferenceable(8) %2) local_unnamed_addr #5 comdat align 2 {
  %4 = bitcast %"class.std::__1::basic_streambuf"* %1 to void (%"class.std::__1::basic_streambuf"*, %"class.std::__1::locale"*)***
  %5 = load void (%"class.std::__1::basic_streambuf"*, %"class.std::__1::locale"*)**, void (%"class.std::__1::basic_streambuf"*, %"class.std::__1::locale"*)*** %4, align 8, !tbaa !17
  %6 = getelementptr inbounds void (%"class.std::__1::basic_streambuf"*, %"class.std::__1::locale"*)*, void (%"class.std::__1::basic_streambuf"*, %"class.std::__1::locale"*)** %5, i64 2
  %7 = load void (%"class.std::__1::basic_streambuf"*, %"class.std::__1::locale"*)*, void (%"class.std::__1::basic_streambuf"*, %"class.std::__1::locale"*)** %6, align 8
  tail call void %7(%"class.std::__1::basic_streambuf"* %1, %"class.std::__1::locale"* nonnull align 8 dereferenceable(8) %2)
  %8 = getelementptr inbounds %"class.std::__1::basic_streambuf", %"class.std::__1::basic_streambuf"* %1, i64 0, i32 1
  tail call void @_ZNSt3__16localeC1ERKS0_(%"class.std::__1::locale"* %0, %"class.std::__1::locale"* nonnull align 8 dereferenceable(8) %8) #14
  %9 = tail call nonnull align 8 dereferenceable(8) %"class.std::__1::locale"* @_ZNSt3__16localeaSERKS0_(%"class.std::__1::locale"* nonnull %8, %"class.std::__1::locale"* nonnull align 8 dereferenceable(8) %2) #14
  ret void
}

; Function Attrs: nounwind
declare void @_ZNSt3__16localeC1ERKS0_(%"class.std::__1::locale"*, %"class.std::__1::locale"* nonnull align 8 dereferenceable(8)) unnamed_addr #1

; Function Attrs: nounwind
declare nonnull align 8 dereferenceable(8) %"class.std::__1::locale"* @_ZNSt3__16localeaSERKS0_(%"class.std::__1::locale"*, %"class.std::__1::locale"* nonnull align 8 dereferenceable(8)) local_unnamed_addr #1

; Function Attrs: inlinehint nounwind uwtable
define weak_odr void @_ZNKSt3__115basic_streambufIcNS_11char_traitsIcEEE6getlocEv(%"class.std::__1::locale"* noalias sret align 8 %0, %"class.std::__1::basic_streambuf"* %1) local_unnamed_addr #6 comdat align 2 {
  %3 = getelementptr inbounds %"class.std::__1::basic_streambuf", %"class.std::__1::basic_streambuf"* %1, i64 0, i32 1
  tail call void @_ZNSt3__16localeC1ERKS0_(%"class.std::__1::locale"* %0, %"class.std::__1::locale"* nonnull align 8 dereferenceable(8) %3) #14
  ret void
}

; Function Attrs: inlinehint uwtable
define weak_odr %"class.std::__1::basic_streambuf"* @_ZNSt3__115basic_streambufIcNS_11char_traitsIcEEE9pubsetbufEPcl(%"class.std::__1::basic_streambuf"* %0, i8* %1, i64 %2) local_unnamed_addr #5 comdat align 2 {
  %4 = bitcast %"class.std::__1::basic_streambuf"* %0 to %"class.std::__1::basic_streambuf"* (%"class.std::__1::basic_streambuf"*, i8*, i64)***
  %5 = load %"class.std::__1::basic_streambuf"* (%"class.std::__1::basic_streambuf"*, i8*, i64)**, %"class.std::__1::basic_streambuf"* (%"class.std::__1::basic_streambuf"*, i8*, i64)*** %4, align 8, !tbaa !17
  %6 = getelementptr inbounds %"class.std::__1::basic_streambuf"* (%"class.std::__1::basic_streambuf"*, i8*, i64)*, %"class.std::__1::basic_streambuf"* (%"class.std::__1::basic_streambuf"*, i8*, i64)** %5, i64 3
  %7 = load %"class.std::__1::basic_streambuf"* (%"class.std::__1::basic_streambuf"*, i8*, i64)*, %"class.std::__1::basic_streambuf"* (%"class.std::__1::basic_streambuf"*, i8*, i64)** %6, align 8
  %8 = tail call %"class.std::__1::basic_streambuf"* %7(%"class.std::__1::basic_streambuf"* %0, i8* %1, i64 %2)
  ret %"class.std::__1::basic_streambuf"* %8
}

; Function Attrs: inlinehint uwtable
define weak_odr { i64, i64 } @_ZNSt3__115basic_streambufIcNS_11char_traitsIcEEE10pubseekoffExNS_8ios_base7seekdirEj(%"class.std::__1::basic_streambuf"* %0, i64 %1, i32 %2, i32 %3) local_unnamed_addr #5 comdat align 2 {
  %5 = bitcast %"class.std::__1::basic_streambuf"* %0 to { i64, i64 } (%"class.std::__1::basic_streambuf"*, i64, i32, i32)***
  %6 = load { i64, i64 } (%"class.std::__1::basic_streambuf"*, i64, i32, i32)**, { i64, i64 } (%"class.std::__1::basic_streambuf"*, i64, i32, i32)*** %5, align 8, !tbaa !17
  %7 = getelementptr inbounds { i64, i64 } (%"class.std::__1::basic_streambuf"*, i64, i32, i32)*, { i64, i64 } (%"class.std::__1::basic_streambuf"*, i64, i32, i32)** %6, i64 4
  %8 = load { i64, i64 } (%"class.std::__1::basic_streambuf"*, i64, i32, i32)*, { i64, i64 } (%"class.std::__1::basic_streambuf"*, i64, i32, i32)** %7, align 8
  %9 = tail call { i64, i64 } %8(%"class.std::__1::basic_streambuf"* %0, i64 %1, i32 %2, i32 %3)
  ret { i64, i64 } %9
}

; Function Attrs: inlinehint uwtable
define weak_odr { i64, i64 } @_ZNSt3__115basic_streambufIcNS_11char_traitsIcEEE10pubseekposENS_4fposI11__mbstate_tEEj(%"class.std::__1::basic_streambuf"* %0, i64 %1, i64 %2, i32 %3) local_unnamed_addr #5 comdat align 2 {
  %5 = bitcast %"class.std::__1::basic_streambuf"* %0 to { i64, i64 } (%"class.std::__1::basic_streambuf"*, i64, i64, i32)***
  %6 = load { i64, i64 } (%"class.std::__1::basic_streambuf"*, i64, i64, i32)**, { i64, i64 } (%"class.std::__1::basic_streambuf"*, i64, i64, i32)*** %5, align 8, !tbaa !17
  %7 = getelementptr inbounds { i64, i64 } (%"class.std::__1::basic_streambuf"*, i64, i64, i32)*, { i64, i64 } (%"class.std::__1::basic_streambuf"*, i64, i64, i32)** %6, i64 5
  %8 = load { i64, i64 } (%"class.std::__1::basic_streambuf"*, i64, i64, i32)*, { i64, i64 } (%"class.std::__1::basic_streambuf"*, i64, i64, i32)** %7, align 8
  %9 = tail call { i64, i64 } %8(%"class.std::__1::basic_streambuf"* %0, i64 %1, i64 %2, i32 %3)
  ret { i64, i64 } %9
}

; Function Attrs: argmemonly nounwind willreturn
declare void @llvm.memcpy.p0i8.p0i8.i64(i8* noalias nocapture writeonly, i8* noalias nocapture readonly, i64, i1 immarg) #7

; Function Attrs: inlinehint uwtable
define weak_odr i32 @_ZNSt3__115basic_streambufIcNS_11char_traitsIcEEE7pubsyncEv(%"class.std::__1::basic_streambuf"* %0) local_unnamed_addr #5 comdat align 2 {
  %2 = bitcast %"class.std::__1::basic_streambuf"* %0 to i32 (%"class.std::__1::basic_streambuf"*)***
  %3 = load i32 (%"class.std::__1::basic_streambuf"*)**, i32 (%"class.std::__1::basic_streambuf"*)*** %2, align 8, !tbaa !17
  %4 = getelementptr inbounds i32 (%"class.std::__1::basic_streambuf"*)*, i32 (%"class.std::__1::basic_streambuf"*)** %3, i64 6
  %5 = load i32 (%"class.std::__1::basic_streambuf"*)*, i32 (%"class.std::__1::basic_streambuf"*)** %4, align 8
  %6 = tail call i32 %5(%"class.std::__1::basic_streambuf"* %0)
  ret i32 %6
}

; Function Attrs: inlinehint uwtable
define weak_odr i64 @_ZNSt3__115basic_streambufIcNS_11char_traitsIcEEE8in_availEv(%"class.std::__1::basic_streambuf"* %0) local_unnamed_addr #5 comdat align 2 {
  %2 = getelementptr inbounds %"class.std::__1::basic_streambuf", %"class.std::__1::basic_streambuf"* %0, i64 0, i32 3
  %3 = load i8*, i8** %2, align 8, !tbaa !19
  %4 = getelementptr inbounds %"class.std::__1::basic_streambuf", %"class.std::__1::basic_streambuf"* %0, i64 0, i32 4
  %5 = load i8*, i8** %4, align 8, !tbaa !22
  %6 = icmp ult i8* %3, %5
  br i1 %6, label %7, label %11

7:                                                ; preds = %1
  %8 = ptrtoint i8* %5 to i64
  %9 = ptrtoint i8* %3 to i64
  %10 = sub i64 %8, %9
  br label %17

11:                                               ; preds = %1
  %12 = bitcast %"class.std::__1::basic_streambuf"* %0 to i64 (%"class.std::__1::basic_streambuf"*)***
  %13 = load i64 (%"class.std::__1::basic_streambuf"*)**, i64 (%"class.std::__1::basic_streambuf"*)*** %12, align 8, !tbaa !17
  %14 = getelementptr inbounds i64 (%"class.std::__1::basic_streambuf"*)*, i64 (%"class.std::__1::basic_streambuf"*)** %13, i64 7
  %15 = load i64 (%"class.std::__1::basic_streambuf"*)*, i64 (%"class.std::__1::basic_streambuf"*)** %14, align 8
  %16 = tail call i64 %15(%"class.std::__1::basic_streambuf"* nonnull %0)
  br label %17

17:                                               ; preds = %11, %7
  %18 = phi i64 [ %10, %7 ], [ %16, %11 ]
  ret i64 %18
}

; Function Attrs: inlinehint uwtable
define weak_odr i32 @_ZNSt3__115basic_streambufIcNS_11char_traitsIcEEE6snextcEv(%"class.std::__1::basic_streambuf"* %0) local_unnamed_addr #5 comdat align 2 {
  %2 = getelementptr inbounds %"class.std::__1::basic_streambuf", %"class.std::__1::basic_streambuf"* %0, i64 0, i32 3
  %3 = load i8*, i8** %2, align 8, !tbaa !19
  %4 = getelementptr inbounds %"class.std::__1::basic_streambuf", %"class.std::__1::basic_streambuf"* %0, i64 0, i32 4
  %5 = load i8*, i8** %4, align 8, !tbaa !22
  %6 = icmp eq i8* %3, %5
  br i1 %6, label %9, label %7

7:                                                ; preds = %1
  %8 = getelementptr inbounds i8, i8* %3, i64 1
  store i8* %8, i8** %2, align 8, !tbaa !19
  br label %19

9:                                                ; preds = %1
  %10 = bitcast %"class.std::__1::basic_streambuf"* %0 to i32 (%"class.std::__1::basic_streambuf"*)***
  %11 = load i32 (%"class.std::__1::basic_streambuf"*)**, i32 (%"class.std::__1::basic_streambuf"*)*** %10, align 8, !tbaa !17
  %12 = getelementptr inbounds i32 (%"class.std::__1::basic_streambuf"*)*, i32 (%"class.std::__1::basic_streambuf"*)** %11, i64 10
  %13 = load i32 (%"class.std::__1::basic_streambuf"*)*, i32 (%"class.std::__1::basic_streambuf"*)** %12, align 8
  %14 = tail call i32 %13(%"class.std::__1::basic_streambuf"* nonnull %0)
  %15 = icmp eq i32 %14, -1
  br i1 %15, label %32, label %16

16:                                               ; preds = %9
  %17 = load i8*, i8** %2, align 8, !tbaa !19
  %18 = load i8*, i8** %4, align 8, !tbaa !22
  br label %19

19:                                               ; preds = %16, %7
  %20 = phi i8* [ %18, %16 ], [ %5, %7 ]
  %21 = phi i8* [ %17, %16 ], [ %8, %7 ]
  %22 = icmp eq i8* %21, %20
  br i1 %22, label %23, label %29

23:                                               ; preds = %19
  %24 = bitcast %"class.std::__1::basic_streambuf"* %0 to i32 (%"class.std::__1::basic_streambuf"*)***
  %25 = load i32 (%"class.std::__1::basic_streambuf"*)**, i32 (%"class.std::__1::basic_streambuf"*)*** %24, align 8, !tbaa !17
  %26 = getelementptr inbounds i32 (%"class.std::__1::basic_streambuf"*)*, i32 (%"class.std::__1::basic_streambuf"*)** %25, i64 9
  %27 = load i32 (%"class.std::__1::basic_streambuf"*)*, i32 (%"class.std::__1::basic_streambuf"*)** %26, align 8
  %28 = tail call i32 %27(%"class.std::__1::basic_streambuf"* nonnull %0)
  br label %32

29:                                               ; preds = %19
  %30 = load i8, i8* %21, align 1, !tbaa !23
  %31 = zext i8 %30 to i32
  br label %32

32:                                               ; preds = %29, %23, %9
  %33 = phi i32 [ -1, %9 ], [ %28, %23 ], [ %31, %29 ]
  ret i32 %33
}

; Function Attrs: inlinehint uwtable
define weak_odr i32 @_ZNSt3__115basic_streambufIcNS_11char_traitsIcEEE6sbumpcEv(%"class.std::__1::basic_streambuf"* %0) local_unnamed_addr #5 comdat align 2 {
  %2 = getelementptr inbounds %"class.std::__1::basic_streambuf", %"class.std::__1::basic_streambuf"* %0, i64 0, i32 3
  %3 = load i8*, i8** %2, align 8, !tbaa !19
  %4 = getelementptr inbounds %"class.std::__1::basic_streambuf", %"class.std::__1::basic_streambuf"* %0, i64 0, i32 4
  %5 = load i8*, i8** %4, align 8, !tbaa !22
  %6 = icmp eq i8* %3, %5
  br i1 %6, label %7, label %13

7:                                                ; preds = %1
  %8 = bitcast %"class.std::__1::basic_streambuf"* %0 to i32 (%"class.std::__1::basic_streambuf"*)***
  %9 = load i32 (%"class.std::__1::basic_streambuf"*)**, i32 (%"class.std::__1::basic_streambuf"*)*** %8, align 8, !tbaa !17
  %10 = getelementptr inbounds i32 (%"class.std::__1::basic_streambuf"*)*, i32 (%"class.std::__1::basic_streambuf"*)** %9, i64 10
  %11 = load i32 (%"class.std::__1::basic_streambuf"*)*, i32 (%"class.std::__1::basic_streambuf"*)** %10, align 8
  %12 = tail call i32 %11(%"class.std::__1::basic_streambuf"* nonnull %0)
  br label %17

13:                                               ; preds = %1
  %14 = getelementptr inbounds i8, i8* %3, i64 1
  store i8* %14, i8** %2, align 8, !tbaa !19
  %15 = load i8, i8* %3, align 1, !tbaa !23
  %16 = zext i8 %15 to i32
  br label %17

17:                                               ; preds = %13, %7
  %18 = phi i32 [ %12, %7 ], [ %16, %13 ]
  ret i32 %18
}

; Function Attrs: inlinehint uwtable
define weak_odr i32 @_ZNSt3__115basic_streambufIcNS_11char_traitsIcEEE5sgetcEv(%"class.std::__1::basic_streambuf"* %0) local_unnamed_addr #5 comdat align 2 {
  %2 = getelementptr inbounds %"class.std::__1::basic_streambuf", %"class.std::__1::basic_streambuf"* %0, i64 0, i32 3
  %3 = load i8*, i8** %2, align 8, !tbaa !19
  %4 = getelementptr inbounds %"class.std::__1::basic_streambuf", %"class.std::__1::basic_streambuf"* %0, i64 0, i32 4
  %5 = load i8*, i8** %4, align 8, !tbaa !22
  %6 = icmp eq i8* %3, %5
  br i1 %6, label %7, label %13

7:                                                ; preds = %1
  %8 = bitcast %"class.std::__1::basic_streambuf"* %0 to i32 (%"class.std::__1::basic_streambuf"*)***
  %9 = load i32 (%"class.std::__1::basic_streambuf"*)**, i32 (%"class.std::__1::basic_streambuf"*)*** %8, align 8, !tbaa !17
  %10 = getelementptr inbounds i32 (%"class.std::__1::basic_streambuf"*)*, i32 (%"class.std::__1::basic_streambuf"*)** %9, i64 9
  %11 = load i32 (%"class.std::__1::basic_streambuf"*)*, i32 (%"class.std::__1::basic_streambuf"*)** %10, align 8
  %12 = tail call i32 %11(%"class.std::__1::basic_streambuf"* nonnull %0)
  br label %16

13:                                               ; preds = %1
  %14 = load i8, i8* %3, align 1, !tbaa !23
  %15 = zext i8 %14 to i32
  br label %16

16:                                               ; preds = %13, %7
  %17 = phi i32 [ %12, %7 ], [ %15, %13 ]
  ret i32 %17
}

; Function Attrs: inlinehint uwtable
define weak_odr i64 @_ZNSt3__115basic_streambufIcNS_11char_traitsIcEEE5sgetnEPcl(%"class.std::__1::basic_streambuf"* %0, i8* %1, i64 %2) local_unnamed_addr #5 comdat align 2 {
  %4 = bitcast %"class.std::__1::basic_streambuf"* %0 to i64 (%"class.std::__1::basic_streambuf"*, i8*, i64)***
  %5 = load i64 (%"class.std::__1::basic_streambuf"*, i8*, i64)**, i64 (%"class.std::__1::basic_streambuf"*, i8*, i64)*** %4, align 8, !tbaa !17
  %6 = getelementptr inbounds i64 (%"class.std::__1::basic_streambuf"*, i8*, i64)*, i64 (%"class.std::__1::basic_streambuf"*, i8*, i64)** %5, i64 8
  %7 = load i64 (%"class.std::__1::basic_streambuf"*, i8*, i64)*, i64 (%"class.std::__1::basic_streambuf"*, i8*, i64)** %6, align 8
  %8 = tail call i64 %7(%"class.std::__1::basic_streambuf"* %0, i8* %1, i64 %2)
  ret i64 %8
}

; Function Attrs: inlinehint uwtable
define weak_odr i32 @_ZNSt3__115basic_streambufIcNS_11char_traitsIcEEE9sputbackcEc(%"class.std::__1::basic_streambuf"* %0, i8 signext %1) local_unnamed_addr #5 comdat align 2 {
  %3 = getelementptr inbounds %"class.std::__1::basic_streambuf", %"class.std::__1::basic_streambuf"* %0, i64 0, i32 2
  %4 = load i8*, i8** %3, align 8, !tbaa !24
  %5 = getelementptr inbounds %"class.std::__1::basic_streambuf", %"class.std::__1::basic_streambuf"* %0, i64 0, i32 3
  %6 = load i8*, i8** %5, align 8, !tbaa !19
  %7 = icmp eq i8* %4, %6
  br i1 %7, label %12, label %8

8:                                                ; preds = %2
  %9 = getelementptr inbounds i8, i8* %6, i64 -1
  %10 = load i8, i8* %9, align 1, !tbaa !23
  %11 = icmp eq i8 %10, %1
  br i1 %11, label %19, label %12

12:                                               ; preds = %8, %2
  %13 = zext i8 %1 to i32
  %14 = bitcast %"class.std::__1::basic_streambuf"* %0 to i32 (%"class.std::__1::basic_streambuf"*, i32)***
  %15 = load i32 (%"class.std::__1::basic_streambuf"*, i32)**, i32 (%"class.std::__1::basic_streambuf"*, i32)*** %14, align 8, !tbaa !17
  %16 = getelementptr inbounds i32 (%"class.std::__1::basic_streambuf"*, i32)*, i32 (%"class.std::__1::basic_streambuf"*, i32)** %15, i64 11
  %17 = load i32 (%"class.std::__1::basic_streambuf"*, i32)*, i32 (%"class.std::__1::basic_streambuf"*, i32)** %16, align 8
  %18 = tail call i32 %17(%"class.std::__1::basic_streambuf"* nonnull %0, i32 %13)
  br label %22

19:                                               ; preds = %8
  store i8* %9, i8** %5, align 8, !tbaa !19
  %20 = load i8, i8* %9, align 1, !tbaa !23
  %21 = zext i8 %20 to i32
  br label %22

22:                                               ; preds = %19, %12
  %23 = phi i32 [ %18, %12 ], [ %21, %19 ]
  ret i32 %23
}

; Function Attrs: inlinehint uwtable
define weak_odr i32 @_ZNSt3__115basic_streambufIcNS_11char_traitsIcEEE7sungetcEv(%"class.std::__1::basic_streambuf"* %0) local_unnamed_addr #5 comdat align 2 {
  %2 = getelementptr inbounds %"class.std::__1::basic_streambuf", %"class.std::__1::basic_streambuf"* %0, i64 0, i32 2
  %3 = load i8*, i8** %2, align 8, !tbaa !24
  %4 = getelementptr inbounds %"class.std::__1::basic_streambuf", %"class.std::__1::basic_streambuf"* %0, i64 0, i32 3
  %5 = load i8*, i8** %4, align 8, !tbaa !19
  %6 = icmp eq i8* %3, %5
  br i1 %6, label %7, label %13

7:                                                ; preds = %1
  %8 = bitcast %"class.std::__1::basic_streambuf"* %0 to i32 (%"class.std::__1::basic_streambuf"*, i32)***
  %9 = load i32 (%"class.std::__1::basic_streambuf"*, i32)**, i32 (%"class.std::__1::basic_streambuf"*, i32)*** %8, align 8, !tbaa !17
  %10 = getelementptr inbounds i32 (%"class.std::__1::basic_streambuf"*, i32)*, i32 (%"class.std::__1::basic_streambuf"*, i32)** %9, i64 11
  %11 = load i32 (%"class.std::__1::basic_streambuf"*, i32)*, i32 (%"class.std::__1::basic_streambuf"*, i32)** %10, align 8
  %12 = tail call i32 %11(%"class.std::__1::basic_streambuf"* nonnull %0, i32 -1)
  br label %17

13:                                               ; preds = %1
  %14 = getelementptr inbounds i8, i8* %5, i64 -1
  store i8* %14, i8** %4, align 8, !tbaa !19
  %15 = load i8, i8* %14, align 1, !tbaa !23
  %16 = zext i8 %15 to i32
  br label %17

17:                                               ; preds = %13, %7
  %18 = phi i32 [ %12, %7 ], [ %16, %13 ]
  ret i32 %18
}

; Function Attrs: inlinehint uwtable
define weak_odr i32 @_ZNSt3__115basic_streambufIcNS_11char_traitsIcEEE5sputcEc(%"class.std::__1::basic_streambuf"* %0, i8 signext %1) local_unnamed_addr #5 comdat align 2 {
  %3 = getelementptr inbounds %"class.std::__1::basic_streambuf", %"class.std::__1::basic_streambuf"* %0, i64 0, i32 6
  %4 = load i8*, i8** %3, align 8, !tbaa !25
  %5 = getelementptr inbounds %"class.std::__1::basic_streambuf", %"class.std::__1::basic_streambuf"* %0, i64 0, i32 7
  %6 = load i8*, i8** %5, align 8, !tbaa !26
  %7 = icmp eq i8* %4, %6
  br i1 %7, label %8, label %15

8:                                                ; preds = %2
  %9 = zext i8 %1 to i32
  %10 = bitcast %"class.std::__1::basic_streambuf"* %0 to i32 (%"class.std::__1::basic_streambuf"*, i32)***
  %11 = load i32 (%"class.std::__1::basic_streambuf"*, i32)**, i32 (%"class.std::__1::basic_streambuf"*, i32)*** %10, align 8, !tbaa !17
  %12 = getelementptr inbounds i32 (%"class.std::__1::basic_streambuf"*, i32)*, i32 (%"class.std::__1::basic_streambuf"*, i32)** %11, i64 13
  %13 = load i32 (%"class.std::__1::basic_streambuf"*, i32)*, i32 (%"class.std::__1::basic_streambuf"*, i32)** %12, align 8
  %14 = tail call i32 %13(%"class.std::__1::basic_streambuf"* nonnull %0, i32 %9)
  br label %18

15:                                               ; preds = %2
  %16 = getelementptr inbounds i8, i8* %4, i64 1
  store i8* %16, i8** %3, align 8, !tbaa !25
  store i8 %1, i8* %4, align 1, !tbaa !23
  %17 = zext i8 %1 to i32
  br label %18

18:                                               ; preds = %15, %8
  %19 = phi i32 [ %14, %8 ], [ %17, %15 ]
  ret i32 %19
}

; Function Attrs: inlinehint uwtable
define weak_odr i64 @_ZNSt3__115basic_streambufIcNS_11char_traitsIcEEE5sputnEPKcl(%"class.std::__1::basic_streambuf"* %0, i8* %1, i64 %2) local_unnamed_addr #5 comdat align 2 {
  %4 = bitcast %"class.std::__1::basic_streambuf"* %0 to i64 (%"class.std::__1::basic_streambuf"*, i8*, i64)***
  %5 = load i64 (%"class.std::__1::basic_streambuf"*, i8*, i64)**, i64 (%"class.std::__1::basic_streambuf"*, i8*, i64)*** %4, align 8, !tbaa !17
  %6 = getelementptr inbounds i64 (%"class.std::__1::basic_streambuf"*, i8*, i64)*, i64 (%"class.std::__1::basic_streambuf"*, i8*, i64)** %5, i64 12
  %7 = load i64 (%"class.std::__1::basic_streambuf"*, i8*, i64)*, i64 (%"class.std::__1::basic_streambuf"*, i8*, i64)** %6, align 8
  %8 = tail call i64 %7(%"class.std::__1::basic_streambuf"* %0, i8* %1, i64 %2)
  ret i64 %8
}

; Function Attrs: nounwind uwtable
define weak_odr void @_ZNSt3__115basic_streambufIcNS_11char_traitsIcEEEC2Ev(%"class.std::__1::basic_streambuf"* %0) unnamed_addr #0 comdat($_ZNSt3__115basic_streambufIcNS_11char_traitsIcEEEC5Ev) align 2 {
  %2 = getelementptr %"class.std::__1::basic_streambuf", %"class.std::__1::basic_streambuf"* %0, i64 0, i32 0
  store i32 (...)** bitcast (i8** getelementptr inbounds ({ [16 x i8*] }, { [16 x i8*] }* @_ZTVNSt3__115basic_streambufIcNS_11char_traitsIcEEEE, i64 0, inrange i32 0, i64 2) to i32 (...)**), i32 (...)*** %2, align 8, !tbaa !17
  %3 = getelementptr inbounds %"class.std::__1::basic_streambuf", %"class.std::__1::basic_streambuf"* %0, i64 0, i32 1
  tail call void @_ZNSt3__16localeC1Ev(%"class.std::__1::locale"* nonnull %3) #14
  %4 = getelementptr inbounds %"class.std::__1::basic_streambuf", %"class.std::__1::basic_streambuf"* %0, i64 0, i32 2
  %5 = bitcast i8** %4 to i8*
  call void @llvm.memset.p0i8.i64(i8* nonnull align 8 dereferenceable(48) %5, i8 0, i64 48, i1 false)
  ret void
}

; Function Attrs: nounwind
declare void @_ZNSt3__16localeC1Ev(%"class.std::__1::locale"*) unnamed_addr #1

; Function Attrs: nounwind uwtable
define weak_odr void @_ZNSt3__115basic_streambufIcNS_11char_traitsIcEEEC2ERKS3_(%"class.std::__1::basic_streambuf"* %0, %"class.std::__1::basic_streambuf"* nonnull align 8 dereferenceable(64) %1) unnamed_addr #0 comdat($_ZNSt3__115basic_streambufIcNS_11char_traitsIcEEEC5ERKS3_) align 2 {
  %3 = getelementptr %"class.std::__1::basic_streambuf", %"class.std::__1::basic_streambuf"* %0, i64 0, i32 0
  store i32 (...)** bitcast (i8** getelementptr inbounds ({ [16 x i8*] }, { [16 x i8*] }* @_ZTVNSt3__115basic_streambufIcNS_11char_traitsIcEEEE, i64 0, inrange i32 0, i64 2) to i32 (...)**), i32 (...)*** %3, align 8, !tbaa !17
  %4 = getelementptr inbounds %"class.std::__1::basic_streambuf", %"class.std::__1::basic_streambuf"* %0, i64 0, i32 1
  %5 = getelementptr inbounds %"class.std::__1::basic_streambuf", %"class.std::__1::basic_streambuf"* %1, i64 0, i32 1
  tail call void @_ZNSt3__16localeC1ERKS0_(%"class.std::__1::locale"* nonnull %4, %"class.std::__1::locale"* nonnull align 8 dereferenceable(8) %5) #14
  %6 = getelementptr inbounds %"class.std::__1::basic_streambuf", %"class.std::__1::basic_streambuf"* %0, i64 0, i32 2
  %7 = getelementptr inbounds %"class.std::__1::basic_streambuf", %"class.std::__1::basic_streambuf"* %1, i64 0, i32 2
  %8 = bitcast i8** %7 to <2 x i64>*
  %9 = load <2 x i64>, <2 x i64>* %8, align 8, !tbaa !27
  %10 = bitcast i8** %6 to <2 x i64>*
  store <2 x i64> %9, <2 x i64>* %10, align 8, !tbaa !27
  %11 = getelementptr inbounds %"class.std::__1::basic_streambuf", %"class.std::__1::basic_streambuf"* %0, i64 0, i32 4
  %12 = getelementptr inbounds %"class.std::__1::basic_streambuf", %"class.std::__1::basic_streambuf"* %1, i64 0, i32 4
  %13 = bitcast i8** %12 to <2 x i64>*
  %14 = load <2 x i64>, <2 x i64>* %13, align 8, !tbaa !27
  %15 = bitcast i8** %11 to <2 x i64>*
  store <2 x i64> %14, <2 x i64>* %15, align 8, !tbaa !27
  %16 = getelementptr inbounds %"class.std::__1::basic_streambuf", %"class.std::__1::basic_streambuf"* %0, i64 0, i32 6
  %17 = getelementptr inbounds %"class.std::__1::basic_streambuf", %"class.std::__1::basic_streambuf"* %1, i64 0, i32 6
  %18 = bitcast i8** %17 to <2 x i64>*
  %19 = load <2 x i64>, <2 x i64>* %18, align 8, !tbaa !27
  %20 = bitcast i8** %16 to <2 x i64>*
  store <2 x i64> %19, <2 x i64>* %20, align 8, !tbaa !27
  ret void
}

; Function Attrs: nounwind uwtable
define weak_odr nonnull align 8 dereferenceable(64) %"class.std::__1::basic_streambuf"* @_ZNSt3__115basic_streambufIcNS_11char_traitsIcEEEaSERKS3_(%"class.std::__1::basic_streambuf"* %0, %"class.std::__1::basic_streambuf"* nonnull align 8 dereferenceable(64) %1) local_unnamed_addr #0 comdat align 2 {
  %3 = getelementptr inbounds %"class.std::__1::basic_streambuf", %"class.std::__1::basic_streambuf"* %1, i64 0, i32 1
  %4 = getelementptr inbounds %"class.std::__1::basic_streambuf", %"class.std::__1::basic_streambuf"* %0, i64 0, i32 1
  %5 = tail call nonnull align 8 dereferenceable(8) %"class.std::__1::locale"* @_ZNSt3__16localeaSERKS0_(%"class.std::__1::locale"* nonnull %4, %"class.std::__1::locale"* nonnull align 8 dereferenceable(8) %3) #14
  %6 = getelementptr inbounds %"class.std::__1::basic_streambuf", %"class.std::__1::basic_streambuf"* %1, i64 0, i32 2
  %7 = getelementptr inbounds %"class.std::__1::basic_streambuf", %"class.std::__1::basic_streambuf"* %0, i64 0, i32 2
  %8 = bitcast i8** %6 to <2 x i64>*
  %9 = load <2 x i64>, <2 x i64>* %8, align 8, !tbaa !27
  %10 = bitcast i8** %7 to <2 x i64>*
  store <2 x i64> %9, <2 x i64>* %10, align 8, !tbaa !27
  %11 = getelementptr inbounds %"class.std::__1::basic_streambuf", %"class.std::__1::basic_streambuf"* %1, i64 0, i32 4
  %12 = getelementptr inbounds %"class.std::__1::basic_streambuf", %"class.std::__1::basic_streambuf"* %0, i64 0, i32 4
  %13 = bitcast i8** %11 to <2 x i64>*
  %14 = load <2 x i64>, <2 x i64>* %13, align 8, !tbaa !27
  %15 = bitcast i8** %12 to <2 x i64>*
  store <2 x i64> %14, <2 x i64>* %15, align 8, !tbaa !27
  %16 = getelementptr inbounds %"class.std::__1::basic_streambuf", %"class.std::__1::basic_streambuf"* %1, i64 0, i32 6
  %17 = getelementptr inbounds %"class.std::__1::basic_streambuf", %"class.std::__1::basic_streambuf"* %0, i64 0, i32 6
  %18 = bitcast i8** %16 to <2 x i64>*
  %19 = load <2 x i64>, <2 x i64>* %18, align 8, !tbaa !27
  %20 = bitcast i8** %17 to <2 x i64>*
  store <2 x i64> %19, <2 x i64>* %20, align 8, !tbaa !27
  ret %"class.std::__1::basic_streambuf"* %0
}

; Function Attrs: nounwind uwtable
define weak_odr void @_ZNSt3__115basic_streambufIcNS_11char_traitsIcEEE4swapERS3_(%"class.std::__1::basic_streambuf"* %0, %"class.std::__1::basic_streambuf"* nonnull align 8 dereferenceable(64) %1) local_unnamed_addr #0 comdat align 2 {
  %3 = alloca %"class.std::__1::locale", align 8
  %4 = getelementptr inbounds %"class.std::__1::basic_streambuf", %"class.std::__1::basic_streambuf"* %0, i64 0, i32 1
  %5 = getelementptr inbounds %"class.std::__1::basic_streambuf", %"class.std::__1::basic_streambuf"* %1, i64 0, i32 1
  %6 = bitcast %"class.std::__1::locale"* %3 to i8*
  call void @llvm.lifetime.start.p0i8(i64 8, i8* nonnull %6) #14
  call void @_ZNSt3__16localeC1ERKS0_(%"class.std::__1::locale"* nonnull %3, %"class.std::__1::locale"* nonnull align 8 dereferenceable(8) %4) #14
  %7 = call nonnull align 8 dereferenceable(8) %"class.std::__1::locale"* @_ZNSt3__16localeaSERKS0_(%"class.std::__1::locale"* nonnull %4, %"class.std::__1::locale"* nonnull align 8 dereferenceable(8) %5) #14
  %8 = call nonnull align 8 dereferenceable(8) %"class.std::__1::locale"* @_ZNSt3__16localeaSERKS0_(%"class.std::__1::locale"* nonnull %5, %"class.std::__1::locale"* nonnull align 8 dereferenceable(8) %3) #14
  call void @_ZNSt3__16localeD1Ev(%"class.std::__1::locale"* nonnull %3) #14
  call void @llvm.lifetime.end.p0i8(i64 8, i8* nonnull %6) #14
  %9 = getelementptr inbounds %"class.std::__1::basic_streambuf", %"class.std::__1::basic_streambuf"* %0, i64 0, i32 2
  %10 = getelementptr inbounds %"class.std::__1::basic_streambuf", %"class.std::__1::basic_streambuf"* %1, i64 0, i32 2
  %11 = bitcast i8** %9 to i64*
  %12 = load i64, i64* %11, align 8, !tbaa !27
  %13 = bitcast i8** %10 to i64*
  %14 = load i64, i64* %13, align 8, !tbaa !27
  store i64 %14, i64* %11, align 8, !tbaa !27
  store i64 %12, i64* %13, align 8, !tbaa !27
  %15 = getelementptr inbounds %"class.std::__1::basic_streambuf", %"class.std::__1::basic_streambuf"* %0, i64 0, i32 3
  %16 = getelementptr inbounds %"class.std::__1::basic_streambuf", %"class.std::__1::basic_streambuf"* %1, i64 0, i32 3
  %17 = bitcast i8** %15 to i64*
  %18 = load i64, i64* %17, align 8, !tbaa !27
  %19 = bitcast i8** %16 to i64*
  %20 = load i64, i64* %19, align 8, !tbaa !27
  store i64 %20, i64* %17, align 8, !tbaa !27
  store i64 %18, i64* %19, align 8, !tbaa !27
  %21 = getelementptr inbounds %"class.std::__1::basic_streambuf", %"class.std::__1::basic_streambuf"* %0, i64 0, i32 4
  %22 = getelementptr inbounds %"class.std::__1::basic_streambuf", %"class.std::__1::basic_streambuf"* %1, i64 0, i32 4
  %23 = bitcast i8** %21 to i64*
  %24 = load i64, i64* %23, align 8, !tbaa !27
  %25 = bitcast i8** %22 to i64*
  %26 = load i64, i64* %25, align 8, !tbaa !27
  store i64 %26, i64* %23, align 8, !tbaa !27
  store i64 %24, i64* %25, align 8, !tbaa !27
  %27 = getelementptr inbounds %"class.std::__1::basic_streambuf", %"class.std::__1::basic_streambuf"* %0, i64 0, i32 5
  %28 = getelementptr inbounds %"class.std::__1::basic_streambuf", %"class.std::__1::basic_streambuf"* %1, i64 0, i32 5
  %29 = bitcast i8** %27 to i64*
  %30 = load i64, i64* %29, align 8, !tbaa !27
  %31 = bitcast i8** %28 to i64*
  %32 = load i64, i64* %31, align 8, !tbaa !27
  store i64 %32, i64* %29, align 8, !tbaa !27
  store i64 %30, i64* %31, align 8, !tbaa !27
  %33 = getelementptr inbounds %"class.std::__1::basic_streambuf", %"class.std::__1::basic_streambuf"* %0, i64 0, i32 6
  %34 = getelementptr inbounds %"class.std::__1::basic_streambuf", %"class.std::__1::basic_streambuf"* %1, i64 0, i32 6
  %35 = bitcast i8** %33 to i64*
  %36 = load i64, i64* %35, align 8, !tbaa !27
  %37 = bitcast i8** %34 to i64*
  %38 = load i64, i64* %37, align 8, !tbaa !27
  store i64 %38, i64* %35, align 8, !tbaa !27
  store i64 %36, i64* %37, align 8, !tbaa !27
  %39 = getelementptr inbounds %"class.std::__1::basic_streambuf", %"class.std::__1::basic_streambuf"* %0, i64 0, i32 7
  %40 = getelementptr inbounds %"class.std::__1::basic_streambuf", %"class.std::__1::basic_streambuf"* %1, i64 0, i32 7
  %41 = bitcast i8** %39 to i64*
  %42 = load i64, i64* %41, align 8, !tbaa !27
  %43 = bitcast i8** %40 to i64*
  %44 = load i64, i64* %43, align 8, !tbaa !27
  store i64 %44, i64* %41, align 8, !tbaa !27
  store i64 %42, i64* %43, align 8, !tbaa !27
  ret void
}

; Function Attrs: inlinehint nounwind uwtable
define weak_odr void @_ZNSt3__115basic_streambufIcNS_11char_traitsIcEEE5gbumpEi(%"class.std::__1::basic_streambuf"* %0, i32 %1) local_unnamed_addr #6 comdat align 2 {
  %3 = getelementptr inbounds %"class.std::__1::basic_streambuf", %"class.std::__1::basic_streambuf"* %0, i64 0, i32 3
  %4 = load i8*, i8** %3, align 8, !tbaa !19
  %5 = sext i32 %1 to i64
  %6 = getelementptr inbounds i8, i8* %4, i64 %5
  store i8* %6, i8** %3, align 8, !tbaa !19
  ret void
}

; Function Attrs: inlinehint nounwind uwtable
define weak_odr void @_ZNSt3__115basic_streambufIcNS_11char_traitsIcEEE4setgEPcS4_S4_(%"class.std::__1::basic_streambuf"* %0, i8* %1, i8* %2, i8* %3) local_unnamed_addr #6 comdat align 2 {
  %5 = getelementptr inbounds %"class.std::__1::basic_streambuf", %"class.std::__1::basic_streambuf"* %0, i64 0, i32 2
  store i8* %1, i8** %5, align 8, !tbaa !24
  %6 = getelementptr inbounds %"class.std::__1::basic_streambuf", %"class.std::__1::basic_streambuf"* %0, i64 0, i32 3
  store i8* %2, i8** %6, align 8, !tbaa !19
  %7 = getelementptr inbounds %"class.std::__1::basic_streambuf", %"class.std::__1::basic_streambuf"* %0, i64 0, i32 4
  store i8* %3, i8** %7, align 8, !tbaa !22
  ret void
}

; Function Attrs: inlinehint nounwind uwtable
define weak_odr void @_ZNSt3__115basic_streambufIcNS_11char_traitsIcEEE5pbumpEi(%"class.std::__1::basic_streambuf"* %0, i32 %1) local_unnamed_addr #6 comdat align 2 {
  %3 = getelementptr inbounds %"class.std::__1::basic_streambuf", %"class.std::__1::basic_streambuf"* %0, i64 0, i32 6
  %4 = load i8*, i8** %3, align 8, !tbaa !25
  %5 = sext i32 %1 to i64
  %6 = getelementptr inbounds i8, i8* %4, i64 %5
  store i8* %6, i8** %3, align 8, !tbaa !25
  ret void
}

; Function Attrs: inlinehint nounwind uwtable
define weak_odr void @_ZNSt3__115basic_streambufIcNS_11char_traitsIcEEE4setpEPcS4_(%"class.std::__1::basic_streambuf"* %0, i8* %1, i8* %2) local_unnamed_addr #6 comdat align 2 {
  %4 = getelementptr inbounds %"class.std::__1::basic_streambuf", %"class.std::__1::basic_streambuf"* %0, i64 0, i32 6
  store i8* %1, i8** %4, align 8, !tbaa !25
  %5 = getelementptr inbounds %"class.std::__1::basic_streambuf", %"class.std::__1::basic_streambuf"* %0, i64 0, i32 5
  store i8* %1, i8** %5, align 8, !tbaa !28
  %6 = getelementptr inbounds %"class.std::__1::basic_streambuf", %"class.std::__1::basic_streambuf"* %0, i64 0, i32 7
  store i8* %2, i8** %6, align 8, !tbaa !26
  ret void
}

; Function Attrs: nounwind uwtable
define weak_odr void @_ZNSt3__115basic_streambufIcNS_11char_traitsIcEEE5imbueERKNS_6localeE(%"class.std::__1::basic_streambuf"* %0, %"class.std::__1::locale"* nonnull align 8 dereferenceable(8) %1) unnamed_addr #0 comdat align 2 {
  ret void
}

; Function Attrs: nounwind uwtable
define weak_odr %"class.std::__1::basic_streambuf"* @_ZNSt3__115basic_streambufIcNS_11char_traitsIcEEE6setbufEPcl(%"class.std::__1::basic_streambuf"* %0, i8* %1, i64 %2) unnamed_addr #0 comdat align 2 {
  ret %"class.std::__1::basic_streambuf"* %0
}

; Function Attrs: uwtable
define weak_odr { i64, i64 } @_ZNSt3__115basic_streambufIcNS_11char_traitsIcEEE7seekoffExNS_8ios_base7seekdirEj(%"class.std::__1::basic_streambuf"* %0, i64 %1, i32 %2, i32 %3) unnamed_addr #3 comdat align 2 {
  ret { i64, i64 } { i64 0, i64 -1 }
}

; Function Attrs: uwtable
define weak_odr { i64, i64 } @_ZNSt3__115basic_streambufIcNS_11char_traitsIcEEE7seekposENS_4fposI11__mbstate_tEEj(%"class.std::__1::basic_streambuf"* %0, i64 %1, i64 %2, i32 %3) unnamed_addr #3 comdat align 2 {
  ret { i64, i64 } { i64 0, i64 -1 }
}

; Function Attrs: nounwind uwtable
define weak_odr i32 @_ZNSt3__115basic_streambufIcNS_11char_traitsIcEEE4syncEv(%"class.std::__1::basic_streambuf"* %0) unnamed_addr #0 comdat align 2 {
  ret i32 0
}

; Function Attrs: nounwind uwtable
define weak_odr i64 @_ZNSt3__115basic_streambufIcNS_11char_traitsIcEEE9showmanycEv(%"class.std::__1::basic_streambuf"* %0) unnamed_addr #0 comdat align 2 {
  ret i64 0
}

; Function Attrs: uwtable
define weak_odr i64 @_ZNSt3__115basic_streambufIcNS_11char_traitsIcEEE6xsgetnEPcl(%"class.std::__1::basic_streambuf"* %0, i8* %1, i64 %2) unnamed_addr #3 comdat align 2 {
  %4 = bitcast %"class.std::__1::basic_streambuf"* %0 to i32 (%"class.std::__1::basic_streambuf"*)***
  %5 = icmp sgt i64 %2, 0
  br i1 %5, label %6, label %47

6:                                                ; preds = %3
  %7 = getelementptr inbounds %"class.std::__1::basic_streambuf", %"class.std::__1::basic_streambuf"* %0, i64 0, i32 3
  %8 = getelementptr inbounds %"class.std::__1::basic_streambuf", %"class.std::__1::basic_streambuf"* %0, i64 0, i32 4
  br label %9

9:                                                ; preds = %6, %42
  %10 = phi i8* [ %1, %6 ], [ %44, %42 ]
  %11 = phi i64 [ 0, %6 ], [ %45, %42 ]
  %12 = load i8*, i8** %7, align 8, !tbaa !19
  %13 = load i8*, i8** %8, align 8, !tbaa !22
  %14 = icmp ult i8* %12, %13
  br i1 %14, label %15, label %33

15:                                               ; preds = %9
  %16 = ptrtoint i8* %12 to i64
  %17 = ptrtoint i8* %13 to i64
  %18 = sub i64 %17, %16
  %19 = sub nsw i64 %2, %11
  %20 = icmp slt i64 %19, %18
  %21 = select i1 %20, i64 %19, i64 %18
  %22 = icmp slt i64 %21, 2147483647
  %23 = select i1 %22, i64 %21, i64 2147483647
  %24 = icmp eq i64 %23, 0
  br i1 %24, label %27, label %25

25:                                               ; preds = %15
  tail call void @llvm.memcpy.p0i8.p0i8.i64(i8* align 1 %10, i8* align 1 %12, i64 %23, i1 false) #14
  %26 = load i8*, i8** %7, align 8, !tbaa !19
  br label %27

27:                                               ; preds = %15, %25
  %28 = phi i8* [ %12, %15 ], [ %26, %25 ]
  %29 = getelementptr inbounds i8, i8* %10, i64 %23
  %30 = shl i64 %23, 32
  %31 = ashr exact i64 %30, 32
  %32 = getelementptr inbounds i8, i8* %28, i64 %31
  store i8* %32, i8** %7, align 8, !tbaa !19
  br label %42

33:                                               ; preds = %9
  %34 = load i32 (%"class.std::__1::basic_streambuf"*)**, i32 (%"class.std::__1::basic_streambuf"*)*** %4, align 8, !tbaa !17
  %35 = getelementptr inbounds i32 (%"class.std::__1::basic_streambuf"*)*, i32 (%"class.std::__1::basic_streambuf"*)** %34, i64 10
  %36 = load i32 (%"class.std::__1::basic_streambuf"*)*, i32 (%"class.std::__1::basic_streambuf"*)** %35, align 8
  %37 = tail call i32 %36(%"class.std::__1::basic_streambuf"* nonnull %0)
  %38 = icmp eq i32 %37, -1
  br i1 %38, label %47, label %39

39:                                               ; preds = %33
  %40 = trunc i32 %37 to i8
  store i8 %40, i8* %10, align 1, !tbaa !23
  %41 = getelementptr inbounds i8, i8* %10, i64 1
  br label %42

42:                                               ; preds = %39, %27
  %43 = phi i64 [ %23, %27 ], [ 1, %39 ]
  %44 = phi i8* [ %29, %27 ], [ %41, %39 ]
  %45 = add nsw i64 %43, %11
  %46 = icmp slt i64 %45, %2
  br i1 %46, label %9, label %47

47:                                               ; preds = %42, %33, %3
  %48 = phi i64 [ 0, %3 ], [ %11, %33 ], [ %45, %42 ]
  ret i64 %48
}

; Function Attrs: argmemonly nounwind willreturn
declare void @llvm.lifetime.start.p0i8(i64 immarg, i8* nocapture) #7

; Function Attrs: argmemonly nounwind willreturn
declare void @llvm.lifetime.end.p0i8(i64 immarg, i8* nocapture) #7

; Function Attrs: nounwind uwtable
define weak_odr i32 @_ZNSt3__115basic_streambufIcNS_11char_traitsIcEEE9underflowEv(%"class.std::__1::basic_streambuf"* %0) unnamed_addr #0 comdat align 2 {
  ret i32 -1
}

; Function Attrs: uwtable
define weak_odr i32 @_ZNSt3__115basic_streambufIcNS_11char_traitsIcEEE5uflowEv(%"class.std::__1::basic_streambuf"* %0) unnamed_addr #3 comdat align 2 {
  %2 = bitcast %"class.std::__1::basic_streambuf"* %0 to i32 (%"class.std::__1::basic_streambuf"*)***
  %3 = load i32 (%"class.std::__1::basic_streambuf"*)**, i32 (%"class.std::__1::basic_streambuf"*)*** %2, align 8, !tbaa !17
  %4 = getelementptr inbounds i32 (%"class.std::__1::basic_streambuf"*)*, i32 (%"class.std::__1::basic_streambuf"*)** %3, i64 9
  %5 = load i32 (%"class.std::__1::basic_streambuf"*)*, i32 (%"class.std::__1::basic_streambuf"*)** %4, align 8
  %6 = tail call i32 %5(%"class.std::__1::basic_streambuf"* %0)
  %7 = icmp eq i32 %6, -1
  br i1 %7, label %14, label %8

8:                                                ; preds = %1
  %9 = getelementptr inbounds %"class.std::__1::basic_streambuf", %"class.std::__1::basic_streambuf"* %0, i64 0, i32 3
  %10 = load i8*, i8** %9, align 8, !tbaa !19
  %11 = getelementptr inbounds i8, i8* %10, i64 1
  store i8* %11, i8** %9, align 8, !tbaa !19
  %12 = load i8, i8* %10, align 1, !tbaa !23
  %13 = zext i8 %12 to i32
  br label %14

14:                                               ; preds = %1, %8
  %15 = phi i32 [ %13, %8 ], [ -1, %1 ]
  ret i32 %15
}

; Function Attrs: nounwind uwtable
define weak_odr i32 @_ZNSt3__115basic_streambufIcNS_11char_traitsIcEEE9pbackfailEi(%"class.std::__1::basic_streambuf"* %0, i32 %1) unnamed_addr #0 comdat align 2 {
  ret i32 -1
}

; Function Attrs: uwtable
define weak_odr i64 @_ZNSt3__115basic_streambufIcNS_11char_traitsIcEEE6xsputnEPKcl(%"class.std::__1::basic_streambuf"* %0, i8* %1, i64 %2) unnamed_addr #3 comdat align 2 {
  %4 = icmp sgt i64 %2, 0
  br i1 %4, label %5, label %45

5:                                                ; preds = %3
  %6 = getelementptr inbounds %"class.std::__1::basic_streambuf", %"class.std::__1::basic_streambuf"* %0, i64 0, i32 6
  %7 = getelementptr inbounds %"class.std::__1::basic_streambuf", %"class.std::__1::basic_streambuf"* %0, i64 0, i32 7
  %8 = bitcast %"class.std::__1::basic_streambuf"* %0 to i32 (%"class.std::__1::basic_streambuf"*, i32)***
  br label %9

9:                                                ; preds = %5, %41
  %10 = phi i8* [ %1, %5 ], [ %43, %41 ]
  %11 = phi i64 [ 0, %5 ], [ %42, %41 ]
  %12 = load i8*, i8** %6, align 8, !tbaa !25
  %13 = load i8*, i8** %7, align 8, !tbaa !26
  %14 = icmp ult i8* %12, %13
  br i1 %14, label %26, label %15

15:                                               ; preds = %9
  %16 = load i8, i8* %10, align 1, !tbaa !23
  %17 = zext i8 %16 to i32
  %18 = load i32 (%"class.std::__1::basic_streambuf"*, i32)**, i32 (%"class.std::__1::basic_streambuf"*, i32)*** %8, align 8, !tbaa !17
  %19 = getelementptr inbounds i32 (%"class.std::__1::basic_streambuf"*, i32)*, i32 (%"class.std::__1::basic_streambuf"*, i32)** %18, i64 13
  %20 = load i32 (%"class.std::__1::basic_streambuf"*, i32)*, i32 (%"class.std::__1::basic_streambuf"*, i32)** %19, align 8
  %21 = tail call i32 %20(%"class.std::__1::basic_streambuf"* nonnull %0, i32 %17)
  %22 = icmp eq i32 %21, -1
  br i1 %22, label %45, label %23

23:                                               ; preds = %15
  %24 = getelementptr inbounds i8, i8* %10, i64 1
  %25 = add nsw i64 %11, 1
  br label %41

26:                                               ; preds = %9
  %27 = ptrtoint i8* %12 to i64
  %28 = ptrtoint i8* %13 to i64
  %29 = sub i64 %28, %27
  %30 = sub nsw i64 %2, %11
  %31 = icmp slt i64 %30, %29
  %32 = select i1 %31, i64 %30, i64 %29
  %33 = icmp eq i64 %32, 0
  br i1 %33, label %36, label %34

34:                                               ; preds = %26
  tail call void @llvm.memcpy.p0i8.p0i8.i64(i8* align 1 %12, i8* align 1 %10, i64 %32, i1 false) #14
  %35 = load i8*, i8** %6, align 8, !tbaa !25
  br label %36

36:                                               ; preds = %26, %34
  %37 = phi i8* [ %12, %26 ], [ %35, %34 ]
  %38 = getelementptr inbounds i8, i8* %37, i64 %32
  store i8* %38, i8** %6, align 8, !tbaa !25
  %39 = getelementptr inbounds i8, i8* %10, i64 %32
  %40 = add nsw i64 %32, %11
  br label %41

41:                                               ; preds = %36, %23
  %42 = phi i64 [ %25, %23 ], [ %40, %36 ]
  %43 = phi i8* [ %24, %23 ], [ %39, %36 ]
  %44 = icmp slt i64 %42, %2
  br i1 %44, label %9, label %45

45:                                               ; preds = %41, %15, %3
  %46 = phi i64 [ 0, %3 ], [ %11, %15 ], [ %42, %41 ]
  ret i64 %46
}

; Function Attrs: nounwind uwtable
define weak_odr i32 @_ZNSt3__115basic_streambufIcNS_11char_traitsIcEEE8overflowEi(%"class.std::__1::basic_streambuf"* %0, i32 %1) unnamed_addr #0 comdat align 2 {
  ret i32 -1
}

; Function Attrs: nounwind uwtable
define weak_odr void @_ZNSt3__115basic_streambufIwNS_11char_traitsIwEEED2Ev(%"class.std::__1::basic_streambuf.4"* %0) unnamed_addr #0 comdat($_ZNSt3__115basic_streambufIwNS_11char_traitsIwEEED5Ev) align 2 {
  %2 = getelementptr %"class.std::__1::basic_streambuf.4", %"class.std::__1::basic_streambuf.4"* %0, i64 0, i32 0
  store i32 (...)** bitcast (i8** getelementptr inbounds ({ [16 x i8*] }, { [16 x i8*] }* @_ZTVNSt3__115basic_streambufIwNS_11char_traitsIwEEEE, i64 0, inrange i32 0, i64 2) to i32 (...)**), i32 (...)*** %2, align 8, !tbaa !17
  %3 = getelementptr inbounds %"class.std::__1::basic_streambuf.4", %"class.std::__1::basic_streambuf.4"* %0, i64 0, i32 1
  tail call void @_ZNSt3__16localeD1Ev(%"class.std::__1::locale"* nonnull %3) #14
  ret void
}

; Function Attrs: nounwind uwtable
define weak_odr void @_ZNSt3__115basic_streambufIwNS_11char_traitsIwEEED0Ev(%"class.std::__1::basic_streambuf.4"* %0) unnamed_addr #0 comdat($_ZNSt3__115basic_streambufIwNS_11char_traitsIwEEED5Ev) align 2 {
  %2 = getelementptr %"class.std::__1::basic_streambuf.4", %"class.std::__1::basic_streambuf.4"* %0, i64 0, i32 0
  store i32 (...)** bitcast (i8** getelementptr inbounds ({ [16 x i8*] }, { [16 x i8*] }* @_ZTVNSt3__115basic_streambufIwNS_11char_traitsIwEEEE, i64 0, inrange i32 0, i64 2) to i32 (...)**), i32 (...)*** %2, align 8, !tbaa !17
  %3 = getelementptr inbounds %"class.std::__1::basic_streambuf.4", %"class.std::__1::basic_streambuf.4"* %0, i64 0, i32 1
  tail call void @_ZNSt3__16localeD1Ev(%"class.std::__1::locale"* nonnull %3) #14
  %4 = bitcast %"class.std::__1::basic_streambuf.4"* %0 to i8*
  tail call void @_ZdlPv(i8* %4) #15
  ret void
}

; Function Attrs: inlinehint uwtable
define weak_odr void @_ZNSt3__115basic_streambufIwNS_11char_traitsIwEEE8pubimbueERKNS_6localeE(%"class.std::__1::locale"* noalias sret align 8 %0, %"class.std::__1::basic_streambuf.4"* %1, %"class.std::__1::locale"* nonnull align 8 dereferenceable(8) %2) local_unnamed_addr #5 comdat align 2 {
  %4 = bitcast %"class.std::__1::basic_streambuf.4"* %1 to void (%"class.std::__1::basic_streambuf.4"*, %"class.std::__1::locale"*)***
  %5 = load void (%"class.std::__1::basic_streambuf.4"*, %"class.std::__1::locale"*)**, void (%"class.std::__1::basic_streambuf.4"*, %"class.std::__1::locale"*)*** %4, align 8, !tbaa !17
  %6 = getelementptr inbounds void (%"class.std::__1::basic_streambuf.4"*, %"class.std::__1::locale"*)*, void (%"class.std::__1::basic_streambuf.4"*, %"class.std::__1::locale"*)** %5, i64 2
  %7 = load void (%"class.std::__1::basic_streambuf.4"*, %"class.std::__1::locale"*)*, void (%"class.std::__1::basic_streambuf.4"*, %"class.std::__1::locale"*)** %6, align 8
  tail call void %7(%"class.std::__1::basic_streambuf.4"* %1, %"class.std::__1::locale"* nonnull align 8 dereferenceable(8) %2)
  %8 = getelementptr inbounds %"class.std::__1::basic_streambuf.4", %"class.std::__1::basic_streambuf.4"* %1, i64 0, i32 1
  tail call void @_ZNSt3__16localeC1ERKS0_(%"class.std::__1::locale"* %0, %"class.std::__1::locale"* nonnull align 8 dereferenceable(8) %8) #14
  %9 = tail call nonnull align 8 dereferenceable(8) %"class.std::__1::locale"* @_ZNSt3__16localeaSERKS0_(%"class.std::__1::locale"* nonnull %8, %"class.std::__1::locale"* nonnull align 8 dereferenceable(8) %2) #14
  ret void
}

; Function Attrs: inlinehint nounwind uwtable
define weak_odr void @_ZNKSt3__115basic_streambufIwNS_11char_traitsIwEEE6getlocEv(%"class.std::__1::locale"* noalias sret align 8 %0, %"class.std::__1::basic_streambuf.4"* %1) local_unnamed_addr #6 comdat align 2 {
  %3 = getelementptr inbounds %"class.std::__1::basic_streambuf.4", %"class.std::__1::basic_streambuf.4"* %1, i64 0, i32 1
  tail call void @_ZNSt3__16localeC1ERKS0_(%"class.std::__1::locale"* %0, %"class.std::__1::locale"* nonnull align 8 dereferenceable(8) %3) #14
  ret void
}

; Function Attrs: inlinehint uwtable
define weak_odr %"class.std::__1::basic_streambuf.4"* @_ZNSt3__115basic_streambufIwNS_11char_traitsIwEEE9pubsetbufEPwl(%"class.std::__1::basic_streambuf.4"* %0, i32* %1, i64 %2) local_unnamed_addr #5 comdat align 2 {
  %4 = bitcast %"class.std::__1::basic_streambuf.4"* %0 to %"class.std::__1::basic_streambuf.4"* (%"class.std::__1::basic_streambuf.4"*, i32*, i64)***
  %5 = load %"class.std::__1::basic_streambuf.4"* (%"class.std::__1::basic_streambuf.4"*, i32*, i64)**, %"class.std::__1::basic_streambuf.4"* (%"class.std::__1::basic_streambuf.4"*, i32*, i64)*** %4, align 8, !tbaa !17
  %6 = getelementptr inbounds %"class.std::__1::basic_streambuf.4"* (%"class.std::__1::basic_streambuf.4"*, i32*, i64)*, %"class.std::__1::basic_streambuf.4"* (%"class.std::__1::basic_streambuf.4"*, i32*, i64)** %5, i64 3
  %7 = load %"class.std::__1::basic_streambuf.4"* (%"class.std::__1::basic_streambuf.4"*, i32*, i64)*, %"class.std::__1::basic_streambuf.4"* (%"class.std::__1::basic_streambuf.4"*, i32*, i64)** %6, align 8
  %8 = tail call %"class.std::__1::basic_streambuf.4"* %7(%"class.std::__1::basic_streambuf.4"* %0, i32* %1, i64 %2)
  ret %"class.std::__1::basic_streambuf.4"* %8
}

; Function Attrs: inlinehint uwtable
define weak_odr { i64, i64 } @_ZNSt3__115basic_streambufIwNS_11char_traitsIwEEE10pubseekoffExNS_8ios_base7seekdirEj(%"class.std::__1::basic_streambuf.4"* %0, i64 %1, i32 %2, i32 %3) local_unnamed_addr #5 comdat align 2 {
  %5 = bitcast %"class.std::__1::basic_streambuf.4"* %0 to { i64, i64 } (%"class.std::__1::basic_streambuf.4"*, i64, i32, i32)***
  %6 = load { i64, i64 } (%"class.std::__1::basic_streambuf.4"*, i64, i32, i32)**, { i64, i64 } (%"class.std::__1::basic_streambuf.4"*, i64, i32, i32)*** %5, align 8, !tbaa !17
  %7 = getelementptr inbounds { i64, i64 } (%"class.std::__1::basic_streambuf.4"*, i64, i32, i32)*, { i64, i64 } (%"class.std::__1::basic_streambuf.4"*, i64, i32, i32)** %6, i64 4
  %8 = load { i64, i64 } (%"class.std::__1::basic_streambuf.4"*, i64, i32, i32)*, { i64, i64 } (%"class.std::__1::basic_streambuf.4"*, i64, i32, i32)** %7, align 8
  %9 = tail call { i64, i64 } %8(%"class.std::__1::basic_streambuf.4"* %0, i64 %1, i32 %2, i32 %3)
  ret { i64, i64 } %9
}

; Function Attrs: inlinehint uwtable
define weak_odr { i64, i64 } @_ZNSt3__115basic_streambufIwNS_11char_traitsIwEEE10pubseekposENS_4fposI11__mbstate_tEEj(%"class.std::__1::basic_streambuf.4"* %0, i64 %1, i64 %2, i32 %3) local_unnamed_addr #5 comdat align 2 {
  %5 = bitcast %"class.std::__1::basic_streambuf.4"* %0 to { i64, i64 } (%"class.std::__1::basic_streambuf.4"*, i64, i64, i32)***
  %6 = load { i64, i64 } (%"class.std::__1::basic_streambuf.4"*, i64, i64, i32)**, { i64, i64 } (%"class.std::__1::basic_streambuf.4"*, i64, i64, i32)*** %5, align 8, !tbaa !17
  %7 = getelementptr inbounds { i64, i64 } (%"class.std::__1::basic_streambuf.4"*, i64, i64, i32)*, { i64, i64 } (%"class.std::__1::basic_streambuf.4"*, i64, i64, i32)** %6, i64 5
  %8 = load { i64, i64 } (%"class.std::__1::basic_streambuf.4"*, i64, i64, i32)*, { i64, i64 } (%"class.std::__1::basic_streambuf.4"*, i64, i64, i32)** %7, align 8
  %9 = tail call { i64, i64 } %8(%"class.std::__1::basic_streambuf.4"* %0, i64 %1, i64 %2, i32 %3)
  ret { i64, i64 } %9
}

; Function Attrs: inlinehint uwtable
define weak_odr i32 @_ZNSt3__115basic_streambufIwNS_11char_traitsIwEEE7pubsyncEv(%"class.std::__1::basic_streambuf.4"* %0) local_unnamed_addr #5 comdat align 2 {
  %2 = bitcast %"class.std::__1::basic_streambuf.4"* %0 to i32 (%"class.std::__1::basic_streambuf.4"*)***
  %3 = load i32 (%"class.std::__1::basic_streambuf.4"*)**, i32 (%"class.std::__1::basic_streambuf.4"*)*** %2, align 8, !tbaa !17
  %4 = getelementptr inbounds i32 (%"class.std::__1::basic_streambuf.4"*)*, i32 (%"class.std::__1::basic_streambuf.4"*)** %3, i64 6
  %5 = load i32 (%"class.std::__1::basic_streambuf.4"*)*, i32 (%"class.std::__1::basic_streambuf.4"*)** %4, align 8
  %6 = tail call i32 %5(%"class.std::__1::basic_streambuf.4"* %0)
  ret i32 %6
}

; Function Attrs: inlinehint uwtable
define weak_odr i64 @_ZNSt3__115basic_streambufIwNS_11char_traitsIwEEE8in_availEv(%"class.std::__1::basic_streambuf.4"* %0) local_unnamed_addr #5 comdat align 2 {
  %2 = getelementptr inbounds %"class.std::__1::basic_streambuf.4", %"class.std::__1::basic_streambuf.4"* %0, i64 0, i32 3
  %3 = load i32*, i32** %2, align 8, !tbaa !29
  %4 = getelementptr inbounds %"class.std::__1::basic_streambuf.4", %"class.std::__1::basic_streambuf.4"* %0, i64 0, i32 4
  %5 = load i32*, i32** %4, align 8, !tbaa !31
  %6 = icmp ult i32* %3, %5
  br i1 %6, label %7, label %12

7:                                                ; preds = %1
  %8 = ptrtoint i32* %5 to i64
  %9 = ptrtoint i32* %3 to i64
  %10 = sub i64 %8, %9
  %11 = ashr exact i64 %10, 2
  br label %18

12:                                               ; preds = %1
  %13 = bitcast %"class.std::__1::basic_streambuf.4"* %0 to i64 (%"class.std::__1::basic_streambuf.4"*)***
  %14 = load i64 (%"class.std::__1::basic_streambuf.4"*)**, i64 (%"class.std::__1::basic_streambuf.4"*)*** %13, align 8, !tbaa !17
  %15 = getelementptr inbounds i64 (%"class.std::__1::basic_streambuf.4"*)*, i64 (%"class.std::__1::basic_streambuf.4"*)** %14, i64 7
  %16 = load i64 (%"class.std::__1::basic_streambuf.4"*)*, i64 (%"class.std::__1::basic_streambuf.4"*)** %15, align 8
  %17 = tail call i64 %16(%"class.std::__1::basic_streambuf.4"* nonnull %0)
  br label %18

18:                                               ; preds = %12, %7
  %19 = phi i64 [ %11, %7 ], [ %17, %12 ]
  ret i64 %19
}

; Function Attrs: inlinehint uwtable
define weak_odr i32 @_ZNSt3__115basic_streambufIwNS_11char_traitsIwEEE6snextcEv(%"class.std::__1::basic_streambuf.4"* %0) local_unnamed_addr #5 comdat align 2 {
  %2 = getelementptr inbounds %"class.std::__1::basic_streambuf.4", %"class.std::__1::basic_streambuf.4"* %0, i64 0, i32 3
  %3 = load i32*, i32** %2, align 8, !tbaa !29
  %4 = getelementptr inbounds %"class.std::__1::basic_streambuf.4", %"class.std::__1::basic_streambuf.4"* %0, i64 0, i32 4
  %5 = load i32*, i32** %4, align 8, !tbaa !31
  %6 = icmp eq i32* %3, %5
  br i1 %6, label %7, label %13

7:                                                ; preds = %1
  %8 = bitcast %"class.std::__1::basic_streambuf.4"* %0 to i32 (%"class.std::__1::basic_streambuf.4"*)***
  %9 = load i32 (%"class.std::__1::basic_streambuf.4"*)**, i32 (%"class.std::__1::basic_streambuf.4"*)*** %8, align 8, !tbaa !17
  %10 = getelementptr inbounds i32 (%"class.std::__1::basic_streambuf.4"*)*, i32 (%"class.std::__1::basic_streambuf.4"*)** %9, i64 10
  %11 = load i32 (%"class.std::__1::basic_streambuf.4"*)*, i32 (%"class.std::__1::basic_streambuf.4"*)** %10, align 8
  %12 = tail call i32 %11(%"class.std::__1::basic_streambuf.4"* nonnull %0)
  br label %16

13:                                               ; preds = %1
  %14 = getelementptr inbounds i32, i32* %3, i64 1
  store i32* %14, i32** %2, align 8, !tbaa !29
  %15 = load i32, i32* %3, align 4, !tbaa !32
  br label %16

16:                                               ; preds = %7, %13
  %17 = phi i32 [ %12, %7 ], [ %15, %13 ]
  %18 = icmp eq i32 %17, -1
  br i1 %18, label %31, label %19

19:                                               ; preds = %16
  %20 = load i32*, i32** %2, align 8, !tbaa !29
  %21 = load i32*, i32** %4, align 8, !tbaa !31
  %22 = icmp eq i32* %20, %21
  br i1 %22, label %23, label %29

23:                                               ; preds = %19
  %24 = bitcast %"class.std::__1::basic_streambuf.4"* %0 to i32 (%"class.std::__1::basic_streambuf.4"*)***
  %25 = load i32 (%"class.std::__1::basic_streambuf.4"*)**, i32 (%"class.std::__1::basic_streambuf.4"*)*** %24, align 8, !tbaa !17
  %26 = getelementptr inbounds i32 (%"class.std::__1::basic_streambuf.4"*)*, i32 (%"class.std::__1::basic_streambuf.4"*)** %25, i64 9
  %27 = load i32 (%"class.std::__1::basic_streambuf.4"*)*, i32 (%"class.std::__1::basic_streambuf.4"*)** %26, align 8
  %28 = tail call i32 %27(%"class.std::__1::basic_streambuf.4"* nonnull %0)
  br label %31

29:                                               ; preds = %19
  %30 = load i32, i32* %20, align 4, !tbaa !32
  br label %31

31:                                               ; preds = %29, %23, %16
  %32 = phi i32 [ -1, %16 ], [ %28, %23 ], [ %30, %29 ]
  ret i32 %32
}

; Function Attrs: inlinehint uwtable
define weak_odr i32 @_ZNSt3__115basic_streambufIwNS_11char_traitsIwEEE6sbumpcEv(%"class.std::__1::basic_streambuf.4"* %0) local_unnamed_addr #5 comdat align 2 {
  %2 = getelementptr inbounds %"class.std::__1::basic_streambuf.4", %"class.std::__1::basic_streambuf.4"* %0, i64 0, i32 3
  %3 = load i32*, i32** %2, align 8, !tbaa !29
  %4 = getelementptr inbounds %"class.std::__1::basic_streambuf.4", %"class.std::__1::basic_streambuf.4"* %0, i64 0, i32 4
  %5 = load i32*, i32** %4, align 8, !tbaa !31
  %6 = icmp eq i32* %3, %5
  br i1 %6, label %7, label %13

7:                                                ; preds = %1
  %8 = bitcast %"class.std::__1::basic_streambuf.4"* %0 to i32 (%"class.std::__1::basic_streambuf.4"*)***
  %9 = load i32 (%"class.std::__1::basic_streambuf.4"*)**, i32 (%"class.std::__1::basic_streambuf.4"*)*** %8, align 8, !tbaa !17
  %10 = getelementptr inbounds i32 (%"class.std::__1::basic_streambuf.4"*)*, i32 (%"class.std::__1::basic_streambuf.4"*)** %9, i64 10
  %11 = load i32 (%"class.std::__1::basic_streambuf.4"*)*, i32 (%"class.std::__1::basic_streambuf.4"*)** %10, align 8
  %12 = tail call i32 %11(%"class.std::__1::basic_streambuf.4"* nonnull %0)
  br label %16

13:                                               ; preds = %1
  %14 = getelementptr inbounds i32, i32* %3, i64 1
  store i32* %14, i32** %2, align 8, !tbaa !29
  %15 = load i32, i32* %3, align 4, !tbaa !32
  br label %16

16:                                               ; preds = %13, %7
  %17 = phi i32 [ %12, %7 ], [ %15, %13 ]
  ret i32 %17
}

; Function Attrs: inlinehint uwtable
define weak_odr i32 @_ZNSt3__115basic_streambufIwNS_11char_traitsIwEEE5sgetcEv(%"class.std::__1::basic_streambuf.4"* %0) local_unnamed_addr #5 comdat align 2 {
  %2 = getelementptr inbounds %"class.std::__1::basic_streambuf.4", %"class.std::__1::basic_streambuf.4"* %0, i64 0, i32 3
  %3 = load i32*, i32** %2, align 8, !tbaa !29
  %4 = getelementptr inbounds %"class.std::__1::basic_streambuf.4", %"class.std::__1::basic_streambuf.4"* %0, i64 0, i32 4
  %5 = load i32*, i32** %4, align 8, !tbaa !31
  %6 = icmp eq i32* %3, %5
  br i1 %6, label %7, label %13

7:                                                ; preds = %1
  %8 = bitcast %"class.std::__1::basic_streambuf.4"* %0 to i32 (%"class.std::__1::basic_streambuf.4"*)***
  %9 = load i32 (%"class.std::__1::basic_streambuf.4"*)**, i32 (%"class.std::__1::basic_streambuf.4"*)*** %8, align 8, !tbaa !17
  %10 = getelementptr inbounds i32 (%"class.std::__1::basic_streambuf.4"*)*, i32 (%"class.std::__1::basic_streambuf.4"*)** %9, i64 9
  %11 = load i32 (%"class.std::__1::basic_streambuf.4"*)*, i32 (%"class.std::__1::basic_streambuf.4"*)** %10, align 8
  %12 = tail call i32 %11(%"class.std::__1::basic_streambuf.4"* nonnull %0)
  br label %15

13:                                               ; preds = %1
  %14 = load i32, i32* %3, align 4, !tbaa !32
  br label %15

15:                                               ; preds = %13, %7
  %16 = phi i32 [ %12, %7 ], [ %14, %13 ]
  ret i32 %16
}

; Function Attrs: inlinehint uwtable
define weak_odr i64 @_ZNSt3__115basic_streambufIwNS_11char_traitsIwEEE5sgetnEPwl(%"class.std::__1::basic_streambuf.4"* %0, i32* %1, i64 %2) local_unnamed_addr #5 comdat align 2 {
  %4 = bitcast %"class.std::__1::basic_streambuf.4"* %0 to i64 (%"class.std::__1::basic_streambuf.4"*, i32*, i64)***
  %5 = load i64 (%"class.std::__1::basic_streambuf.4"*, i32*, i64)**, i64 (%"class.std::__1::basic_streambuf.4"*, i32*, i64)*** %4, align 8, !tbaa !17
  %6 = getelementptr inbounds i64 (%"class.std::__1::basic_streambuf.4"*, i32*, i64)*, i64 (%"class.std::__1::basic_streambuf.4"*, i32*, i64)** %5, i64 8
  %7 = load i64 (%"class.std::__1::basic_streambuf.4"*, i32*, i64)*, i64 (%"class.std::__1::basic_streambuf.4"*, i32*, i64)** %6, align 8
  %8 = tail call i64 %7(%"class.std::__1::basic_streambuf.4"* %0, i32* %1, i64 %2)
  ret i64 %8
}

; Function Attrs: inlinehint uwtable
define weak_odr i32 @_ZNSt3__115basic_streambufIwNS_11char_traitsIwEEE9sputbackcEw(%"class.std::__1::basic_streambuf.4"* %0, i32 signext %1) local_unnamed_addr #5 comdat align 2 {
  %3 = getelementptr inbounds %"class.std::__1::basic_streambuf.4", %"class.std::__1::basic_streambuf.4"* %0, i64 0, i32 2
  %4 = load i32*, i32** %3, align 8, !tbaa !34
  %5 = getelementptr inbounds %"class.std::__1::basic_streambuf.4", %"class.std::__1::basic_streambuf.4"* %0, i64 0, i32 3
  %6 = load i32*, i32** %5, align 8, !tbaa !29
  %7 = icmp eq i32* %4, %6
  br i1 %7, label %12, label %8

8:                                                ; preds = %2
  %9 = getelementptr inbounds i32, i32* %6, i64 -1
  %10 = load i32, i32* %9, align 4, !tbaa !32
  %11 = icmp eq i32 %10, %1
  br i1 %11, label %18, label %12

12:                                               ; preds = %8, %2
  %13 = bitcast %"class.std::__1::basic_streambuf.4"* %0 to i32 (%"class.std::__1::basic_streambuf.4"*, i32)***
  %14 = load i32 (%"class.std::__1::basic_streambuf.4"*, i32)**, i32 (%"class.std::__1::basic_streambuf.4"*, i32)*** %13, align 8, !tbaa !17
  %15 = getelementptr inbounds i32 (%"class.std::__1::basic_streambuf.4"*, i32)*, i32 (%"class.std::__1::basic_streambuf.4"*, i32)** %14, i64 11
  %16 = load i32 (%"class.std::__1::basic_streambuf.4"*, i32)*, i32 (%"class.std::__1::basic_streambuf.4"*, i32)** %15, align 8
  %17 = tail call i32 %16(%"class.std::__1::basic_streambuf.4"* nonnull %0, i32 %1)
  br label %19

18:                                               ; preds = %8
  store i32* %9, i32** %5, align 8, !tbaa !29
  br label %19

19:                                               ; preds = %18, %12
  %20 = phi i32 [ %17, %12 ], [ %1, %18 ]
  ret i32 %20
}

; Function Attrs: inlinehint uwtable
define weak_odr i32 @_ZNSt3__115basic_streambufIwNS_11char_traitsIwEEE7sungetcEv(%"class.std::__1::basic_streambuf.4"* %0) local_unnamed_addr #5 comdat align 2 {
  %2 = getelementptr inbounds %"class.std::__1::basic_streambuf.4", %"class.std::__1::basic_streambuf.4"* %0, i64 0, i32 2
  %3 = load i32*, i32** %2, align 8, !tbaa !34
  %4 = getelementptr inbounds %"class.std::__1::basic_streambuf.4", %"class.std::__1::basic_streambuf.4"* %0, i64 0, i32 3
  %5 = load i32*, i32** %4, align 8, !tbaa !29
  %6 = icmp eq i32* %3, %5
  br i1 %6, label %7, label %13

7:                                                ; preds = %1
  %8 = bitcast %"class.std::__1::basic_streambuf.4"* %0 to i32 (%"class.std::__1::basic_streambuf.4"*, i32)***
  %9 = load i32 (%"class.std::__1::basic_streambuf.4"*, i32)**, i32 (%"class.std::__1::basic_streambuf.4"*, i32)*** %8, align 8, !tbaa !17
  %10 = getelementptr inbounds i32 (%"class.std::__1::basic_streambuf.4"*, i32)*, i32 (%"class.std::__1::basic_streambuf.4"*, i32)** %9, i64 11
  %11 = load i32 (%"class.std::__1::basic_streambuf.4"*, i32)*, i32 (%"class.std::__1::basic_streambuf.4"*, i32)** %10, align 8
  %12 = tail call i32 %11(%"class.std::__1::basic_streambuf.4"* nonnull %0, i32 -1)
  br label %16

13:                                               ; preds = %1
  %14 = getelementptr inbounds i32, i32* %5, i64 -1
  store i32* %14, i32** %4, align 8, !tbaa !29
  %15 = load i32, i32* %14, align 4, !tbaa !32
  br label %16

16:                                               ; preds = %13, %7
  %17 = phi i32 [ %12, %7 ], [ %15, %13 ]
  ret i32 %17
}

; Function Attrs: inlinehint uwtable
define weak_odr i32 @_ZNSt3__115basic_streambufIwNS_11char_traitsIwEEE5sputcEw(%"class.std::__1::basic_streambuf.4"* %0, i32 signext %1) local_unnamed_addr #5 comdat align 2 {
  %3 = getelementptr inbounds %"class.std::__1::basic_streambuf.4", %"class.std::__1::basic_streambuf.4"* %0, i64 0, i32 6
  %4 = load i32*, i32** %3, align 8, !tbaa !35
  %5 = getelementptr inbounds %"class.std::__1::basic_streambuf.4", %"class.std::__1::basic_streambuf.4"* %0, i64 0, i32 7
  %6 = load i32*, i32** %5, align 8, !tbaa !36
  %7 = icmp eq i32* %4, %6
  br i1 %7, label %8, label %14

8:                                                ; preds = %2
  %9 = bitcast %"class.std::__1::basic_streambuf.4"* %0 to i32 (%"class.std::__1::basic_streambuf.4"*, i32)***
  %10 = load i32 (%"class.std::__1::basic_streambuf.4"*, i32)**, i32 (%"class.std::__1::basic_streambuf.4"*, i32)*** %9, align 8, !tbaa !17
  %11 = getelementptr inbounds i32 (%"class.std::__1::basic_streambuf.4"*, i32)*, i32 (%"class.std::__1::basic_streambuf.4"*, i32)** %10, i64 13
  %12 = load i32 (%"class.std::__1::basic_streambuf.4"*, i32)*, i32 (%"class.std::__1::basic_streambuf.4"*, i32)** %11, align 8
  %13 = tail call i32 %12(%"class.std::__1::basic_streambuf.4"* nonnull %0, i32 %1)
  br label %16

14:                                               ; preds = %2
  %15 = getelementptr inbounds i32, i32* %4, i64 1
  store i32* %15, i32** %3, align 8, !tbaa !35
  store i32 %1, i32* %4, align 4, !tbaa !32
  br label %16

16:                                               ; preds = %14, %8
  %17 = phi i32 [ %13, %8 ], [ %1, %14 ]
  ret i32 %17
}

; Function Attrs: inlinehint uwtable
define weak_odr i64 @_ZNSt3__115basic_streambufIwNS_11char_traitsIwEEE5sputnEPKwl(%"class.std::__1::basic_streambuf.4"* %0, i32* %1, i64 %2) local_unnamed_addr #5 comdat align 2 {
  %4 = bitcast %"class.std::__1::basic_streambuf.4"* %0 to i64 (%"class.std::__1::basic_streambuf.4"*, i32*, i64)***
  %5 = load i64 (%"class.std::__1::basic_streambuf.4"*, i32*, i64)**, i64 (%"class.std::__1::basic_streambuf.4"*, i32*, i64)*** %4, align 8, !tbaa !17
  %6 = getelementptr inbounds i64 (%"class.std::__1::basic_streambuf.4"*, i32*, i64)*, i64 (%"class.std::__1::basic_streambuf.4"*, i32*, i64)** %5, i64 12
  %7 = load i64 (%"class.std::__1::basic_streambuf.4"*, i32*, i64)*, i64 (%"class.std::__1::basic_streambuf.4"*, i32*, i64)** %6, align 8
  %8 = tail call i64 %7(%"class.std::__1::basic_streambuf.4"* %0, i32* %1, i64 %2)
  ret i64 %8
}

; Function Attrs: nounwind uwtable
define weak_odr void @_ZNSt3__115basic_streambufIwNS_11char_traitsIwEEEC2Ev(%"class.std::__1::basic_streambuf.4"* %0) unnamed_addr #0 comdat($_ZNSt3__115basic_streambufIwNS_11char_traitsIwEEEC5Ev) align 2 {
  %2 = getelementptr %"class.std::__1::basic_streambuf.4", %"class.std::__1::basic_streambuf.4"* %0, i64 0, i32 0
  store i32 (...)** bitcast (i8** getelementptr inbounds ({ [16 x i8*] }, { [16 x i8*] }* @_ZTVNSt3__115basic_streambufIwNS_11char_traitsIwEEEE, i64 0, inrange i32 0, i64 2) to i32 (...)**), i32 (...)*** %2, align 8, !tbaa !17
  %3 = getelementptr inbounds %"class.std::__1::basic_streambuf.4", %"class.std::__1::basic_streambuf.4"* %0, i64 0, i32 1
  tail call void @_ZNSt3__16localeC1Ev(%"class.std::__1::locale"* nonnull %3) #14
  %4 = getelementptr inbounds %"class.std::__1::basic_streambuf.4", %"class.std::__1::basic_streambuf.4"* %0, i64 0, i32 2
  %5 = bitcast i32** %4 to i8*
  call void @llvm.memset.p0i8.i64(i8* nonnull align 8 dereferenceable(48) %5, i8 0, i64 48, i1 false)
  ret void
}

; Function Attrs: nounwind uwtable
define weak_odr void @_ZNSt3__115basic_streambufIwNS_11char_traitsIwEEEC2ERKS3_(%"class.std::__1::basic_streambuf.4"* %0, %"class.std::__1::basic_streambuf.4"* nonnull align 8 dereferenceable(64) %1) unnamed_addr #0 comdat($_ZNSt3__115basic_streambufIwNS_11char_traitsIwEEEC5ERKS3_) align 2 {
  %3 = getelementptr %"class.std::__1::basic_streambuf.4", %"class.std::__1::basic_streambuf.4"* %0, i64 0, i32 0
  store i32 (...)** bitcast (i8** getelementptr inbounds ({ [16 x i8*] }, { [16 x i8*] }* @_ZTVNSt3__115basic_streambufIwNS_11char_traitsIwEEEE, i64 0, inrange i32 0, i64 2) to i32 (...)**), i32 (...)*** %3, align 8, !tbaa !17
  %4 = getelementptr inbounds %"class.std::__1::basic_streambuf.4", %"class.std::__1::basic_streambuf.4"* %0, i64 0, i32 1
  %5 = getelementptr inbounds %"class.std::__1::basic_streambuf.4", %"class.std::__1::basic_streambuf.4"* %1, i64 0, i32 1
  tail call void @_ZNSt3__16localeC1ERKS0_(%"class.std::__1::locale"* nonnull %4, %"class.std::__1::locale"* nonnull align 8 dereferenceable(8) %5) #14
  %6 = getelementptr inbounds %"class.std::__1::basic_streambuf.4", %"class.std::__1::basic_streambuf.4"* %0, i64 0, i32 2
  %7 = getelementptr inbounds %"class.std::__1::basic_streambuf.4", %"class.std::__1::basic_streambuf.4"* %1, i64 0, i32 2
  %8 = bitcast i32** %7 to <2 x i64>*
  %9 = load <2 x i64>, <2 x i64>* %8, align 8, !tbaa !27
  %10 = bitcast i32** %6 to <2 x i64>*
  store <2 x i64> %9, <2 x i64>* %10, align 8, !tbaa !27
  %11 = getelementptr inbounds %"class.std::__1::basic_streambuf.4", %"class.std::__1::basic_streambuf.4"* %0, i64 0, i32 4
  %12 = getelementptr inbounds %"class.std::__1::basic_streambuf.4", %"class.std::__1::basic_streambuf.4"* %1, i64 0, i32 4
  %13 = bitcast i32** %12 to <2 x i64>*
  %14 = load <2 x i64>, <2 x i64>* %13, align 8, !tbaa !27
  %15 = bitcast i32** %11 to <2 x i64>*
  store <2 x i64> %14, <2 x i64>* %15, align 8, !tbaa !27
  %16 = getelementptr inbounds %"class.std::__1::basic_streambuf.4", %"class.std::__1::basic_streambuf.4"* %0, i64 0, i32 6
  %17 = getelementptr inbounds %"class.std::__1::basic_streambuf.4", %"class.std::__1::basic_streambuf.4"* %1, i64 0, i32 6
  %18 = bitcast i32** %17 to <2 x i64>*
  %19 = load <2 x i64>, <2 x i64>* %18, align 8, !tbaa !27
  %20 = bitcast i32** %16 to <2 x i64>*
  store <2 x i64> %19, <2 x i64>* %20, align 8, !tbaa !27
  ret void
}

; Function Attrs: nounwind uwtable
define weak_odr nonnull align 8 dereferenceable(64) %"class.std::__1::basic_streambuf.4"* @_ZNSt3__115basic_streambufIwNS_11char_traitsIwEEEaSERKS3_(%"class.std::__1::basic_streambuf.4"* %0, %"class.std::__1::basic_streambuf.4"* nonnull align 8 dereferenceable(64) %1) local_unnamed_addr #0 comdat align 2 {
  %3 = getelementptr inbounds %"class.std::__1::basic_streambuf.4", %"class.std::__1::basic_streambuf.4"* %1, i64 0, i32 1
  %4 = getelementptr inbounds %"class.std::__1::basic_streambuf.4", %"class.std::__1::basic_streambuf.4"* %0, i64 0, i32 1
  %5 = tail call nonnull align 8 dereferenceable(8) %"class.std::__1::locale"* @_ZNSt3__16localeaSERKS0_(%"class.std::__1::locale"* nonnull %4, %"class.std::__1::locale"* nonnull align 8 dereferenceable(8) %3) #14
  %6 = getelementptr inbounds %"class.std::__1::basic_streambuf.4", %"class.std::__1::basic_streambuf.4"* %1, i64 0, i32 2
  %7 = getelementptr inbounds %"class.std::__1::basic_streambuf.4", %"class.std::__1::basic_streambuf.4"* %0, i64 0, i32 2
  %8 = bitcast i32** %6 to <2 x i64>*
  %9 = load <2 x i64>, <2 x i64>* %8, align 8, !tbaa !27
  %10 = bitcast i32** %7 to <2 x i64>*
  store <2 x i64> %9, <2 x i64>* %10, align 8, !tbaa !27
  %11 = getelementptr inbounds %"class.std::__1::basic_streambuf.4", %"class.std::__1::basic_streambuf.4"* %1, i64 0, i32 4
  %12 = getelementptr inbounds %"class.std::__1::basic_streambuf.4", %"class.std::__1::basic_streambuf.4"* %0, i64 0, i32 4
  %13 = bitcast i32** %11 to <2 x i64>*
  %14 = load <2 x i64>, <2 x i64>* %13, align 8, !tbaa !27
  %15 = bitcast i32** %12 to <2 x i64>*
  store <2 x i64> %14, <2 x i64>* %15, align 8, !tbaa !27
  %16 = getelementptr inbounds %"class.std::__1::basic_streambuf.4", %"class.std::__1::basic_streambuf.4"* %1, i64 0, i32 6
  %17 = getelementptr inbounds %"class.std::__1::basic_streambuf.4", %"class.std::__1::basic_streambuf.4"* %0, i64 0, i32 6
  %18 = bitcast i32** %16 to <2 x i64>*
  %19 = load <2 x i64>, <2 x i64>* %18, align 8, !tbaa !27
  %20 = bitcast i32** %17 to <2 x i64>*
  store <2 x i64> %19, <2 x i64>* %20, align 8, !tbaa !27
  ret %"class.std::__1::basic_streambuf.4"* %0
}

; Function Attrs: nounwind uwtable
define weak_odr void @_ZNSt3__115basic_streambufIwNS_11char_traitsIwEEE4swapERS3_(%"class.std::__1::basic_streambuf.4"* %0, %"class.std::__1::basic_streambuf.4"* nonnull align 8 dereferenceable(64) %1) local_unnamed_addr #0 comdat align 2 {
  %3 = alloca %"class.std::__1::locale", align 8
  %4 = getelementptr inbounds %"class.std::__1::basic_streambuf.4", %"class.std::__1::basic_streambuf.4"* %0, i64 0, i32 1
  %5 = getelementptr inbounds %"class.std::__1::basic_streambuf.4", %"class.std::__1::basic_streambuf.4"* %1, i64 0, i32 1
  %6 = bitcast %"class.std::__1::locale"* %3 to i8*
  call void @llvm.lifetime.start.p0i8(i64 8, i8* nonnull %6) #14
  call void @_ZNSt3__16localeC1ERKS0_(%"class.std::__1::locale"* nonnull %3, %"class.std::__1::locale"* nonnull align 8 dereferenceable(8) %4) #14
  %7 = call nonnull align 8 dereferenceable(8) %"class.std::__1::locale"* @_ZNSt3__16localeaSERKS0_(%"class.std::__1::locale"* nonnull %4, %"class.std::__1::locale"* nonnull align 8 dereferenceable(8) %5) #14
  %8 = call nonnull align 8 dereferenceable(8) %"class.std::__1::locale"* @_ZNSt3__16localeaSERKS0_(%"class.std::__1::locale"* nonnull %5, %"class.std::__1::locale"* nonnull align 8 dereferenceable(8) %3) #14
  call void @_ZNSt3__16localeD1Ev(%"class.std::__1::locale"* nonnull %3) #14
  call void @llvm.lifetime.end.p0i8(i64 8, i8* nonnull %6) #14
  %9 = getelementptr inbounds %"class.std::__1::basic_streambuf.4", %"class.std::__1::basic_streambuf.4"* %0, i64 0, i32 2
  %10 = getelementptr inbounds %"class.std::__1::basic_streambuf.4", %"class.std::__1::basic_streambuf.4"* %1, i64 0, i32 2
  %11 = bitcast i32** %9 to i64*
  %12 = load i64, i64* %11, align 8, !tbaa !27
  %13 = bitcast i32** %10 to i64*
  %14 = load i64, i64* %13, align 8, !tbaa !27
  store i64 %14, i64* %11, align 8, !tbaa !27
  store i64 %12, i64* %13, align 8, !tbaa !27
  %15 = getelementptr inbounds %"class.std::__1::basic_streambuf.4", %"class.std::__1::basic_streambuf.4"* %0, i64 0, i32 3
  %16 = getelementptr inbounds %"class.std::__1::basic_streambuf.4", %"class.std::__1::basic_streambuf.4"* %1, i64 0, i32 3
  %17 = bitcast i32** %15 to i64*
  %18 = load i64, i64* %17, align 8, !tbaa !27
  %19 = bitcast i32** %16 to i64*
  %20 = load i64, i64* %19, align 8, !tbaa !27
  store i64 %20, i64* %17, align 8, !tbaa !27
  store i64 %18, i64* %19, align 8, !tbaa !27
  %21 = getelementptr inbounds %"class.std::__1::basic_streambuf.4", %"class.std::__1::basic_streambuf.4"* %0, i64 0, i32 4
  %22 = getelementptr inbounds %"class.std::__1::basic_streambuf.4", %"class.std::__1::basic_streambuf.4"* %1, i64 0, i32 4
  %23 = bitcast i32** %21 to i64*
  %24 = load i64, i64* %23, align 8, !tbaa !27
  %25 = bitcast i32** %22 to i64*
  %26 = load i64, i64* %25, align 8, !tbaa !27
  store i64 %26, i64* %23, align 8, !tbaa !27
  store i64 %24, i64* %25, align 8, !tbaa !27
  %27 = getelementptr inbounds %"class.std::__1::basic_streambuf.4", %"class.std::__1::basic_streambuf.4"* %0, i64 0, i32 5
  %28 = getelementptr inbounds %"class.std::__1::basic_streambuf.4", %"class.std::__1::basic_streambuf.4"* %1, i64 0, i32 5
  %29 = bitcast i32** %27 to i64*
  %30 = load i64, i64* %29, align 8, !tbaa !27
  %31 = bitcast i32** %28 to i64*
  %32 = load i64, i64* %31, align 8, !tbaa !27
  store i64 %32, i64* %29, align 8, !tbaa !27
  store i64 %30, i64* %31, align 8, !tbaa !27
  %33 = getelementptr inbounds %"class.std::__1::basic_streambuf.4", %"class.std::__1::basic_streambuf.4"* %0, i64 0, i32 6
  %34 = getelementptr inbounds %"class.std::__1::basic_streambuf.4", %"class.std::__1::basic_streambuf.4"* %1, i64 0, i32 6
  %35 = bitcast i32** %33 to i64*
  %36 = load i64, i64* %35, align 8, !tbaa !27
  %37 = bitcast i32** %34 to i64*
  %38 = load i64, i64* %37, align 8, !tbaa !27
  store i64 %38, i64* %35, align 8, !tbaa !27
  store i64 %36, i64* %37, align 8, !tbaa !27
  %39 = getelementptr inbounds %"class.std::__1::basic_streambuf.4", %"class.std::__1::basic_streambuf.4"* %0, i64 0, i32 7
  %40 = getelementptr inbounds %"class.std::__1::basic_streambuf.4", %"class.std::__1::basic_streambuf.4"* %1, i64 0, i32 7
  %41 = bitcast i32** %39 to i64*
  %42 = load i64, i64* %41, align 8, !tbaa !27
  %43 = bitcast i32** %40 to i64*
  %44 = load i64, i64* %43, align 8, !tbaa !27
  store i64 %44, i64* %41, align 8, !tbaa !27
  store i64 %42, i64* %43, align 8, !tbaa !27
  ret void
}

; Function Attrs: inlinehint nounwind uwtable
define weak_odr void @_ZNSt3__115basic_streambufIwNS_11char_traitsIwEEE5gbumpEi(%"class.std::__1::basic_streambuf.4"* %0, i32 %1) local_unnamed_addr #6 comdat align 2 {
  %3 = getelementptr inbounds %"class.std::__1::basic_streambuf.4", %"class.std::__1::basic_streambuf.4"* %0, i64 0, i32 3
  %4 = load i32*, i32** %3, align 8, !tbaa !29
  %5 = sext i32 %1 to i64
  %6 = getelementptr inbounds i32, i32* %4, i64 %5
  store i32* %6, i32** %3, align 8, !tbaa !29
  ret void
}

; Function Attrs: inlinehint nounwind uwtable
define weak_odr void @_ZNSt3__115basic_streambufIwNS_11char_traitsIwEEE4setgEPwS4_S4_(%"class.std::__1::basic_streambuf.4"* %0, i32* %1, i32* %2, i32* %3) local_unnamed_addr #6 comdat align 2 {
  %5 = getelementptr inbounds %"class.std::__1::basic_streambuf.4", %"class.std::__1::basic_streambuf.4"* %0, i64 0, i32 2
  store i32* %1, i32** %5, align 8, !tbaa !34
  %6 = getelementptr inbounds %"class.std::__1::basic_streambuf.4", %"class.std::__1::basic_streambuf.4"* %0, i64 0, i32 3
  store i32* %2, i32** %6, align 8, !tbaa !29
  %7 = getelementptr inbounds %"class.std::__1::basic_streambuf.4", %"class.std::__1::basic_streambuf.4"* %0, i64 0, i32 4
  store i32* %3, i32** %7, align 8, !tbaa !31
  ret void
}

; Function Attrs: inlinehint nounwind uwtable
define weak_odr void @_ZNSt3__115basic_streambufIwNS_11char_traitsIwEEE5pbumpEi(%"class.std::__1::basic_streambuf.4"* %0, i32 %1) local_unnamed_addr #6 comdat align 2 {
  %3 = getelementptr inbounds %"class.std::__1::basic_streambuf.4", %"class.std::__1::basic_streambuf.4"* %0, i64 0, i32 6
  %4 = load i32*, i32** %3, align 8, !tbaa !35
  %5 = sext i32 %1 to i64
  %6 = getelementptr inbounds i32, i32* %4, i64 %5
  store i32* %6, i32** %3, align 8, !tbaa !35
  ret void
}

; Function Attrs: inlinehint nounwind uwtable
define weak_odr void @_ZNSt3__115basic_streambufIwNS_11char_traitsIwEEE4setpEPwS4_(%"class.std::__1::basic_streambuf.4"* %0, i32* %1, i32* %2) local_unnamed_addr #6 comdat align 2 {
  %4 = getelementptr inbounds %"class.std::__1::basic_streambuf.4", %"class.std::__1::basic_streambuf.4"* %0, i64 0, i32 6
  store i32* %1, i32** %4, align 8, !tbaa !35
  %5 = getelementptr inbounds %"class.std::__1::basic_streambuf.4", %"class.std::__1::basic_streambuf.4"* %0, i64 0, i32 5
  store i32* %1, i32** %5, align 8, !tbaa !37
  %6 = getelementptr inbounds %"class.std::__1::basic_streambuf.4", %"class.std::__1::basic_streambuf.4"* %0, i64 0, i32 7
  store i32* %2, i32** %6, align 8, !tbaa !36
  ret void
}

; Function Attrs: nounwind uwtable
define weak_odr void @_ZNSt3__115basic_streambufIwNS_11char_traitsIwEEE5imbueERKNS_6localeE(%"class.std::__1::basic_streambuf.4"* %0, %"class.std::__1::locale"* nonnull align 8 dereferenceable(8) %1) unnamed_addr #0 comdat align 2 {
  ret void
}

; Function Attrs: nounwind uwtable
define weak_odr %"class.std::__1::basic_streambuf.4"* @_ZNSt3__115basic_streambufIwNS_11char_traitsIwEEE6setbufEPwl(%"class.std::__1::basic_streambuf.4"* %0, i32* %1, i64 %2) unnamed_addr #0 comdat align 2 {
  ret %"class.std::__1::basic_streambuf.4"* %0
}

; Function Attrs: uwtable
define weak_odr { i64, i64 } @_ZNSt3__115basic_streambufIwNS_11char_traitsIwEEE7seekoffExNS_8ios_base7seekdirEj(%"class.std::__1::basic_streambuf.4"* %0, i64 %1, i32 %2, i32 %3) unnamed_addr #3 comdat align 2 {
  ret { i64, i64 } { i64 0, i64 -1 }
}

; Function Attrs: uwtable
define weak_odr { i64, i64 } @_ZNSt3__115basic_streambufIwNS_11char_traitsIwEEE7seekposENS_4fposI11__mbstate_tEEj(%"class.std::__1::basic_streambuf.4"* %0, i64 %1, i64 %2, i32 %3) unnamed_addr #3 comdat align 2 {
  ret { i64, i64 } { i64 0, i64 -1 }
}

; Function Attrs: nounwind uwtable
define weak_odr i32 @_ZNSt3__115basic_streambufIwNS_11char_traitsIwEEE4syncEv(%"class.std::__1::basic_streambuf.4"* %0) unnamed_addr #0 comdat align 2 {
  ret i32 0
}

; Function Attrs: nounwind uwtable
define weak_odr i64 @_ZNSt3__115basic_streambufIwNS_11char_traitsIwEEE9showmanycEv(%"class.std::__1::basic_streambuf.4"* %0) unnamed_addr #0 comdat align 2 {
  ret i64 0
}

; Function Attrs: uwtable
define weak_odr i64 @_ZNSt3__115basic_streambufIwNS_11char_traitsIwEEE6xsgetnEPwl(%"class.std::__1::basic_streambuf.4"* %0, i32* %1, i64 %2) unnamed_addr #3 comdat align 2 {
  %4 = bitcast %"class.std::__1::basic_streambuf.4"* %0 to i32 (%"class.std::__1::basic_streambuf.4"*)***
  %5 = icmp sgt i64 %2, 0
  br i1 %5, label %6, label %48

6:                                                ; preds = %3
  %7 = getelementptr inbounds %"class.std::__1::basic_streambuf.4", %"class.std::__1::basic_streambuf.4"* %0, i64 0, i32 3
  %8 = getelementptr inbounds %"class.std::__1::basic_streambuf.4", %"class.std::__1::basic_streambuf.4"* %0, i64 0, i32 4
  br label %9

9:                                                ; preds = %6, %43
  %10 = phi i32* [ %1, %6 ], [ %45, %43 ]
  %11 = phi i64 [ 0, %6 ], [ %46, %43 ]
  %12 = load i32*, i32** %7, align 8, !tbaa !29
  %13 = load i32*, i32** %8, align 8, !tbaa !31
  %14 = icmp ult i32* %12, %13
  br i1 %14, label %15, label %35

15:                                               ; preds = %9
  %16 = ptrtoint i32* %12 to i64
  %17 = ptrtoint i32* %13 to i64
  %18 = sub i64 %17, %16
  %19 = ashr exact i64 %18, 2
  %20 = sub nsw i64 %2, %11
  %21 = icmp slt i64 %20, %19
  %22 = select i1 %21, i64 %20, i64 %19
  %23 = icmp slt i64 %22, 2147483647
  %24 = select i1 %23, i64 %22, i64 2147483647
  %25 = icmp eq i64 %24, 0
  br i1 %25, label %29, label %26

26:                                               ; preds = %15
  %27 = tail call i32* @wmemcpy(i32* %10, i32* %12, i64 %24) #14
  %28 = load i32*, i32** %7, align 8, !tbaa !29
  br label %29

29:                                               ; preds = %15, %26
  %30 = phi i32* [ %12, %15 ], [ %28, %26 ]
  %31 = getelementptr inbounds i32, i32* %10, i64 %24
  %32 = shl i64 %24, 32
  %33 = ashr exact i64 %32, 32
  %34 = getelementptr inbounds i32, i32* %30, i64 %33
  store i32* %34, i32** %7, align 8, !tbaa !29
  br label %43

35:                                               ; preds = %9
  %36 = load i32 (%"class.std::__1::basic_streambuf.4"*)**, i32 (%"class.std::__1::basic_streambuf.4"*)*** %4, align 8, !tbaa !17
  %37 = getelementptr inbounds i32 (%"class.std::__1::basic_streambuf.4"*)*, i32 (%"class.std::__1::basic_streambuf.4"*)** %36, i64 10
  %38 = load i32 (%"class.std::__1::basic_streambuf.4"*)*, i32 (%"class.std::__1::basic_streambuf.4"*)** %37, align 8
  %39 = tail call i32 %38(%"class.std::__1::basic_streambuf.4"* nonnull %0)
  %40 = icmp eq i32 %39, -1
  br i1 %40, label %48, label %41

41:                                               ; preds = %35
  store i32 %39, i32* %10, align 4, !tbaa !32
  %42 = getelementptr inbounds i32, i32* %10, i64 1
  br label %43

43:                                               ; preds = %41, %29
  %44 = phi i64 [ %24, %29 ], [ 1, %41 ]
  %45 = phi i32* [ %31, %29 ], [ %42, %41 ]
  %46 = add nsw i64 %44, %11
  %47 = icmp slt i64 %46, %2
  br i1 %47, label %9, label %48

48:                                               ; preds = %43, %35, %3
  %49 = phi i64 [ 0, %3 ], [ %11, %35 ], [ %46, %43 ]
  ret i64 %49
}

; Function Attrs: nounwind uwtable
define weak_odr i32 @_ZNSt3__115basic_streambufIwNS_11char_traitsIwEEE9underflowEv(%"class.std::__1::basic_streambuf.4"* %0) unnamed_addr #0 comdat align 2 {
  ret i32 -1
}

; Function Attrs: uwtable
define weak_odr i32 @_ZNSt3__115basic_streambufIwNS_11char_traitsIwEEE5uflowEv(%"class.std::__1::basic_streambuf.4"* %0) unnamed_addr #3 comdat align 2 {
  %2 = bitcast %"class.std::__1::basic_streambuf.4"* %0 to i32 (%"class.std::__1::basic_streambuf.4"*)***
  %3 = load i32 (%"class.std::__1::basic_streambuf.4"*)**, i32 (%"class.std::__1::basic_streambuf.4"*)*** %2, align 8, !tbaa !17
  %4 = getelementptr inbounds i32 (%"class.std::__1::basic_streambuf.4"*)*, i32 (%"class.std::__1::basic_streambuf.4"*)** %3, i64 9
  %5 = load i32 (%"class.std::__1::basic_streambuf.4"*)*, i32 (%"class.std::__1::basic_streambuf.4"*)** %4, align 8
  %6 = tail call i32 %5(%"class.std::__1::basic_streambuf.4"* %0)
  %7 = icmp eq i32 %6, -1
  br i1 %7, label %13, label %8

8:                                                ; preds = %1
  %9 = getelementptr inbounds %"class.std::__1::basic_streambuf.4", %"class.std::__1::basic_streambuf.4"* %0, i64 0, i32 3
  %10 = load i32*, i32** %9, align 8, !tbaa !29
  %11 = getelementptr inbounds i32, i32* %10, i64 1
  store i32* %11, i32** %9, align 8, !tbaa !29
  %12 = load i32, i32* %10, align 4, !tbaa !32
  br label %13

13:                                               ; preds = %1, %8
  %14 = phi i32 [ %12, %8 ], [ -1, %1 ]
  ret i32 %14
}

; Function Attrs: nounwind uwtable
define weak_odr i32 @_ZNSt3__115basic_streambufIwNS_11char_traitsIwEEE9pbackfailEj(%"class.std::__1::basic_streambuf.4"* %0, i32 %1) unnamed_addr #0 comdat align 2 {
  ret i32 -1
}

; Function Attrs: uwtable
define weak_odr i64 @_ZNSt3__115basic_streambufIwNS_11char_traitsIwEEE6xsputnEPKwl(%"class.std::__1::basic_streambuf.4"* %0, i32* %1, i64 %2) unnamed_addr #3 comdat align 2 {
  %4 = icmp sgt i64 %2, 0
  br i1 %4, label %5, label %46

5:                                                ; preds = %3
  %6 = getelementptr inbounds %"class.std::__1::basic_streambuf.4", %"class.std::__1::basic_streambuf.4"* %0, i64 0, i32 6
  %7 = getelementptr inbounds %"class.std::__1::basic_streambuf.4", %"class.std::__1::basic_streambuf.4"* %0, i64 0, i32 7
  %8 = bitcast %"class.std::__1::basic_streambuf.4"* %0 to i32 (%"class.std::__1::basic_streambuf.4"*, i32)***
  br label %9

9:                                                ; preds = %5, %42
  %10 = phi i32* [ %1, %5 ], [ %44, %42 ]
  %11 = phi i64 [ 0, %5 ], [ %43, %42 ]
  %12 = load i32*, i32** %6, align 8, !tbaa !35
  %13 = load i32*, i32** %7, align 8, !tbaa !36
  %14 = icmp ult i32* %12, %13
  br i1 %14, label %25, label %15

15:                                               ; preds = %9
  %16 = load i32, i32* %10, align 4, !tbaa !32
  %17 = load i32 (%"class.std::__1::basic_streambuf.4"*, i32)**, i32 (%"class.std::__1::basic_streambuf.4"*, i32)*** %8, align 8, !tbaa !17
  %18 = getelementptr inbounds i32 (%"class.std::__1::basic_streambuf.4"*, i32)*, i32 (%"class.std::__1::basic_streambuf.4"*, i32)** %17, i64 13
  %19 = load i32 (%"class.std::__1::basic_streambuf.4"*, i32)*, i32 (%"class.std::__1::basic_streambuf.4"*, i32)** %18, align 8
  %20 = tail call i32 %19(%"class.std::__1::basic_streambuf.4"* nonnull %0, i32 %16)
  %21 = icmp eq i32 %20, -1
  br i1 %21, label %46, label %22

22:                                               ; preds = %15
  %23 = getelementptr inbounds i32, i32* %10, i64 1
  %24 = add nsw i64 %11, 1
  br label %42

25:                                               ; preds = %9
  %26 = ptrtoint i32* %12 to i64
  %27 = ptrtoint i32* %13 to i64
  %28 = sub i64 %27, %26
  %29 = ashr exact i64 %28, 2
  %30 = sub nsw i64 %2, %11
  %31 = icmp slt i64 %30, %29
  %32 = select i1 %31, i64 %30, i64 %29
  %33 = icmp eq i64 %32, 0
  br i1 %33, label %37, label %34

34:                                               ; preds = %25
  %35 = tail call i32* @wmemcpy(i32* %12, i32* %10, i64 %32) #14
  %36 = load i32*, i32** %6, align 8, !tbaa !35
  br label %37

37:                                               ; preds = %25, %34
  %38 = phi i32* [ %12, %25 ], [ %36, %34 ]
  %39 = getelementptr inbounds i32, i32* %38, i64 %32
  store i32* %39, i32** %6, align 8, !tbaa !35
  %40 = getelementptr inbounds i32, i32* %10, i64 %32
  %41 = add nsw i64 %32, %11
  br label %42

42:                                               ; preds = %37, %22
  %43 = phi i64 [ %24, %22 ], [ %41, %37 ]
  %44 = phi i32* [ %23, %22 ], [ %40, %37 ]
  %45 = icmp slt i64 %43, %2
  br i1 %45, label %9, label %46

46:                                               ; preds = %42, %15, %3
  %47 = phi i64 [ 0, %3 ], [ %11, %15 ], [ %43, %42 ]
  ret i64 %47
}

; Function Attrs: nounwind uwtable
define weak_odr i32 @_ZNSt3__115basic_streambufIwNS_11char_traitsIwEEE8overflowEj(%"class.std::__1::basic_streambuf.4"* %0, i32 %1) unnamed_addr #0 comdat align 2 {
  ret i32 -1
}

; Function Attrs: inlinehint uwtable
define weak_odr void @_ZNSt3__113basic_istreamIcNS_11char_traitsIcEEEC2EPNS_15basic_streambufIcS2_EE(%"class.std::__1::basic_istream"* %0, i8** %1, %"class.std::__1::basic_streambuf"* %2) unnamed_addr #5 comdat align 2 {
  %4 = bitcast i8** %1 to i64*
  %5 = load i64, i64* %4, align 8
  %6 = bitcast %"class.std::__1::basic_istream"* %0 to i64*
  store i64 %5, i64* %6, align 8, !tbaa !17
  %7 = getelementptr inbounds i8*, i8** %1, i64 1
  %8 = bitcast i8** %7 to i64*
  %9 = load i64, i64* %8, align 8
  %10 = bitcast %"class.std::__1::basic_istream"* %0 to i8**
  %11 = inttoptr i64 %5 to i8*
  %12 = getelementptr i8, i8* %11, i64 -24
  %13 = bitcast i8* %12 to i64*
  %14 = load i64, i64* %13, align 8
  %15 = bitcast %"class.std::__1::basic_istream"* %0 to i8*
  %16 = getelementptr inbounds i8, i8* %15, i64 %14
  %17 = bitcast i8* %16 to i64*
  store i64 %9, i64* %17, align 8, !tbaa !17
  %18 = getelementptr inbounds %"class.std::__1::basic_istream", %"class.std::__1::basic_istream"* %0, i64 0, i32 1
  store i64 0, i64* %18, align 8, !tbaa !38
  %19 = load i8*, i8** %10, align 8, !tbaa !17
  %20 = getelementptr i8, i8* %19, i64 -24
  %21 = bitcast i8* %20 to i64*
  %22 = load i64, i64* %21, align 8
  %23 = getelementptr inbounds i8, i8* %15, i64 %22
  %24 = bitcast i8* %23 to %"class.std::__1::ios_base"*
  %25 = bitcast %"class.std::__1::basic_streambuf"* %2 to i8*
  tail call void @_ZNSt3__18ios_base4initEPv(%"class.std::__1::ios_base"* %24, i8* %25)
  %26 = getelementptr inbounds i8, i8* %23, i64 136
  %27 = bitcast i8* %26 to %"class.std::__1::basic_ostream"**
  store %"class.std::__1::basic_ostream"* null, %"class.std::__1::basic_ostream"** %27, align 8, !tbaa !3
  %28 = getelementptr inbounds i8, i8* %23, i64 144
  %29 = bitcast i8* %28 to i32*
  store i32 -1, i32* %29, align 8, !tbaa !9
  ret void
}

; Function Attrs: inlinehint uwtable
define weak_odr void @_ZNSt3__113basic_istreamIcNS_11char_traitsIcEEEC1EPNS_15basic_streambufIcS2_EE(%"class.std::__1::basic_istream"* %0, %"class.std::__1::basic_streambuf"* %1) unnamed_addr #5 comdat align 2 personality i8* bitcast (i32 (...)* @__gxx_personality_v0 to i8*) {
  %3 = getelementptr inbounds %"class.std::__1::basic_istream", %"class.std::__1::basic_istream"* %0, i64 0, i32 2
  %4 = getelementptr %"class.std::__1::basic_ios.base", %"class.std::__1::basic_ios.base"* %3, i64 0, i32 0, i32 0
  %5 = getelementptr %"class.std::__1::basic_istream", %"class.std::__1::basic_istream"* %0, i64 0, i32 0
  store i32 (...)** bitcast (i8** getelementptr inbounds ({ [5 x i8*], [5 x i8*] }, { [5 x i8*], [5 x i8*] }* @_ZTVNSt3__113basic_istreamIcNS_11char_traitsIcEEEE, i64 0, inrange i32 0, i64 3) to i32 (...)**), i32 (...)*** %5, align 8, !tbaa !17
  store i32 (...)** bitcast (i8** getelementptr inbounds ({ [5 x i8*], [5 x i8*] }, { [5 x i8*], [5 x i8*] }* @_ZTVNSt3__113basic_istreamIcNS_11char_traitsIcEEEE, i64 0, inrange i32 1, i64 3) to i32 (...)**), i32 (...)*** %4, align 8, !tbaa !17
  %6 = getelementptr inbounds %"class.std::__1::basic_istream", %"class.std::__1::basic_istream"* %0, i64 0, i32 1
  store i64 0, i64* %6, align 8, !tbaa !38
  %7 = getelementptr %"class.std::__1::basic_ios.base", %"class.std::__1::basic_ios.base"* %3, i64 0, i32 0
  %8 = bitcast %"class.std::__1::basic_streambuf"* %1 to i8*
  invoke void @_ZNSt3__18ios_base4initEPv(%"class.std::__1::ios_base"* nonnull %7, i8* %8)
          to label %9 unwind label %12

9:                                                ; preds = %2
  %10 = getelementptr inbounds %"class.std::__1::basic_istream", %"class.std::__1::basic_istream"* %0, i64 0, i32 2, i32 1
  store %"class.std::__1::basic_ostream"* null, %"class.std::__1::basic_ostream"** %10, align 8, !tbaa !3
  %11 = getelementptr inbounds %"class.std::__1::basic_istream", %"class.std::__1::basic_istream"* %0, i64 0, i32 2, i32 2
  store i32 -1, i32* %11, align 8, !tbaa !9
  ret void

12:                                               ; preds = %2
  %13 = landingpad { i8*, i32 }
          cleanup
  tail call void @_ZNSt3__18ios_baseD2Ev(%"class.std::__1::ios_base"* nonnull %7) #14
  resume { i8*, i32 } %13
}

declare i32 @__gxx_personality_v0(...)

; Function Attrs: nounwind uwtable
define weak_odr void @_ZNSt3__113basic_istreamIcNS_11char_traitsIcEEED2Ev(%"class.std::__1::basic_istream"* %0, i8** %1) unnamed_addr #0 comdat align 2 {
  ret void
}

; Function Attrs: nounwind uwtable
define weak_odr void @_ZNSt3__113basic_istreamIcNS_11char_traitsIcEEED1Ev(%"class.std::__1::basic_istream"* %0) unnamed_addr #0 comdat align 2 {
  %2 = getelementptr inbounds %"class.std::__1::basic_istream", %"class.std::__1::basic_istream"* %0, i64 0, i32 2, i32 0
  tail call void @_ZNSt3__18ios_baseD2Ev(%"class.std::__1::ios_base"* nonnull %2) #14
  ret void
}

; Function Attrs: nounwind uwtable
define weak_odr void @_ZTv0_n24_NSt3__113basic_istreamIcNS_11char_traitsIcEEED1Ev(%"class.std::__1::basic_istream"* %0) unnamed_addr #0 comdat align 2 {
  %2 = bitcast %"class.std::__1::basic_istream"* %0 to i8*
  %3 = bitcast %"class.std::__1::basic_istream"* %0 to i8**
  %4 = load i8*, i8** %3, align 8
  %5 = getelementptr inbounds i8, i8* %4, i64 -24
  %6 = bitcast i8* %5 to i64*
  %7 = load i64, i64* %6, align 8
  %8 = getelementptr inbounds i8, i8* %2, i64 %7
  %9 = getelementptr inbounds i8, i8* %8, i64 16
  %10 = bitcast i8* %9 to %"class.std::__1::ios_base"*
  tail call void @_ZNSt3__18ios_baseD2Ev(%"class.std::__1::ios_base"* nonnull %10) #14
  ret void
}

; Function Attrs: nounwind uwtable
define weak_odr void @_ZNSt3__113basic_istreamIcNS_11char_traitsIcEEED0Ev(%"class.std::__1::basic_istream"* %0) unnamed_addr #0 comdat align 2 {
  %2 = getelementptr inbounds %"class.std::__1::basic_istream", %"class.std::__1::basic_istream"* %0, i64 0, i32 2, i32 0
  tail call void @_ZNSt3__18ios_baseD2Ev(%"class.std::__1::ios_base"* nonnull %2) #14
  %3 = bitcast %"class.std::__1::basic_istream"* %0 to i8*
  tail call void @_ZdlPv(i8* %3) #15
  ret void
}

; Function Attrs: nounwind uwtable
define weak_odr void @_ZTv0_n24_NSt3__113basic_istreamIcNS_11char_traitsIcEEED0Ev(%"class.std::__1::basic_istream"* %0) unnamed_addr #0 comdat align 2 {
  %2 = bitcast %"class.std::__1::basic_istream"* %0 to i8*
  %3 = bitcast %"class.std::__1::basic_istream"* %0 to i8**
  %4 = load i8*, i8** %3, align 8
  %5 = getelementptr inbounds i8, i8* %4, i64 -24
  %6 = bitcast i8* %5 to i64*
  %7 = load i64, i64* %6, align 8
  %8 = getelementptr inbounds i8, i8* %2, i64 %7
  %9 = getelementptr inbounds i8, i8* %8, i64 16
  %10 = bitcast i8* %9 to %"class.std::__1::ios_base"*
  tail call void @_ZNSt3__18ios_baseD2Ev(%"class.std::__1::ios_base"* nonnull %10) #14
  tail call void @_ZdlPv(i8* %8) #15
  ret void
}

; Function Attrs: inlinehint nounwind uwtable
define weak_odr void @_ZNSt3__113basic_istreamIcNS_11char_traitsIcEEE4swapERS3_(%"class.std::__1::basic_istream"* %0, %"class.std::__1::basic_istream"* nonnull align 8 dereferenceable(16) %1) local_unnamed_addr #6 comdat align 2 {
  %3 = getelementptr inbounds %"class.std::__1::basic_istream", %"class.std::__1::basic_istream"* %0, i64 0, i32 1
  %4 = getelementptr inbounds %"class.std::__1::basic_istream", %"class.std::__1::basic_istream"* %1, i64 0, i32 1
  %5 = load i64, i64* %3, align 8, !tbaa !40
  %6 = load i64, i64* %4, align 8, !tbaa !40
  store i64 %6, i64* %3, align 8, !tbaa !40
  store i64 %5, i64* %4, align 8, !tbaa !40
  %7 = bitcast %"class.std::__1::basic_istream"* %0 to i8**
  %8 = load i8*, i8** %7, align 8, !tbaa !17
  %9 = getelementptr i8, i8* %8, i64 -24
  %10 = bitcast i8* %9 to i64*
  %11 = load i64, i64* %10, align 8
  %12 = bitcast %"class.std::__1::basic_istream"* %0 to i8*
  %13 = getelementptr inbounds i8, i8* %12, i64 %11
  %14 = bitcast %"class.std::__1::basic_istream"* %1 to i8**
  %15 = load i8*, i8** %14, align 8, !tbaa !17
  %16 = getelementptr i8, i8* %15, i64 -24
  %17 = bitcast i8* %16 to i64*
  %18 = load i64, i64* %17, align 8
  %19 = bitcast %"class.std::__1::basic_istream"* %1 to i8*
  %20 = getelementptr inbounds i8, i8* %19, i64 %18
  %21 = bitcast i8* %13 to %"class.std::__1::ios_base"*
  %22 = bitcast i8* %20 to %"class.std::__1::ios_base"*
  tail call void @_ZNSt3__18ios_base4swapERS0_(%"class.std::__1::ios_base"* %21, %"class.std::__1::ios_base"* nonnull align 8 dereferenceable(136) %22) #14
  %23 = getelementptr inbounds i8, i8* %13, i64 136
  %24 = getelementptr inbounds i8, i8* %20, i64 136
  %25 = bitcast i8* %23 to i64*
  %26 = load i64, i64* %25, align 8, !tbaa !27
  %27 = bitcast i8* %24 to i64*
  %28 = load i64, i64* %27, align 8, !tbaa !27
  store i64 %28, i64* %25, align 8, !tbaa !27
  store i64 %26, i64* %27, align 8, !tbaa !27
  %29 = getelementptr inbounds i8, i8* %13, i64 144
  %30 = bitcast i8* %29 to i32*
  %31 = getelementptr inbounds i8, i8* %20, i64 144
  %32 = bitcast i8* %31 to i32*
  %33 = load i32, i32* %30, align 4, !tbaa !41
  %34 = load i32, i32* %32, align 8, !tbaa !41
  store i32 %34, i32* %30, align 4, !tbaa !41
  store i32 %33, i32* %32, align 8, !tbaa !41
  ret void
}

; Function Attrs: uwtable
define weak_odr void @_ZNSt3__113basic_istreamIcNS_11char_traitsIcEEE6sentryC2ERS3_b(%"class.std::__1::basic_istream<char, std::__1::char_traits<char>>::sentry"* %0, %"class.std::__1::basic_istream"* nonnull align 8 dereferenceable(16) %1, i1 zeroext %2) unnamed_addr #3 comdat($_ZNSt3__113basic_istreamIcNS_11char_traitsIcEEE6sentryC5ERS3_b) align 2 personality i8* bitcast (i32 (...)* @__gxx_personality_v0 to i8*) {
  %4 = alloca %"class.std::__1::locale", align 8
  %5 = getelementptr inbounds %"class.std::__1::basic_istream<char, std::__1::char_traits<char>>::sentry", %"class.std::__1::basic_istream<char, std::__1::char_traits<char>>::sentry"* %0, i64 0, i32 0
  store i8 0, i8* %5, align 1, !tbaa !42
  %6 = bitcast %"class.std::__1::basic_istream"* %1 to i8**
  %7 = load i8*, i8** %6, align 8, !tbaa !17
  %8 = getelementptr i8, i8* %7, i64 -24
  %9 = bitcast i8* %8 to i64*
  %10 = load i64, i64* %9, align 8
  %11 = bitcast %"class.std::__1::basic_istream"* %1 to i8*
  %12 = getelementptr inbounds i8, i8* %11, i64 %10
  %13 = getelementptr inbounds i8, i8* %12, i64 32
  %14 = bitcast i8* %13 to i32*
  %15 = load i32, i32* %14, align 8, !tbaa !13
  %16 = icmp eq i32 %15, 0
  br i1 %16, label %17, label %150

17:                                               ; preds = %3
  %18 = getelementptr inbounds i8, i8* %12, i64 136
  %19 = bitcast i8* %18 to %"class.std::__1::basic_ostream"**
  %20 = load %"class.std::__1::basic_ostream"*, %"class.std::__1::basic_ostream"** %19, align 8, !tbaa !3
  %21 = icmp eq %"class.std::__1::basic_ostream"* %20, null
  br i1 %21, label %24, label %22

22:                                               ; preds = %17
  %23 = tail call nonnull align 8 dereferenceable(8) %"class.std::__1::basic_ostream"* @_ZNSt3__113basic_ostreamIcNS_11char_traitsIcEEE5flushEv(%"class.std::__1::basic_ostream"* nonnull %20)
  br label %24

24:                                               ; preds = %17, %22
  br i1 %2, label %139, label %25

25:                                               ; preds = %24
  %26 = load i8*, i8** %6, align 8, !tbaa !17
  %27 = getelementptr i8, i8* %26, i64 -24
  %28 = bitcast i8* %27 to i64*
  %29 = load i64, i64* %28, align 8
  %30 = getelementptr inbounds i8, i8* %11, i64 %29
  %31 = getelementptr inbounds i8, i8* %30, i64 8
  %32 = bitcast i8* %31 to i32*
  %33 = load i32, i32* %32, align 8, !tbaa !45
  %34 = and i32 %33, 4096
  %35 = icmp eq i32 %34, 0
  br i1 %35, label %139, label %36

36:                                               ; preds = %25
  %37 = bitcast %"class.std::__1::locale"* %4 to i8*
  call void @llvm.lifetime.start.p0i8(i64 8, i8* nonnull %37) #14
  %38 = bitcast i8* %30 to %"class.std::__1::ios_base"*
  call void @_ZNKSt3__18ios_base6getlocEv(%"class.std::__1::locale"* nonnull sret align 8 %4, %"class.std::__1::ios_base"* nonnull %38)
  %39 = invoke %"class.std::__1::locale::facet"* @_ZNKSt3__16locale9use_facetERNS0_2idE(%"class.std::__1::locale"* nonnull %4, %"class.std::__1::locale::id"* nonnull align 8 dereferenceable(12) @_ZNSt3__15ctypeIcE2idE)
          to label %40 unwind label %95

40:                                               ; preds = %36
  call void @_ZNSt3__16localeD1Ev(%"class.std::__1::locale"* nonnull %4) #14
  call void @llvm.lifetime.end.p0i8(i64 8, i8* nonnull %37) #14
  %41 = load i8*, i8** %6, align 8, !tbaa !17
  %42 = getelementptr i8, i8* %41, i64 -24
  %43 = bitcast i8* %42 to i64*
  %44 = load i64, i64* %43, align 8
  %45 = getelementptr inbounds i8, i8* %11, i64 %44
  %46 = getelementptr inbounds i8, i8* %45, i64 40
  %47 = bitcast i8* %46 to i64*
  %48 = load i64, i64* %47, align 8, !tbaa !46
  %49 = getelementptr inbounds %"class.std::__1::locale::facet", %"class.std::__1::locale::facet"* %39, i64 1
  %50 = bitcast %"class.std::__1::locale::facet"* %49 to i16**
  %51 = inttoptr i64 %48 to %"class.std::__1::basic_streambuf"*
  %52 = icmp eq i64 %48, 0
  %53 = getelementptr inbounds %"class.std::__1::basic_streambuf", %"class.std::__1::basic_streambuf"* %51, i64 0, i32 3
  %54 = getelementptr inbounds %"class.std::__1::basic_streambuf", %"class.std::__1::basic_streambuf"* %51, i64 0, i32 4
  %55 = inttoptr i64 %48 to i32 (%"class.std::__1::basic_streambuf"*)***
  %56 = inttoptr i64 %48 to %"class.std::__1::basic_streambuf"*
  %57 = getelementptr inbounds %"class.std::__1::basic_streambuf", %"class.std::__1::basic_streambuf"* %56, i64 0, i32 3
  %58 = getelementptr inbounds %"class.std::__1::basic_streambuf", %"class.std::__1::basic_streambuf"* %56, i64 0, i32 4
  %59 = inttoptr i64 %48 to i32 (%"class.std::__1::basic_streambuf"*)***
  %60 = inttoptr i64 %48 to i32 (%"class.std::__1::basic_streambuf"*)***
  br i1 %52, label %111, label %61

61:                                               ; preds = %40, %108
  %62 = load i8*, i8** %53, align 8, !tbaa !19
  %63 = load i8*, i8** %54, align 8, !tbaa !22
  %64 = icmp eq i8* %62, %63
  br i1 %64, label %65, label %71

65:                                               ; preds = %61
  %66 = load i32 (%"class.std::__1::basic_streambuf"*)**, i32 (%"class.std::__1::basic_streambuf"*)*** %55, align 8, !tbaa !17
  %67 = getelementptr inbounds i32 (%"class.std::__1::basic_streambuf"*)*, i32 (%"class.std::__1::basic_streambuf"*)** %66, i64 9
  %68 = load i32 (%"class.std::__1::basic_streambuf"*)*, i32 (%"class.std::__1::basic_streambuf"*)** %67, align 8
  %69 = call i32 %68(%"class.std::__1::basic_streambuf"* nonnull %51)
  %70 = icmp eq i32 %69, -1
  br i1 %70, label %111, label %71

71:                                               ; preds = %61, %65
  %72 = load i8*, i8** %57, align 8, !tbaa !19
  %73 = load i8*, i8** %58, align 8, !tbaa !22
  %74 = icmp eq i8* %72, %73
  br i1 %74, label %75, label %80

75:                                               ; preds = %71
  %76 = load i32 (%"class.std::__1::basic_streambuf"*)**, i32 (%"class.std::__1::basic_streambuf"*)*** %59, align 8, !tbaa !17
  %77 = getelementptr inbounds i32 (%"class.std::__1::basic_streambuf"*)*, i32 (%"class.std::__1::basic_streambuf"*)** %76, i64 9
  %78 = load i32 (%"class.std::__1::basic_streambuf"*)*, i32 (%"class.std::__1::basic_streambuf"*)** %77, align 8
  %79 = call i32 %78(%"class.std::__1::basic_streambuf"* nonnull %56)
  br label %83

80:                                               ; preds = %71
  %81 = load i8, i8* %72, align 1, !tbaa !23
  %82 = zext i8 %81 to i32
  br label %83

83:                                               ; preds = %75, %80
  %84 = phi i32 [ %79, %75 ], [ %82, %80 ]
  %85 = trunc i32 %84 to i8
  %86 = icmp sgt i8 %85, -1
  br i1 %86, label %87, label %109

87:                                               ; preds = %83
  %88 = load i16*, i16** %50, align 8, !tbaa !47
  %89 = and i32 %84, 255
  %90 = zext i32 %89 to i64
  %91 = getelementptr inbounds i16, i16* %88, i64 %90
  %92 = load i16, i16* %91, align 2, !tbaa !49
  %93 = and i16 %92, 8192
  %94 = icmp eq i16 %93, 0
  br i1 %94, label %109, label %97

95:                                               ; preds = %36
  %96 = landingpad { i8*, i32 }
          cleanup
  call void @_ZNSt3__16localeD1Ev(%"class.std::__1::locale"* nonnull %4) #14
  call void @llvm.lifetime.end.p0i8(i64 8, i8* nonnull %37) #14
  resume { i8*, i32 } %96

97:                                               ; preds = %87
  %98 = load i8*, i8** %57, align 8, !tbaa !19
  %99 = load i8*, i8** %58, align 8, !tbaa !22
  %100 = icmp eq i8* %98, %99
  br i1 %100, label %101, label %106

101:                                              ; preds = %97
  %102 = load i32 (%"class.std::__1::basic_streambuf"*)**, i32 (%"class.std::__1::basic_streambuf"*)*** %60, align 8, !tbaa !17
  %103 = getelementptr inbounds i32 (%"class.std::__1::basic_streambuf"*)*, i32 (%"class.std::__1::basic_streambuf"*)** %102, i64 10
  %104 = load i32 (%"class.std::__1::basic_streambuf"*)*, i32 (%"class.std::__1::basic_streambuf"*)** %103, align 8
  %105 = call i32 %104(%"class.std::__1::basic_streambuf"* nonnull %56)
  br label %108

106:                                              ; preds = %97
  %107 = getelementptr inbounds i8, i8* %98, i64 1
  store i8* %107, i8** %57, align 8, !tbaa !19
  br label %108

108:                                              ; preds = %101, %106
  br i1 %52, label %111, label %61

109:                                              ; preds = %83, %87
  %110 = inttoptr i64 %48 to %"class.std::__1::basic_streambuf"*
  br label %111

111:                                              ; preds = %65, %108, %40, %109
  %112 = phi i64 [ %48, %109 ], [ 0, %40 ], [ 0, %108 ], [ 0, %65 ]
  %113 = phi %"class.std::__1::basic_streambuf"* [ %110, %109 ], [ null, %40 ], [ null, %108 ], [ null, %65 ]
  %114 = icmp eq i64 %112, 0
  br i1 %114, label %128, label %115

115:                                              ; preds = %111
  %116 = getelementptr inbounds %"class.std::__1::basic_streambuf", %"class.std::__1::basic_streambuf"* %113, i64 0, i32 3
  %117 = load i8*, i8** %116, align 8, !tbaa !19
  %118 = getelementptr inbounds %"class.std::__1::basic_streambuf", %"class.std::__1::basic_streambuf"* %113, i64 0, i32 4
  %119 = load i8*, i8** %118, align 8, !tbaa !22
  %120 = icmp eq i8* %117, %119
  br i1 %120, label %121, label %139

121:                                              ; preds = %115
  %122 = inttoptr i64 %112 to i32 (%"class.std::__1::basic_streambuf"*)***
  %123 = load i32 (%"class.std::__1::basic_streambuf"*)**, i32 (%"class.std::__1::basic_streambuf"*)*** %122, align 8, !tbaa !17
  %124 = getelementptr inbounds i32 (%"class.std::__1::basic_streambuf"*)*, i32 (%"class.std::__1::basic_streambuf"*)** %123, i64 9
  %125 = load i32 (%"class.std::__1::basic_streambuf"*)*, i32 (%"class.std::__1::basic_streambuf"*)** %124, align 8
  %126 = call i32 %125(%"class.std::__1::basic_streambuf"* nonnull %113)
  %127 = icmp eq i32 %126, -1
  br i1 %127, label %128, label %139

128:                                              ; preds = %121, %111
  %129 = load i8*, i8** %6, align 8, !tbaa !17
  %130 = getelementptr i8, i8* %129, i64 -24
  %131 = bitcast i8* %130 to i64*
  %132 = load i64, i64* %131, align 8
  %133 = getelementptr inbounds i8, i8* %11, i64 %132
  %134 = bitcast i8* %133 to %"class.std::__1::ios_base"*
  %135 = getelementptr inbounds i8, i8* %133, i64 32
  %136 = bitcast i8* %135 to i32*
  %137 = load i32, i32* %136, align 8, !tbaa !13
  %138 = or i32 %137, 6
  call void @_ZNSt3__18ios_base5clearEj(%"class.std::__1::ios_base"* nonnull %134, i32 %138)
  br label %139

139:                                              ; preds = %115, %121, %128, %25, %24
  %140 = load i8*, i8** %6, align 8, !tbaa !17
  %141 = getelementptr i8, i8* %140, i64 -24
  %142 = bitcast i8* %141 to i64*
  %143 = load i64, i64* %142, align 8
  %144 = getelementptr inbounds i8, i8* %11, i64 %143
  %145 = getelementptr inbounds i8, i8* %144, i64 32
  %146 = bitcast i8* %145 to i32*
  %147 = load i32, i32* %146, align 8, !tbaa !13
  %148 = icmp eq i32 %147, 0
  %149 = zext i1 %148 to i8
  store i8 %149, i8* %5, align 1, !tbaa !42
  br label %153

150:                                              ; preds = %3
  %151 = bitcast i8* %12 to %"class.std::__1::ios_base"*
  %152 = or i32 %15, 4
  tail call void @_ZNSt3__18ios_base5clearEj(%"class.std::__1::ios_base"* nonnull %151, i32 %152)
  br label %153

153:                                              ; preds = %150, %139
  ret void
}

; Function Attrs: uwtable
define weak_odr nonnull align 8 dereferenceable(8) %"class.std::__1::basic_ostream"* @_ZNSt3__113basic_ostreamIcNS_11char_traitsIcEEE5flushEv(%"class.std::__1::basic_ostream"* %0) local_unnamed_addr #3 comdat align 2 personality i8* bitcast (i32 (...)* @__gxx_personality_v0 to i8*) {
  %2 = alloca %"class.std::__1::basic_ostream<char, std::__1::char_traits<char>>::sentry", align 8
  %3 = bitcast %"class.std::__1::basic_ostream"* %0 to i8**
  %4 = load i8*, i8** %3, align 8, !tbaa !17
  %5 = getelementptr i8, i8* %4, i64 -24
  %6 = bitcast i8* %5 to i64*
  %7 = load i64, i64* %6, align 8
  %8 = bitcast %"class.std::__1::basic_ostream"* %0 to i8*
  %9 = getelementptr inbounds i8, i8* %8, i64 %7
  %10 = getelementptr inbounds i8, i8* %9, i64 40
  %11 = bitcast i8* %10 to %"class.std::__1::basic_streambuf"**
  %12 = load %"class.std::__1::basic_streambuf"*, %"class.std::__1::basic_streambuf"** %11, align 8, !tbaa !46
  %13 = icmp eq %"class.std::__1::basic_streambuf"* %12, null
  br i1 %13, label %76, label %14

14:                                               ; preds = %1
  %15 = getelementptr inbounds %"class.std::__1::basic_ostream<char, std::__1::char_traits<char>>::sentry", %"class.std::__1::basic_ostream<char, std::__1::char_traits<char>>::sentry"* %2, i64 0, i32 0
  call void @llvm.lifetime.start.p0i8(i64 16, i8* nonnull %15) #14
  store i8 0, i8* %15, align 8, !tbaa !51
  %16 = getelementptr inbounds %"class.std::__1::basic_ostream<char, std::__1::char_traits<char>>::sentry", %"class.std::__1::basic_ostream<char, std::__1::char_traits<char>>::sentry"* %2, i64 0, i32 1
  store %"class.std::__1::basic_ostream"* %0, %"class.std::__1::basic_ostream"** %16, align 8, !tbaa !27
  %17 = load i64, i64* %6, align 8
  %18 = getelementptr inbounds i8, i8* %8, i64 %17
  %19 = getelementptr inbounds i8, i8* %18, i64 32
  %20 = bitcast i8* %19 to i32*
  %21 = load i32, i32* %20, align 8, !tbaa !13
  %22 = icmp eq i32 %21, 0
  br i1 %22, label %23, label %65

23:                                               ; preds = %14
  %24 = getelementptr inbounds i8, i8* %18, i64 136
  %25 = bitcast i8* %24 to %"class.std::__1::basic_ostream"**
  %26 = load %"class.std::__1::basic_ostream"*, %"class.std::__1::basic_ostream"** %25, align 8, !tbaa !3
  %27 = icmp eq %"class.std::__1::basic_ostream"* %26, null
  br i1 %27, label %32, label %28

28:                                               ; preds = %23
  %29 = invoke nonnull align 8 dereferenceable(8) %"class.std::__1::basic_ostream"* @_ZNSt3__113basic_ostreamIcNS_11char_traitsIcEEE5flushEv(%"class.std::__1::basic_ostream"* nonnull %26)
          to label %30 unwind label %59

30:                                               ; preds = %28
  %31 = load i8*, i8** %3, align 8, !tbaa !17
  br label %32

32:                                               ; preds = %23, %30
  %33 = phi i8* [ %31, %30 ], [ %4, %23 ]
  store i8 1, i8* %15, align 8, !tbaa !51
  %34 = getelementptr i8, i8* %33, i64 -24
  %35 = bitcast i8* %34 to i64*
  %36 = load i64, i64* %35, align 8
  %37 = getelementptr inbounds i8, i8* %8, i64 %36
  %38 = getelementptr inbounds i8, i8* %37, i64 40
  %39 = bitcast i8* %38 to %"class.std::__1::basic_streambuf"**
  %40 = load %"class.std::__1::basic_streambuf"*, %"class.std::__1::basic_streambuf"** %39, align 8, !tbaa !46
  %41 = bitcast %"class.std::__1::basic_streambuf"* %40 to i32 (%"class.std::__1::basic_streambuf"*)***
  %42 = load i32 (%"class.std::__1::basic_streambuf"*)**, i32 (%"class.std::__1::basic_streambuf"*)*** %41, align 8, !tbaa !17
  %43 = getelementptr inbounds i32 (%"class.std::__1::basic_streambuf"*)*, i32 (%"class.std::__1::basic_streambuf"*)** %42, i64 6
  %44 = load i32 (%"class.std::__1::basic_streambuf"*)*, i32 (%"class.std::__1::basic_streambuf"*)** %43, align 8
  %45 = invoke i32 %44(%"class.std::__1::basic_streambuf"* %40)
          to label %46 unwind label %62

46:                                               ; preds = %32
  %47 = icmp eq i32 %45, -1
  br i1 %47, label %48, label %65

48:                                               ; preds = %46
  %49 = load i8*, i8** %3, align 8, !tbaa !17
  %50 = getelementptr i8, i8* %49, i64 -24
  %51 = bitcast i8* %50 to i64*
  %52 = load i64, i64* %51, align 8
  %53 = getelementptr inbounds i8, i8* %8, i64 %52
  %54 = bitcast i8* %53 to %"class.std::__1::ios_base"*
  %55 = getelementptr inbounds i8, i8* %53, i64 32
  %56 = bitcast i8* %55 to i32*
  %57 = load i32, i32* %56, align 8, !tbaa !13
  %58 = or i32 %57, 1
  invoke void @_ZNSt3__18ios_base5clearEj(%"class.std::__1::ios_base"* %54, i32 %58)
          to label %65 unwind label %62

59:                                               ; preds = %28
  %60 = landingpad { i8*, i32 }
          catch i8* null
  %61 = extractvalue { i8*, i32 } %60, 0
  br label %66

62:                                               ; preds = %48, %32
  %63 = landingpad { i8*, i32 }
          catch i8* null
  %64 = extractvalue { i8*, i32 } %63, 0
  call void @_ZNSt3__113basic_ostreamIcNS_11char_traitsIcEEE6sentryD2Ev(%"class.std::__1::basic_ostream<char, std::__1::char_traits<char>>::sentry"* nonnull %2) #14
  br label %66

65:                                               ; preds = %14, %48, %46
  call void @_ZNSt3__113basic_ostreamIcNS_11char_traitsIcEEE6sentryD2Ev(%"class.std::__1::basic_ostream<char, std::__1::char_traits<char>>::sentry"* nonnull %2) #14
  call void @llvm.lifetime.end.p0i8(i64 16, i8* nonnull %15) #14
  br label %76

66:                                               ; preds = %62, %59
  %67 = phi i8* [ %64, %62 ], [ %61, %59 ]
  call void @llvm.lifetime.end.p0i8(i64 16, i8* nonnull %15) #14
  %68 = call i8* @__cxa_begin_catch(i8* %67) #14
  %69 = load i8*, i8** %3, align 8, !tbaa !17
  %70 = getelementptr i8, i8* %69, i64 -24
  %71 = bitcast i8* %70 to i64*
  %72 = load i64, i64* %71, align 8
  %73 = getelementptr inbounds i8, i8* %8, i64 %72
  %74 = bitcast i8* %73 to %"class.std::__1::ios_base"*
  invoke void @_ZNSt3__18ios_base33__set_badbit_and_consider_rethrowEv(%"class.std::__1::ios_base"* %74)
          to label %75 unwind label %77

75:                                               ; preds = %66
  call void @__cxa_end_catch()
  br label %76

76:                                               ; preds = %1, %65, %75
  ret %"class.std::__1::basic_ostream"* %0

77:                                               ; preds = %66
  %78 = landingpad { i8*, i32 }
          cleanup
  invoke void @__cxa_end_catch()
          to label %79 unwind label %80

79:                                               ; preds = %77
  resume { i8*, i32 } %78

80:                                               ; preds = %77
  %81 = landingpad { i8*, i32 }
          catch i8* null
  %82 = extractvalue { i8*, i32 } %81, 0
  call void @__clang_call_terminate(i8* %82) #16
  unreachable
}

declare void @_ZNKSt3__18ios_base6getlocEv(%"class.std::__1::locale"* sret align 8, %"class.std::__1::ios_base"*) local_unnamed_addr #4

; Function Attrs: inlinehint uwtable
define weak_odr nonnull align 8 dereferenceable(16) %"class.std::__1::basic_istream"* @_ZNSt3__113basic_istreamIcNS_11char_traitsIcEEErsEPFRS3_S4_E(%"class.std::__1::basic_istream"* %0, %"class.std::__1::basic_istream"* (%"class.std::__1::basic_istream"*)* %1) local_unnamed_addr #5 comdat align 2 {
  %3 = tail call nonnull align 8 dereferenceable(16) %"class.std::__1::basic_istream"* %1(%"class.std::__1::basic_istream"* nonnull align 8 dereferenceable(16) %0)
  ret %"class.std::__1::basic_istream"* %3
}

; Function Attrs: inlinehint uwtable
define weak_odr nonnull align 8 dereferenceable(16) %"class.std::__1::basic_istream"* @_ZNSt3__113basic_istreamIcNS_11char_traitsIcEEErsEPFRNS_9basic_iosIcS2_EES6_E(%"class.std::__1::basic_istream"* %0, %"class.std::__1::basic_ios"* (%"class.std::__1::basic_ios"*)* %1) local_unnamed_addr #5 comdat align 2 {
  %3 = bitcast %"class.std::__1::basic_istream"* %0 to i8**
  %4 = load i8*, i8** %3, align 8, !tbaa !17
  %5 = getelementptr i8, i8* %4, i64 -24
  %6 = bitcast i8* %5 to i64*
  %7 = load i64, i64* %6, align 8
  %8 = bitcast %"class.std::__1::basic_istream"* %0 to i8*
  %9 = getelementptr inbounds i8, i8* %8, i64 %7
  %10 = bitcast i8* %9 to %"class.std::__1::basic_ios"*
  %11 = tail call nonnull align 8 dereferenceable(148) %"class.std::__1::basic_ios"* %1(%"class.std::__1::basic_ios"* nonnull align 8 dereferenceable(148) %10)
  ret %"class.std::__1::basic_istream"* %0
}

; Function Attrs: inlinehint uwtable
define weak_odr nonnull align 8 dereferenceable(16) %"class.std::__1::basic_istream"* @_ZNSt3__113basic_istreamIcNS_11char_traitsIcEEErsEPFRNS_8ios_baseES5_E(%"class.std::__1::basic_istream"* %0, %"class.std::__1::ios_base"* (%"class.std::__1::ios_base"*)* %1) local_unnamed_addr #5 comdat align 2 {
  %3 = bitcast %"class.std::__1::basic_istream"* %0 to i8**
  %4 = load i8*, i8** %3, align 8, !tbaa !17
  %5 = getelementptr i8, i8* %4, i64 -24
  %6 = bitcast i8* %5 to i64*
  %7 = load i64, i64* %6, align 8
  %8 = bitcast %"class.std::__1::basic_istream"* %0 to i8*
  %9 = getelementptr inbounds i8, i8* %8, i64 %7
  %10 = bitcast i8* %9 to %"class.std::__1::ios_base"*
  %11 = tail call nonnull align 8 dereferenceable(136) %"class.std::__1::ios_base"* %1(%"class.std::__1::ios_base"* nonnull align 8 dereferenceable(136) %10)
  ret %"class.std::__1::basic_istream"* %0
}

; Function Attrs: uwtable
define weak_odr nonnull align 8 dereferenceable(16) %"class.std::__1::basic_istream"* @_ZNSt3__113basic_istreamIcNS_11char_traitsIcEEErsEPNS_15basic_streambufIcS2_EE(%"class.std::__1::basic_istream"* %0, %"class.std::__1::basic_streambuf"* %1) local_unnamed_addr #3 comdat align 2 personality i8* bitcast (i32 (...)* @__gxx_personality_v0 to i8*) {
  %3 = getelementptr inbounds %"class.std::__1::basic_istream", %"class.std::__1::basic_istream"* %0, i64 0, i32 1
  store i64 0, i64* %3, align 8, !tbaa !38
  %4 = bitcast %"class.std::__1::basic_istream"* %0 to i8**
  %5 = load i8*, i8** %4, align 8, !tbaa !17
  %6 = getelementptr i8, i8* %5, i64 -24
  %7 = bitcast i8* %6 to i64*
  %8 = load i64, i64* %7, align 8
  %9 = bitcast %"class.std::__1::basic_istream"* %0 to i8*
  %10 = getelementptr inbounds i8, i8* %9, i64 %8
  %11 = getelementptr inbounds i8, i8* %10, i64 32
  %12 = bitcast i8* %11 to i32*
  %13 = load i32, i32* %12, align 8, !tbaa !13
  %14 = icmp eq i32 %13, 0
  br i1 %14, label %15, label %20

15:                                               ; preds = %2
  %16 = getelementptr inbounds i8, i8* %10, i64 136
  %17 = bitcast i8* %16 to %"class.std::__1::basic_ostream"**
  %18 = load %"class.std::__1::basic_ostream"*, %"class.std::__1::basic_ostream"** %17, align 8, !tbaa !3
  %19 = icmp eq %"class.std::__1::basic_ostream"* %18, null
  br i1 %19, label %34, label %23

20:                                               ; preds = %2
  %21 = bitcast i8* %10 to %"class.std::__1::ios_base"*
  %22 = or i32 %13, 4
  tail call void @_ZNSt3__18ios_base5clearEj(%"class.std::__1::ios_base"* nonnull %21, i32 %22)
  br label %156

23:                                               ; preds = %15
  %24 = tail call nonnull align 8 dereferenceable(8) %"class.std::__1::basic_ostream"* @_ZNSt3__113basic_ostreamIcNS_11char_traitsIcEEE5flushEv(%"class.std::__1::basic_ostream"* nonnull %18)
  %25 = load i8*, i8** %4, align 8, !tbaa !17
  %26 = getelementptr i8, i8* %25, i64 -24
  %27 = bitcast i8* %26 to i64*
  %28 = load i64, i64* %27, align 8
  %29 = getelementptr inbounds i8, i8* %9, i64 %28
  %30 = getelementptr inbounds i8, i8* %29, i64 32
  %31 = bitcast i8* %30 to i32*
  %32 = load i32, i32* %31, align 8, !tbaa !13
  %33 = icmp eq i32 %32, 0
  br i1 %33, label %34, label %156

34:                                               ; preds = %15, %23
  %35 = phi i64 [ %28, %23 ], [ %8, %15 ]
  %36 = icmp eq %"class.std::__1::basic_streambuf"* %1, null
  br i1 %36, label %144, label %37

37:                                               ; preds = %34
  %38 = getelementptr inbounds %"class.std::__1::basic_istream", %"class.std::__1::basic_istream"* %0, i64 0, i32 2, i32 0, i32 3
  %39 = bitcast i64* %38 to i8*
  %40 = getelementptr inbounds %"class.std::__1::basic_streambuf", %"class.std::__1::basic_streambuf"* %1, i64 0, i32 6
  %41 = getelementptr inbounds %"class.std::__1::basic_streambuf", %"class.std::__1::basic_streambuf"* %1, i64 0, i32 7
  %42 = bitcast %"class.std::__1::basic_streambuf"* %1 to i32 (%"class.std::__1::basic_streambuf"*, i32)***
  br label %43

43:                                               ; preds = %37, %128
  %44 = phi i64 [ %35, %37 ], [ %132, %128 ]
  %45 = getelementptr inbounds i8, i8* %39, i64 %44
  %46 = bitcast i8* %45 to %"class.std::__1::basic_streambuf"**
  %47 = load %"class.std::__1::basic_streambuf"*, %"class.std::__1::basic_streambuf"** %46, align 8, !tbaa !46
  %48 = getelementptr inbounds %"class.std::__1::basic_streambuf", %"class.std::__1::basic_streambuf"* %47, i64 0, i32 3
  %49 = load i8*, i8** %48, align 8, !tbaa !19
  %50 = getelementptr inbounds %"class.std::__1::basic_streambuf", %"class.std::__1::basic_streambuf"* %47, i64 0, i32 4
  %51 = load i8*, i8** %50, align 8, !tbaa !22
  %52 = icmp eq i8* %49, %51
  br i1 %52, label %53, label %59

53:                                               ; preds = %43
  %54 = bitcast %"class.std::__1::basic_streambuf"* %47 to i32 (%"class.std::__1::basic_streambuf"*)***
  %55 = load i32 (%"class.std::__1::basic_streambuf"*)**, i32 (%"class.std::__1::basic_streambuf"*)*** %54, align 8, !tbaa !17
  %56 = getelementptr inbounds i32 (%"class.std::__1::basic_streambuf"*)*, i32 (%"class.std::__1::basic_streambuf"*)** %55, i64 9
  %57 = load i32 (%"class.std::__1::basic_streambuf"*)*, i32 (%"class.std::__1::basic_streambuf"*)** %56, align 8
  %58 = invoke i32 %57(%"class.std::__1::basic_streambuf"* nonnull %47)
          to label %62 unwind label %64

59:                                               ; preds = %43
  %60 = load i8, i8* %49, align 1, !tbaa !23
  %61 = zext i8 %60 to i32
  br label %87

62:                                               ; preds = %53
  %63 = icmp eq i32 %58, -1
  br i1 %63, label %133, label %87

64:                                               ; preds = %92, %118, %53
  %65 = landingpad { i8*, i32 }
          catch i8* null
  %66 = extractvalue { i8*, i32 } %65, 0
  %67 = tail call i8* @__cxa_begin_catch(i8* %66) #14
  %68 = load i64, i64* %3, align 8, !tbaa !38
  %69 = icmp eq i64 %68, 0
  %70 = select i1 %69, i32 5, i32 1
  %71 = load i8*, i8** %4, align 8, !tbaa !17
  %72 = getelementptr i8, i8* %71, i64 -24
  %73 = bitcast i8* %72 to i64*
  %74 = load i64, i64* %73, align 8
  %75 = getelementptr inbounds i8, i8* %9, i64 %74
  %76 = getelementptr inbounds i8, i8* %75, i64 32
  %77 = bitcast i8* %76 to i32*
  %78 = load i32, i32* %77, align 8, !tbaa !13
  %79 = or i32 %78, %70
  store i32 %79, i32* %77, align 8, !tbaa !13
  %80 = load i64, i64* %73, align 8
  %81 = getelementptr inbounds i8, i8* %9, i64 %80
  %82 = getelementptr inbounds i8, i8* %81, i64 36
  %83 = bitcast i8* %82 to i32*
  %84 = load i32, i32* %83, align 4, !tbaa !10
  %85 = and i32 %84, 5
  %86 = icmp eq i32 %85, 0
  br i1 %86, label %142, label %139

87:                                               ; preds = %59, %62
  %88 = phi i32 [ %61, %59 ], [ %58, %62 ]
  %89 = load i8*, i8** %40, align 8, !tbaa !25
  %90 = load i8*, i8** %41, align 8, !tbaa !26
  %91 = icmp eq i8* %89, %90
  br i1 %91, label %92, label %98

92:                                               ; preds = %87
  %93 = and i32 %88, 255
  %94 = load i32 (%"class.std::__1::basic_streambuf"*, i32)**, i32 (%"class.std::__1::basic_streambuf"*, i32)*** %42, align 8, !tbaa !17
  %95 = getelementptr inbounds i32 (%"class.std::__1::basic_streambuf"*, i32)*, i32 (%"class.std::__1::basic_streambuf"*, i32)** %94, i64 13
  %96 = load i32 (%"class.std::__1::basic_streambuf"*, i32)*, i32 (%"class.std::__1::basic_streambuf"*, i32)** %95, align 8
  %97 = invoke i32 %96(%"class.std::__1::basic_streambuf"* nonnull %1, i32 %93)
          to label %101 unwind label %64

98:                                               ; preds = %87
  %99 = trunc i32 %88 to i8
  %100 = getelementptr inbounds i8, i8* %89, i64 1
  store i8* %100, i8** %40, align 8, !tbaa !25
  store i8 %99, i8* %89, align 1, !tbaa !23
  br label %103

101:                                              ; preds = %92
  %102 = icmp eq i32 %97, -1
  br i1 %102, label %133, label %103

103:                                              ; preds = %101, %98
  %104 = load i64, i64* %3, align 8, !tbaa !38
  %105 = add nsw i64 %104, 1
  store i64 %105, i64* %3, align 8, !tbaa !38
  %106 = load i8*, i8** %4, align 8, !tbaa !17
  %107 = getelementptr i8, i8* %106, i64 -24
  %108 = bitcast i8* %107 to i64*
  %109 = load i64, i64* %108, align 8
  %110 = getelementptr inbounds i8, i8* %39, i64 %109
  %111 = bitcast i8* %110 to %"class.std::__1::basic_streambuf"**
  %112 = load %"class.std::__1::basic_streambuf"*, %"class.std::__1::basic_streambuf"** %111, align 8, !tbaa !46
  %113 = getelementptr inbounds %"class.std::__1::basic_streambuf", %"class.std::__1::basic_streambuf"* %112, i64 0, i32 3
  %114 = load i8*, i8** %113, align 8, !tbaa !19
  %115 = getelementptr inbounds %"class.std::__1::basic_streambuf", %"class.std::__1::basic_streambuf"* %112, i64 0, i32 4
  %116 = load i8*, i8** %115, align 8, !tbaa !22
  %117 = icmp eq i8* %114, %116
  br i1 %117, label %118, label %126

118:                                              ; preds = %103
  %119 = bitcast %"class.std::__1::basic_streambuf"* %112 to i32 (%"class.std::__1::basic_streambuf"*)***
  %120 = load i32 (%"class.std::__1::basic_streambuf"*)**, i32 (%"class.std::__1::basic_streambuf"*)*** %119, align 8, !tbaa !17
  %121 = getelementptr inbounds i32 (%"class.std::__1::basic_streambuf"*)*, i32 (%"class.std::__1::basic_streambuf"*)** %120, i64 10
  %122 = load i32 (%"class.std::__1::basic_streambuf"*)*, i32 (%"class.std::__1::basic_streambuf"*)** %121, align 8
  %123 = invoke i32 %122(%"class.std::__1::basic_streambuf"* nonnull %112)
          to label %124 unwind label %64

124:                                              ; preds = %118
  %125 = load i8*, i8** %4, align 8, !tbaa !17
  br label %128

126:                                              ; preds = %103
  %127 = getelementptr inbounds i8, i8* %114, i64 1
  store i8* %127, i8** %113, align 8, !tbaa !19
  br label %128

128:                                              ; preds = %124, %126
  %129 = phi i8* [ %125, %124 ], [ %106, %126 ]
  %130 = getelementptr i8, i8* %129, i64 -24
  %131 = bitcast i8* %130 to i64*
  %132 = load i64, i64* %131, align 8
  br label %43

133:                                              ; preds = %62, %101
  %134 = phi i32 [ 0, %101 ], [ 2, %62 ]
  %135 = load i64, i64* %3, align 8, !tbaa !38
  %136 = icmp eq i64 %135, 0
  %137 = or i32 %134, 4
  %138 = select i1 %136, i32 %137, i32 %134
  br label %144

139:                                              ; preds = %64
  invoke void @__cxa_rethrow() #17
          to label %160 unwind label %140

140:                                              ; preds = %139
  %141 = landingpad { i8*, i32 }
          cleanup
  invoke void @__cxa_end_catch()
          to label %143 unwind label %157

142:                                              ; preds = %64
  tail call void @__cxa_end_catch()
  br label %144

143:                                              ; preds = %140
  resume { i8*, i32 } %141

144:                                              ; preds = %133, %34, %142
  %145 = phi i32 [ %70, %142 ], [ %138, %133 ], [ 4, %34 ]
  %146 = load i8*, i8** %4, align 8, !tbaa !17
  %147 = getelementptr i8, i8* %146, i64 -24
  %148 = bitcast i8* %147 to i64*
  %149 = load i64, i64* %148, align 8
  %150 = getelementptr inbounds i8, i8* %9, i64 %149
  %151 = bitcast i8* %150 to %"class.std::__1::ios_base"*
  %152 = getelementptr inbounds i8, i8* %150, i64 32
  %153 = bitcast i8* %152 to i32*
  %154 = load i32, i32* %153, align 8, !tbaa !13
  %155 = or i32 %154, %145
  tail call void @_ZNSt3__18ios_base5clearEj(%"class.std::__1::ios_base"* %151, i32 %155)
  br label %156

156:                                              ; preds = %20, %144, %23
  ret %"class.std::__1::basic_istream"* %0

157:                                              ; preds = %140
  %158 = landingpad { i8*, i32 }
          catch i8* null
  %159 = extractvalue { i8*, i32 } %158, 0
  tail call void @__clang_call_terminate(i8* %159) #16
  unreachable

160:                                              ; preds = %139
  unreachable
}

declare i8* @__cxa_begin_catch(i8*) local_unnamed_addr

declare void @__cxa_rethrow() local_unnamed_addr

declare void @__cxa_end_catch() local_unnamed_addr

; Function Attrs: noinline noreturn nounwind
define linkonce_odr hidden void @__clang_call_terminate(i8* %0) local_unnamed_addr #8 comdat {
  %2 = tail call i8* @__cxa_begin_catch(i8* %0) #14
  tail call void @_ZSt9terminatev() #16
  unreachable
}

declare void @_ZSt9terminatev() local_unnamed_addr

; Function Attrs: uwtable
define weak_odr nonnull align 8 dereferenceable(16) %"class.std::__1::basic_istream"* @_ZNSt3__113basic_istreamIcNS_11char_traitsIcEEErsERb(%"class.std::__1::basic_istream"* %0, i8* nonnull align 1 dereferenceable(1) %1) local_unnamed_addr #3 comdat align 2 {
  %3 = tail call nonnull align 8 dereferenceable(16) %"class.std::__1::basic_istream"* @_ZNSt3__118__input_arithmeticIbcNS_11char_traitsIcEEEERNS_13basic_istreamIT0_T1_EES7_RT_(%"class.std::__1::basic_istream"* nonnull align 8 dereferenceable(16) %0, i8* nonnull align 1 dereferenceable(1) %1)
  ret %"class.std::__1::basic_istream"* %3
}

; Function Attrs: uwtable
define linkonce_odr hidden nonnull align 8 dereferenceable(16) %"class.std::__1::basic_istream"* @_ZNSt3__118__input_arithmeticIbcNS_11char_traitsIcEEEERNS_13basic_istreamIT0_T1_EES7_RT_(%"class.std::__1::basic_istream"* nonnull align 8 dereferenceable(16) %0, i8* nonnull align 1 dereferenceable(1) %1) local_unnamed_addr #3 comdat personality i8* bitcast (i32 (...)* @__gxx_personality_v0 to i8*) {
  %3 = alloca i32, align 4
  %4 = alloca %"class.std::__1::basic_istream<char, std::__1::char_traits<char>>::sentry", align 1
  %5 = alloca %"class.std::__1::locale", align 8
  %6 = bitcast i32* %3 to i8*
  call void @llvm.lifetime.start.p0i8(i64 4, i8* nonnull %6) #14
  store i32 0, i32* %3, align 4, !tbaa !41
  %7 = getelementptr inbounds %"class.std::__1::basic_istream<char, std::__1::char_traits<char>>::sentry", %"class.std::__1::basic_istream<char, std::__1::char_traits<char>>::sentry"* %4, i64 0, i32 0
  call void @llvm.lifetime.start.p0i8(i64 1, i8* nonnull %7) #14
  call void @_ZNSt3__113basic_istreamIcNS_11char_traitsIcEEE6sentryC2ERS3_b(%"class.std::__1::basic_istream<char, std::__1::char_traits<char>>::sentry"* nonnull %4, %"class.std::__1::basic_istream"* nonnull align 8 dereferenceable(16) %0, i1 zeroext false)
  %8 = load i8, i8* %7, align 1, !tbaa !42, !range !53
  %9 = icmp eq i8 %8, 0
  br i1 %9, label %83, label %10

10:                                               ; preds = %2
  %11 = bitcast %"class.std::__1::locale"* %5 to i8*
  call void @llvm.lifetime.start.p0i8(i64 8, i8* nonnull %11) #14
  %12 = bitcast %"class.std::__1::basic_istream"* %0 to i8**
  %13 = load i8*, i8** %12, align 8, !tbaa !17
  %14 = getelementptr i8, i8* %13, i64 -24
  %15 = bitcast i8* %14 to i64*
  %16 = load i64, i64* %15, align 8
  %17 = bitcast %"class.std::__1::basic_istream"* %0 to i8*
  %18 = getelementptr inbounds i8, i8* %17, i64 %16
  %19 = bitcast i8* %18 to %"class.std::__1::ios_base"*
  invoke void @_ZNKSt3__18ios_base6getlocEv(%"class.std::__1::locale"* nonnull sret align 8 %5, %"class.std::__1::ios_base"* nonnull %19)
          to label %20 unwind label %39

20:                                               ; preds = %10
  %21 = invoke %"class.std::__1::locale::facet"* @_ZNKSt3__16locale9use_facetERNS0_2idE(%"class.std::__1::locale"* nonnull %5, %"class.std::__1::locale::id"* nonnull align 8 dereferenceable(12) @_ZNSt3__17num_getIcNS_19istreambuf_iteratorIcNS_11char_traitsIcEEEEE2idE)
          to label %22 unwind label %42

22:                                               ; preds = %20
  %23 = bitcast %"class.std::__1::locale::facet"* %21 to %"class.std::__1::num_get"*
  %24 = load i8*, i8** %12, align 8, !tbaa !17
  %25 = getelementptr i8, i8* %24, i64 -24
  %26 = bitcast i8* %25 to i64*
  %27 = load i64, i64* %26, align 8
  %28 = getelementptr inbounds i8, i8* %17, i64 %27
  %29 = getelementptr inbounds i8, i8* %28, i64 40
  %30 = bitcast i8* %29 to %"class.std::__1::basic_streambuf"**
  %31 = load %"class.std::__1::basic_streambuf"*, %"class.std::__1::basic_streambuf"** %30, align 8, !tbaa !46
  %32 = bitcast i8* %28 to %"class.std::__1::ios_base"*
  %33 = bitcast %"class.std::__1::locale::facet"* %21 to %"class.std::__1::basic_streambuf"* (%"class.std::__1::num_get"*, %"class.std::__1::basic_streambuf"*, %"class.std::__1::basic_streambuf"*, %"class.std::__1::ios_base"*, i32*, i8*)***
  %34 = load %"class.std::__1::basic_streambuf"* (%"class.std::__1::num_get"*, %"class.std::__1::basic_streambuf"*, %"class.std::__1::basic_streambuf"*, %"class.std::__1::ios_base"*, i32*, i8*)**, %"class.std::__1::basic_streambuf"* (%"class.std::__1::num_get"*, %"class.std::__1::basic_streambuf"*, %"class.std::__1::basic_streambuf"*, %"class.std::__1::ios_base"*, i32*, i8*)*** %33, align 8, !tbaa !17
  %35 = getelementptr inbounds %"class.std::__1::basic_streambuf"* (%"class.std::__1::num_get"*, %"class.std::__1::basic_streambuf"*, %"class.std::__1::basic_streambuf"*, %"class.std::__1::ios_base"*, i32*, i8*)*, %"class.std::__1::basic_streambuf"* (%"class.std::__1::num_get"*, %"class.std::__1::basic_streambuf"*, %"class.std::__1::basic_streambuf"*, %"class.std::__1::ios_base"*, i32*, i8*)** %34, i64 3
  %36 = load %"class.std::__1::basic_streambuf"* (%"class.std::__1::num_get"*, %"class.std::__1::basic_streambuf"*, %"class.std::__1::basic_streambuf"*, %"class.std::__1::ios_base"*, i32*, i8*)*, %"class.std::__1::basic_streambuf"* (%"class.std::__1::num_get"*, %"class.std::__1::basic_streambuf"*, %"class.std::__1::basic_streambuf"*, %"class.std::__1::ios_base"*, i32*, i8*)** %35, align 8
  %37 = invoke %"class.std::__1::basic_streambuf"* %36(%"class.std::__1::num_get"* %23, %"class.std::__1::basic_streambuf"* %31, %"class.std::__1::basic_streambuf"* null, %"class.std::__1::ios_base"* nonnull align 8 dereferenceable(136) %32, i32* nonnull align 4 dereferenceable(4) %3, i8* nonnull align 1 dereferenceable(1) %1)
          to label %38 unwind label %42

38:                                               ; preds = %22
  call void @_ZNSt3__16localeD1Ev(%"class.std::__1::locale"* nonnull %5) #14
  call void @llvm.lifetime.end.p0i8(i64 8, i8* nonnull %11) #14
  br label %70

39:                                               ; preds = %10
  %40 = landingpad { i8*, i32 }
          catch i8* null
  %41 = extractvalue { i8*, i32 } %40, 0
  br label %45

42:                                               ; preds = %22, %20
  %43 = landingpad { i8*, i32 }
          catch i8* null
  %44 = extractvalue { i8*, i32 } %43, 0
  call void @_ZNSt3__16localeD1Ev(%"class.std::__1::locale"* nonnull %5) #14
  br label %45

45:                                               ; preds = %42, %39
  %46 = phi i8* [ %44, %42 ], [ %41, %39 ]
  call void @llvm.lifetime.end.p0i8(i64 8, i8* nonnull %11) #14
  %47 = call i8* @__cxa_begin_catch(i8* %46) #14
  %48 = load i32, i32* %3, align 4, !tbaa !41
  %49 = or i32 %48, 1
  store i32 %49, i32* %3, align 4, !tbaa !41
  %50 = load i8*, i8** %12, align 8, !tbaa !17
  %51 = getelementptr i8, i8* %50, i64 -24
  %52 = bitcast i8* %51 to i64*
  %53 = load i64, i64* %52, align 8
  %54 = getelementptr inbounds i8, i8* %17, i64 %53
  %55 = getelementptr inbounds i8, i8* %54, i64 32
  %56 = bitcast i8* %55 to i32*
  %57 = load i32, i32* %56, align 8, !tbaa !13
  %58 = or i32 %57, %49
  store i32 %58, i32* %56, align 8, !tbaa !13
  %59 = load i64, i64* %52, align 8
  %60 = getelementptr inbounds i8, i8* %17, i64 %59
  %61 = getelementptr inbounds i8, i8* %60, i64 36
  %62 = bitcast i8* %61 to i32*
  %63 = load i32, i32* %62, align 4, !tbaa !10
  %64 = and i32 %63, 1
  %65 = icmp eq i32 %64, 0
  br i1 %65, label %69, label %66

66:                                               ; preds = %45
  invoke void @__cxa_rethrow() #17
          to label %87 unwind label %67

67:                                               ; preds = %66
  %68 = landingpad { i8*, i32 }
          cleanup
  invoke void @__cxa_end_catch()
          to label %82 unwind label %84

69:                                               ; preds = %45
  call void @__cxa_end_catch()
  br label %70

70:                                               ; preds = %69, %38
  %71 = load i8*, i8** %12, align 8, !tbaa !17
  %72 = getelementptr i8, i8* %71, i64 -24
  %73 = bitcast i8* %72 to i64*
  %74 = load i64, i64* %73, align 8
  %75 = getelementptr inbounds i8, i8* %17, i64 %74
  %76 = load i32, i32* %3, align 4, !tbaa !41
  %77 = bitcast i8* %75 to %"class.std::__1::ios_base"*
  %78 = getelementptr inbounds i8, i8* %75, i64 32
  %79 = bitcast i8* %78 to i32*
  %80 = load i32, i32* %79, align 8, !tbaa !13
  %81 = or i32 %80, %76
  call void @_ZNSt3__18ios_base5clearEj(%"class.std::__1::ios_base"* nonnull %77, i32 %81)
  br label %83

82:                                               ; preds = %67
  call void @llvm.lifetime.end.p0i8(i64 1, i8* nonnull %7) #14
  call void @llvm.lifetime.end.p0i8(i64 4, i8* nonnull %6) #14
  resume { i8*, i32 } %68

83:                                               ; preds = %2, %70
  call void @llvm.lifetime.end.p0i8(i64 1, i8* nonnull %7) #14
  call void @llvm.lifetime.end.p0i8(i64 4, i8* nonnull %6) #14
  ret %"class.std::__1::basic_istream"* %0

84:                                               ; preds = %67
  %85 = landingpad { i8*, i32 }
          catch i8* null
  %86 = extractvalue { i8*, i32 } %85, 0
  call void @__clang_call_terminate(i8* %86) #16
  unreachable

87:                                               ; preds = %66
  unreachable
}

; Function Attrs: uwtable
define weak_odr nonnull align 8 dereferenceable(16) %"class.std::__1::basic_istream"* @_ZNSt3__113basic_istreamIcNS_11char_traitsIcEEErsERs(%"class.std::__1::basic_istream"* %0, i16* nonnull align 2 dereferenceable(2) %1) local_unnamed_addr #3 comdat align 2 {
  %3 = tail call nonnull align 8 dereferenceable(16) %"class.std::__1::basic_istream"* @_ZNSt3__138__input_arithmetic_with_numeric_limitsIscNS_11char_traitsIcEEEERNS_13basic_istreamIT0_T1_EES7_RT_(%"class.std::__1::basic_istream"* nonnull align 8 dereferenceable(16) %0, i16* nonnull align 2 dereferenceable(2) %1)
  ret %"class.std::__1::basic_istream"* %3
}

; Function Attrs: uwtable
define linkonce_odr hidden nonnull align 8 dereferenceable(16) %"class.std::__1::basic_istream"* @_ZNSt3__138__input_arithmetic_with_numeric_limitsIscNS_11char_traitsIcEEEERNS_13basic_istreamIT0_T1_EES7_RT_(%"class.std::__1::basic_istream"* nonnull align 8 dereferenceable(16) %0, i16* nonnull align 2 dereferenceable(2) %1) local_unnamed_addr #3 comdat personality i8* bitcast (i32 (...)* @__gxx_personality_v0 to i8*) {
  %3 = alloca i32, align 4
  %4 = alloca %"class.std::__1::basic_istream<char, std::__1::char_traits<char>>::sentry", align 1
  %5 = alloca i64, align 8
  %6 = alloca %"class.std::__1::locale", align 8
  %7 = bitcast i32* %3 to i8*
  call void @llvm.lifetime.start.p0i8(i64 4, i8* nonnull %7) #14
  store i32 0, i32* %3, align 4, !tbaa !41
  %8 = getelementptr inbounds %"class.std::__1::basic_istream<char, std::__1::char_traits<char>>::sentry", %"class.std::__1::basic_istream<char, std::__1::char_traits<char>>::sentry"* %4, i64 0, i32 0
  call void @llvm.lifetime.start.p0i8(i64 1, i8* nonnull %8) #14
  call void @_ZNSt3__113basic_istreamIcNS_11char_traitsIcEEE6sentryC2ERS3_b(%"class.std::__1::basic_istream<char, std::__1::char_traits<char>>::sentry"* nonnull %4, %"class.std::__1::basic_istream"* nonnull align 8 dereferenceable(16) %0, i1 zeroext false)
  %9 = load i8, i8* %8, align 1, !tbaa !42, !range !53
  %10 = icmp eq i8 %9, 0
  br i1 %10, label %99, label %11

11:                                               ; preds = %2
  %12 = bitcast i64* %5 to i8*
  call void @llvm.lifetime.start.p0i8(i64 8, i8* nonnull %12) #14
  %13 = bitcast %"class.std::__1::locale"* %6 to i8*
  call void @llvm.lifetime.start.p0i8(i64 8, i8* nonnull %13) #14
  %14 = bitcast %"class.std::__1::basic_istream"* %0 to i8**
  %15 = load i8*, i8** %14, align 8, !tbaa !17
  %16 = getelementptr i8, i8* %15, i64 -24
  %17 = bitcast i8* %16 to i64*
  %18 = load i64, i64* %17, align 8
  %19 = bitcast %"class.std::__1::basic_istream"* %0 to i8*
  %20 = getelementptr inbounds i8, i8* %19, i64 %18
  %21 = bitcast i8* %20 to %"class.std::__1::ios_base"*
  invoke void @_ZNKSt3__18ios_base6getlocEv(%"class.std::__1::locale"* nonnull sret align 8 %6, %"class.std::__1::ios_base"* nonnull %21)
          to label %22 unwind label %46

22:                                               ; preds = %11
  %23 = invoke %"class.std::__1::locale::facet"* @_ZNKSt3__16locale9use_facetERNS0_2idE(%"class.std::__1::locale"* nonnull %6, %"class.std::__1::locale::id"* nonnull align 8 dereferenceable(12) @_ZNSt3__17num_getIcNS_19istreambuf_iteratorIcNS_11char_traitsIcEEEEE2idE)
          to label %24 unwind label %49

24:                                               ; preds = %22
  %25 = bitcast %"class.std::__1::locale::facet"* %23 to %"class.std::__1::num_get"*
  %26 = load i8*, i8** %14, align 8, !tbaa !17
  %27 = getelementptr i8, i8* %26, i64 -24
  %28 = bitcast i8* %27 to i64*
  %29 = load i64, i64* %28, align 8
  %30 = getelementptr inbounds i8, i8* %19, i64 %29
  %31 = getelementptr inbounds i8, i8* %30, i64 40
  %32 = bitcast i8* %31 to %"class.std::__1::basic_streambuf"**
  %33 = load %"class.std::__1::basic_streambuf"*, %"class.std::__1::basic_streambuf"** %32, align 8, !tbaa !46
  %34 = bitcast i8* %30 to %"class.std::__1::ios_base"*
  %35 = bitcast %"class.std::__1::locale::facet"* %23 to %"class.std::__1::basic_streambuf"* (%"class.std::__1::num_get"*, %"class.std::__1::basic_streambuf"*, %"class.std::__1::basic_streambuf"*, %"class.std::__1::ios_base"*, i32*, i64*)***
  %36 = load %"class.std::__1::basic_streambuf"* (%"class.std::__1::num_get"*, %"class.std::__1::basic_streambuf"*, %"class.std::__1::basic_streambuf"*, %"class.std::__1::ios_base"*, i32*, i64*)**, %"class.std::__1::basic_streambuf"* (%"class.std::__1::num_get"*, %"class.std::__1::basic_streambuf"*, %"class.std::__1::basic_streambuf"*, %"class.std::__1::ios_base"*, i32*, i64*)*** %35, align 8, !tbaa !17
  %37 = getelementptr inbounds %"class.std::__1::basic_streambuf"* (%"class.std::__1::num_get"*, %"class.std::__1::basic_streambuf"*, %"class.std::__1::basic_streambuf"*, %"class.std::__1::ios_base"*, i32*, i64*)*, %"class.std::__1::basic_streambuf"* (%"class.std::__1::num_get"*, %"class.std::__1::basic_streambuf"*, %"class.std::__1::basic_streambuf"*, %"class.std::__1::ios_base"*, i32*, i64*)** %36, i64 4
  %38 = load %"class.std::__1::basic_streambuf"* (%"class.std::__1::num_get"*, %"class.std::__1::basic_streambuf"*, %"class.std::__1::basic_streambuf"*, %"class.std::__1::ios_base"*, i32*, i64*)*, %"class.std::__1::basic_streambuf"* (%"class.std::__1::num_get"*, %"class.std::__1::basic_streambuf"*, %"class.std::__1::basic_streambuf"*, %"class.std::__1::ios_base"*, i32*, i64*)** %37, align 8
  %39 = invoke %"class.std::__1::basic_streambuf"* %38(%"class.std::__1::num_get"* %25, %"class.std::__1::basic_streambuf"* %33, %"class.std::__1::basic_streambuf"* null, %"class.std::__1::ios_base"* nonnull align 8 dereferenceable(136) %34, i32* nonnull align 4 dereferenceable(4) %3, i64* nonnull align 8 dereferenceable(8) %5)
          to label %40 unwind label %49

40:                                               ; preds = %24
  call void @_ZNSt3__16localeD1Ev(%"class.std::__1::locale"* nonnull %6) #14
  call void @llvm.lifetime.end.p0i8(i64 8, i8* nonnull %13) #14
  %41 = load i64, i64* %5, align 8, !tbaa !40
  %42 = icmp slt i64 %41, -32768
  br i1 %42, label %43, label %74

43:                                               ; preds = %40
  %44 = load i32, i32* %3, align 4, !tbaa !41
  %45 = or i32 %44, 4
  store i32 %45, i32* %3, align 4, !tbaa !41
  br label %81

46:                                               ; preds = %11
  %47 = landingpad { i8*, i32 }
          catch i8* null
  %48 = extractvalue { i8*, i32 } %47, 0
  br label %52

49:                                               ; preds = %24, %22
  %50 = landingpad { i8*, i32 }
          catch i8* null
  %51 = extractvalue { i8*, i32 } %50, 0
  call void @_ZNSt3__16localeD1Ev(%"class.std::__1::locale"* nonnull %6) #14
  br label %52

52:                                               ; preds = %49, %46
  %53 = phi i8* [ %51, %49 ], [ %48, %46 ]
  call void @llvm.lifetime.end.p0i8(i64 8, i8* nonnull %13) #14
  call void @llvm.lifetime.end.p0i8(i64 8, i8* nonnull %12) #14
  %54 = call i8* @__cxa_begin_catch(i8* %53) #14
  %55 = load i32, i32* %3, align 4, !tbaa !41
  %56 = or i32 %55, 1
  store i32 %56, i32* %3, align 4, !tbaa !41
  %57 = load i8*, i8** %14, align 8, !tbaa !17
  %58 = getelementptr i8, i8* %57, i64 -24
  %59 = bitcast i8* %58 to i64*
  %60 = load i64, i64* %59, align 8
  %61 = getelementptr inbounds i8, i8* %19, i64 %60
  %62 = getelementptr inbounds i8, i8* %61, i64 32
  %63 = bitcast i8* %62 to i32*
  %64 = load i32, i32* %63, align 8, !tbaa !13
  %65 = or i32 %64, %56
  store i32 %65, i32* %63, align 8, !tbaa !13
  %66 = load i64, i64* %59, align 8
  %67 = getelementptr inbounds i8, i8* %19, i64 %66
  %68 = getelementptr inbounds i8, i8* %67, i64 36
  %69 = bitcast i8* %68 to i32*
  %70 = load i32, i32* %69, align 4, !tbaa !10
  %71 = and i32 %70, 1
  %72 = icmp eq i32 %71, 0
  br i1 %72, label %85, label %73

73:                                               ; preds = %52
  invoke void @__cxa_rethrow() #17
          to label %103 unwind label %83

74:                                               ; preds = %40
  %75 = icmp sgt i64 %41, 32767
  br i1 %75, label %76, label %79

76:                                               ; preds = %74
  %77 = load i32, i32* %3, align 4, !tbaa !41
