; ModuleID = 'll/.operations.cpp.o.bc'
source_filename = "/home/misha/sweet/repos/libcxx-llvm-ir/llvm-project/libcxx/src/filesystem/operations.cpp"
target datalayout = "e-m:e-p270:32:32-p271:32:32-p272:64:64-i64:64-f80:128-n8:16:32:64-S128"
target triple = "x86_64-unknown-linux-gnu"

%"class.std::__1::__fs::filesystem::filesystem_error" = type { %"class.std::__1::system_error", %"class.std::__1::shared_ptr" }
%"class.std::__1::system_error" = type { %"class.std::runtime_error", %"class.std::__1::error_code" }
%"class.std::runtime_error" = type { %"class.std::exception", %"class.std::__1::__libcpp_refstring" }
%"class.std::exception" = type { i32 (...)** }
%"class.std::__1::__libcpp_refstring" = type { i8* }
%"class.std::__1::error_code" = type { i32, %"class.std::__1::error_category"* }
%"class.std::__1::error_category" = type { i32 (...)** }
%"class.std::__1::shared_ptr" = type { %"struct.std::__1::__fs::filesystem::filesystem_error::_Storage"*, %"class.std::__1::__shared_weak_count"* }
%"struct.std::__1::__fs::filesystem::filesystem_error::_Storage" = type { %"class.std::__1::__fs::filesystem::path", %"class.std::__1::__fs::filesystem::path", %"class.std::__1::basic_string" }
%"class.std::__1::__fs::filesystem::path" = type { %"class.std::__1::basic_string" }
%"class.std::__1::basic_string" = type { %"class.std::__1::__compressed_pair" }
%"class.std::__1::__compressed_pair" = type { %"struct.std::__1::__compressed_pair_elem" }
%"struct.std::__1::__compressed_pair_elem" = type { %"struct.std::__1::basic_string<char, std::__1::char_traits<char>, std::__1::allocator<char>>::__rep" }
%"struct.std::__1::basic_string<char, std::__1::char_traits<char>, std::__1::allocator<char>>::__rep" = type { %union.anon }
%union.anon = type { %"struct.std::__1::basic_string<char, std::__1::char_traits<char>, std::__1::allocator<char>>::__long" }
%"struct.std::__1::basic_string<char, std::__1::char_traits<char>, std::__1::allocator<char>>::__long" = type { i64, i64, i8* }
%"class.std::__1::__shared_weak_count" = type { %"class.std::__1::__shared_count", i64 }
%"class.std::__1::__shared_count" = type { i32 (...)**, i64 }
%struct.timespec = type { i64, i64 }
%"struct.std::__1::basic_string<char, std::__1::char_traits<char>, std::__1::allocator<char>>::__short" = type { %union.anon.1, [23 x i8] }
%union.anon.1 = type { i8 }
%"struct.std::__1::__fs::filesystem::(anonymous namespace)::parser::PathParser" = type <{ %"class.std::__1::basic_string_view", %"class.std::__1::basic_string_view", i8, [7 x i8] }>
%"class.std::__1::basic_string_view" = type { i8*, i64 }
%"struct.std::__1::__fs::filesystem::detail::(anonymous namespace)::ErrorHandler" = type { i8*, %"class.std::__1::error_code"*, %"class.std::__1::__fs::filesystem::path"*, %"class.std::__1::__fs::filesystem::path"* }
%"struct.std::__1::__fs::filesystem::detail::(anonymous namespace)::ErrorHandler.6" = type { i8*, %"class.std::__1::error_code"*, %"class.std::__1::__fs::filesystem::path"*, %"class.std::__1::__fs::filesystem::path"* }
%struct.stat = type { i64, i64, i64, i32, i32, i32, i32, i64, i64, i64, i64, %struct.timespec, %struct.timespec, %struct.timespec, [3 x i64] }
%"class.std::__1::__fs::filesystem::directory_iterator" = type { %"class.std::__1::shared_ptr.7" }
%"class.std::__1::shared_ptr.7" = type { %"class.std::__1::__fs::filesystem::__dir_stream"*, %"class.std::__1::__shared_weak_count"* }
%"class.std::__1::__fs::filesystem::__dir_stream" = type opaque
%"class.std::__1::__basic_string_common" = type { i8 }
%"class.std::__1::__fs::filesystem::directory_entry" = type { %"class.std::__1::__fs::filesystem::path", [8 x i8], %"struct.std::__1::__fs::filesystem::directory_entry::__cached_data" }
%"struct.std::__1::__fs::filesystem::directory_entry::__cached_data" = type <{ i64, i64, %"class.std::__1::chrono::time_point", i32, i32, i8, i8, [6 x i8] }>
%"class.std::__1::chrono::time_point" = type { %"class.std::__1::chrono::duration" }
%"class.std::__1::chrono::duration" = type { i128 }
%"class.std::__1::__fs::filesystem::file_status" = type { i8, i32 }
%"struct.std::__1::__fs::filesystem::detail::(anonymous namespace)::ErrorHandler.8" = type { i8*, %"class.std::__1::error_code"*, %"class.std::__1::__fs::filesystem::path"*, %"class.std::__1::__fs::filesystem::path"* }
%"struct.std::__1::__fs::filesystem::detail::(anonymous namespace)::FileDescriptor" = type { %"class.std::__1::__fs::filesystem::path"*, i32, %struct.stat, %"class.std::__1::__fs::filesystem::file_status" }
%struct.__va_list_tag = type { i32, i32, i8*, i8* }
%"struct.std::__1::__fs::filesystem::detail::(anonymous namespace)::ErrorHandler.10" = type { i8*, %"class.std::__1::error_code"*, %"class.std::__1::__fs::filesystem::path"*, %"class.std::__1::__fs::filesystem::path"* }
%"struct.std::__1::array" = type { [2 x %struct.timespec] }
%"class.std::__1::error_condition" = type { i32, %"class.std::__1::error_category"* }
%"struct.std::__1::__fs::filesystem::space_info" = type { i64, i64, i64 }
%struct.statvfs = type { i64, i64, i64, i64, i64, i64, i64, i64, i64, i64, i64, [6 x i32] }
%"class.std::__1::vector" = type { %"class.std::__1::__vector_base" }
%"class.std::__1::__vector_base" = type { %"class.std::__1::basic_string_view"*, %"class.std::__1::basic_string_view"*, %"class.std::__1::__compressed_pair.17" }
%"class.std::__1::__compressed_pair.17" = type { %"struct.std::__1::__compressed_pair_elem.18" }
%"struct.std::__1::__compressed_pair_elem.18" = type { %"class.std::__1::basic_string_view"* }
%"class.std::__1::__vector_base_common" = type { i8 }
%"class.std::__1::vector.23" = type { %"class.std::__1::__vector_base.24" }
%"class.std::__1::__vector_base.24" = type { %"struct.std::__1::pair.25"*, %"struct.std::__1::pair.25"*, %"class.std::__1::__compressed_pair.26" }
%"struct.std::__1::pair.25" = type <{ %"class.std::__1::basic_string_view", i8, [7 x i8] }>
%"class.std::__1::__compressed_pair.26" = type { %"struct.std::__1::__compressed_pair_elem.27" }
%"struct.std::__1::__compressed_pair_elem.27" = type { %"struct.std::__1::pair.25"* }
%"struct.std::__1::__murmur2_or_cityhash" = type { i8 }
%"class.std::__1::__fs::filesystem::path::iterator" = type <{ %"class.std::__1::__fs::filesystem::path", %"class.std::__1::__fs::filesystem::path"*, %"class.std::__1::basic_string_view", i8, [7 x i8] }>
%"struct.std::__1::array.37" = type { [256 x i8] }
%"class.std::length_error" = type { %"class.std::logic_error" }
%"class.std::logic_error" = type { %"class.std::exception", %"class.std::__1::__libcpp_refstring" }
%"struct.std::__1::__shared_ptr_emplace" = type { %"class.std::__1::__shared_weak_count", %"struct.std::__1::__shared_ptr_emplace<std::__1::__fs::filesystem::filesystem_error::_Storage, std::__1::allocator<std::__1::__fs::filesystem::filesystem_error::_Storage>>::_Storage" }
%"struct.std::__1::__shared_ptr_emplace<std::__1::__fs::filesystem::filesystem_error::_Storage, std::__1::allocator<std::__1::__fs::filesystem::filesystem_error::_Storage>>::_Storage" = type { [72 x i8] }
%"class.std::type_info" = type { i32 (...)**, i8* }
%"class.std::out_of_range" = type { %"class.std::logic_error" }

$__clang_call_terminate = comdat any

$_ZNKSt3__14__fs10filesystem4path9extensionEv = comdat any

$_ZNKSt3__14__fs10filesystem16filesystem_error4whatEv = comdat any

$_ZNSt3__14__fs10filesystem24__throw_filesystem_errorIJRNS_12basic_stringIcNS_11char_traitsIcEENS_9allocatorIcEEEERKNS_10error_codeEEEEvDpOT_ = comdat any

$_ZNSt3__14__fs10filesystem24__throw_filesystem_errorIJRNS_12basic_stringIcNS_11char_traitsIcEENS_9allocatorIcEEEERKNS1_4pathERKNS_10error_codeEEEEvDpOT_ = comdat any

$_ZNSt3__14__fs10filesystem24__throw_filesystem_errorIJRNS_12basic_stringIcNS_11char_traitsIcEENS_9allocatorIcEEEERKNS1_4pathESC_RKNS_10error_codeEEEEvDpOT_ = comdat any

$_ZNSt3__120__throw_length_errorEPKc = comdat any

$_ZNSt12length_errorC2EPKc = comdat any

$_ZNSt3__14__fs10filesystem16filesystem_errorC2ERKNS_12basic_stringIcNS_11char_traitsIcEENS_9allocatorIcEEEENS_10error_codeE = comdat any

$_ZNSt3__120__shared_ptr_emplaceINS_4__fs10filesystem16filesystem_error8_StorageENS_9allocatorIS4_EEED2Ev = comdat any

$_ZNSt3__120__shared_ptr_emplaceINS_4__fs10filesystem16filesystem_error8_StorageENS_9allocatorIS4_EEED0Ev = comdat any

$_ZNSt3__120__shared_ptr_emplaceINS_4__fs10filesystem16filesystem_error8_StorageENS_9allocatorIS4_EEE16__on_zero_sharedEv = comdat any

$_ZNSt3__120__shared_ptr_emplaceINS_4__fs10filesystem16filesystem_error8_StorageENS_9allocatorIS4_EEE21__on_zero_shared_weakEv = comdat any

$_ZNSt3__14__fs10filesystem16filesystem_errorC2ERKNS_12basic_stringIcNS_11char_traitsIcEENS_9allocatorIcEEEERKNS1_4pathENS_10error_codeE = comdat any

$_ZNSt3__14__fs10filesystem16filesystem_errorC2ERKNS_12basic_stringIcNS_11char_traitsIcEENS_9allocatorIcEEEERKNS1_4pathESD_NS_10error_codeE = comdat any

$_ZNSt3__14__fs10filesystem4pathdVERKS2_ = comdat any

$_ZNSt3__120__throw_out_of_rangeEPKc = comdat any

$_ZNSt12out_of_rangeC2EPKc = comdat any

$_ZNSt3__121__murmur2_or_cityhashImLm64EEclEPKvm = comdat any

$_ZNSt3__112basic_stringIcNS_11char_traitsIcEENS_9allocatorIcEEE6appendIPKcEENS_9_MetaBaseIXsr27__is_cpp17_forward_iteratorIT_EE5valueEE13_EnableIfImplIRS5_EESA_SA_ = comdat any

$_ZNSt3__14__fs10filesystem16_FilesystemClock9is_steadyE = comdat any

$_ZNSt3__14__fs10filesystem4path19preferred_separatorE = comdat any

$_ZTVNSt3__120__shared_ptr_emplaceINS_4__fs10filesystem16filesystem_error8_StorageENS_9allocatorIS4_EEEE = comdat any

$_ZTSNSt3__120__shared_ptr_emplaceINS_4__fs10filesystem16filesystem_error8_StorageENS_9allocatorIS4_EEEE = comdat any

$_ZTINSt3__120__shared_ptr_emplaceINS_4__fs10filesystem16filesystem_error8_StorageENS_9allocatorIS4_EEEE = comdat any

@_ZNSt3__14__fs10filesystem16_FilesystemClock9is_steadyE = weak_odr local_unnamed_addr constant i8 0, comdat, align 1
@.str = private unnamed_addr constant [37 x i8] c"clock_gettime(CLOCK_REALTIME) failed\00", align 1
@_ZTVNSt3__14__fs10filesystem16filesystem_errorE = unnamed_addr constant { [5 x i8*] } { [5 x i8*] [i8* null, i8* bitcast ({ i8*, i8*, i8* }* @_ZTINSt3__14__fs10filesystem16filesystem_errorE to i8*), i8* bitcast (void (%"class.std::__1::__fs::filesystem::filesystem_error"*)* @_ZNSt3__14__fs10filesystem16filesystem_errorD2Ev to i8*), i8* bitcast (void (%"class.std::__1::__fs::filesystem::filesystem_error"*)* @_ZNSt3__14__fs10filesystem16filesystem_errorD0Ev to i8*), i8* bitcast (i8* (%"class.std::__1::__fs::filesystem::filesystem_error"*)* @_ZNKSt3__14__fs10filesystem16filesystem_error4whatEv to i8*)] }, align 8
@.str.1 = private unnamed_addr constant [10 x i8] c"canonical\00", align 1
@.str.2 = private unnamed_addr constant [5 x i8] c"copy\00", align 1
@.str.3 = private unnamed_addr constant [10 x i8] c"copy_file\00", align 1
@.str.4 = private unnamed_addr constant [19 x i8] c"create_directories\00", align 1
@.str.5 = private unnamed_addr constant [17 x i8] c"create_directory\00", align 1
@.str.6 = private unnamed_addr constant [40 x i8] c"the specified attribute path is invalid\00", align 1
@.str.7 = private unnamed_addr constant [25 x i8] c"create_directory_symlink\00", align 1
@.str.8 = private unnamed_addr constant [17 x i8] c"create_hard_link\00", align 1
@.str.9 = private unnamed_addr constant [15 x i8] c"create_symlink\00", align 1
@.str.10 = private unnamed_addr constant [13 x i8] c"current_path\00", align 1
@.str.11 = private unnamed_addr constant [22 x i8] c"call to getcwd failed\00", align 1
@.str.12 = private unnamed_addr constant [11 x i8] c"equivalent\00", align 1
@.str.13 = private unnamed_addr constant [10 x i8] c"file_size\00", align 1
@.str.14 = private unnamed_addr constant [16 x i8] c"hard_link_count\00", align 1
@.str.15 = private unnamed_addr constant [9 x i8] c"is_empty\00", align 1
@.str.16 = private unnamed_addr constant [16 x i8] c"last_write_time\00", align 1
@.str.17 = private unnamed_addr constant [12 x i8] c"permissions\00", align 1
@.str.18 = private unnamed_addr constant [13 x i8] c"read_symlink\00", align 1
@.str.19 = private unnamed_addr constant [7 x i8] c"remove\00", align 1
@.str.20 = private unnamed_addr constant [11 x i8] c"remove_all\00", align 1
@.str.21 = private unnamed_addr constant [7 x i8] c"rename\00", align 1
@.str.22 = private unnamed_addr constant [12 x i8] c"resize_file\00", align 1
@.str.23 = private unnamed_addr constant [6 x i8] c"space\00", align 1
@.str.24 = private unnamed_addr constant [20 x i8] c"temp_directory_path\00", align 1
@.str.25 = private unnamed_addr constant [7 x i8] c"TMPDIR\00", align 1
@.str.26 = private unnamed_addr constant [4 x i8] c"TMP\00", align 1
@.str.27 = private unnamed_addr constant [5 x i8] c"TEMP\00", align 1
@.str.28 = private unnamed_addr constant [8 x i8] c"TEMPDIR\00", align 1
@.str.29 = private unnamed_addr constant [5 x i8] c"/tmp\00", align 1
@.str.30 = private unnamed_addr constant [24 x i8] c"cannot access path \22%s\22\00", align 1
@.str.31 = private unnamed_addr constant [29 x i8] c"path \22%s\22 is not a directory\00", align 1
@.str.32 = private unnamed_addr constant [17 x i8] c"weakly_canonical\00", align 1
@.str.33 = private unnamed_addr constant [1 x i8] zeroinitializer, align 1
@_ZNSt3__14__fs10filesystem4path19preferred_separatorE = weak_odr local_unnamed_addr constant i8 47, comdat, align 1
@.str.34 = private unnamed_addr constant [2 x i8] c".\00", align 1
@.str.35 = private unnamed_addr constant [3 x i8] c"..\00", align 1
@_ZTVN10__cxxabiv120__si_class_type_infoE = external global i8*
@_ZTSNSt3__14__fs10filesystem16filesystem_errorE = constant [44 x i8] c"NSt3__14__fs10filesystem16filesystem_errorE\00", align 1
@_ZTINSt3__112system_errorE = external constant i8*
@_ZTINSt3__14__fs10filesystem16filesystem_errorE = constant { i8*, i8*, i8* } { i8* bitcast (i8** getelementptr inbounds (i8*, i8** @_ZTVN10__cxxabiv120__si_class_type_infoE, i64 2) to i8*), i8* getelementptr inbounds ([44 x i8], [44 x i8]* @_ZTSNSt3__14__fs10filesystem16filesystem_errorE, i32 0, i32 0), i8* bitcast (i8** @_ZTINSt3__112system_errorE to i8*) }, align 8
@.str.36 = private unnamed_addr constant [21 x i8] c"filesystem error: %s\00", align 1
@.str.37 = private unnamed_addr constant [28 x i8] c"filesystem error: %s [\22%s\22]\00", align 1
@.str.38 = private unnamed_addr constant [35 x i8] c"filesystem error: %s [\22%s\22] [\22%s\22]\00", align 1
@.str.39 = private unnamed_addr constant [11 x i8] c"posix_stat\00", align 1
@.str.40 = private unnamed_addr constant [54 x i8] c"failed to determine attributes for the specified path\00", align 1
@.str.41 = private unnamed_addr constant [4 x i8] c"in \00", align 1
@.str.42 = private unnamed_addr constant [3 x i8] c": \00", align 1
@.str.43 = private unnamed_addr constant [68 x i8] c"allocator<T>::allocate(size_t n) 'n' exceeds maximum supported size\00", align 1
@_ZTISt12length_error = external constant i8*
@_ZTVSt12length_error = external unnamed_addr constant { [5 x i8*] }, align 8
@_ZTVNSt3__120__shared_ptr_emplaceINS_4__fs10filesystem16filesystem_error8_StorageENS_9allocatorIS4_EEEE = linkonce_odr hidden unnamed_addr constant { [7 x i8*] } { [7 x i8*] [i8* null, i8* bitcast ({ i8*, i8*, i8* }* @_ZTINSt3__120__shared_ptr_emplaceINS_4__fs10filesystem16filesystem_error8_StorageENS_9allocatorIS4_EEEE to i8*), i8* bitcast (void (%"struct.std::__1::__shared_ptr_emplace"*)* @_ZNSt3__120__shared_ptr_emplaceINS_4__fs10filesystem16filesystem_error8_StorageENS_9allocatorIS4_EEED2Ev to i8*), i8* bitcast (void (%"struct.std::__1::__shared_ptr_emplace"*)* @_ZNSt3__120__shared_ptr_emplaceINS_4__fs10filesystem16filesystem_error8_StorageENS_9allocatorIS4_EEED0Ev to i8*), i8* bitcast (void (%"struct.std::__1::__shared_ptr_emplace"*)* @_ZNSt3__120__shared_ptr_emplaceINS_4__fs10filesystem16filesystem_error8_StorageENS_9allocatorIS4_EEE16__on_zero_sharedEv to i8*), i8* bitcast (i8* (%"class.std::__1::__shared_weak_count"*, %"class.std::type_info"*)* @_ZNKSt3__119__shared_weak_count13__get_deleterERKSt9type_info to i8*), i8* bitcast (void (%"struct.std::__1::__shared_ptr_emplace"*)* @_ZNSt3__120__shared_ptr_emplaceINS_4__fs10filesystem16filesystem_error8_StorageENS_9allocatorIS4_EEE21__on_zero_shared_weakEv to i8*)] }, comdat, align 8
@_ZTSNSt3__120__shared_ptr_emplaceINS_4__fs10filesystem16filesystem_error8_StorageENS_9allocatorIS4_EEEE = linkonce_odr hidden constant [100 x i8] c"NSt3__120__shared_ptr_emplaceINS_4__fs10filesystem16filesystem_error8_StorageENS_9allocatorIS4_EEEE\00", comdat, align 1
@_ZTINSt3__119__shared_weak_countE = external constant i8*
@_ZTINSt3__120__shared_ptr_emplaceINS_4__fs10filesystem16filesystem_error8_StorageENS_9allocatorIS4_EEEE = linkonce_odr hidden constant { i8*, i8*, i8* } { i8* bitcast (i8** getelementptr inbounds (i8*, i8** @_ZTVN10__cxxabiv120__si_class_type_infoE, i64 2) to i8*), i8* getelementptr inbounds ([100 x i8], [100 x i8]* @_ZTSNSt3__120__shared_ptr_emplaceINS_4__fs10filesystem16filesystem_error8_StorageENS_9allocatorIS4_EEEE, i32 0, i32 0), i8* bitcast (i8** @_ZTINSt3__119__shared_weak_countE to i8*) }, comdat, align 8
@.str.44 = private unnamed_addr constant [2 x i8] c"\\\00", align 1
@.str.45 = private unnamed_addr constant [2 x i8] c"/\00", align 1
@.str.46 = private unnamed_addr constant [20 x i8] c"string_view::substr\00", align 1
@_ZTISt12out_of_range = external constant i8*
@_ZTVSt12out_of_range = external unnamed_addr constant { [5 x i8*] }, align 8
@switch.table._ZNSt3__14__fs10filesystem13__fs_is_emptyERKNS1_4pathEPNS_10error_codeE = private unnamed_addr constant [12 x i8] c"\06\05\08\02\08\04\08\01\08\03\08\07", align 1
@switch.table._ZNSt3__14__fs10filesystem6detail12_GLOBAL__N_114FileDescriptor14refresh_statusERNS_10error_codeE = private unnamed_addr constant [12 x i64] [i64 6, i64 5, i64 8, i64 2, i64 8, i64 4, i64 8, i64 1, i64 8, i64 3, i64 8, i64 7], align 8

@_ZNSt3__14__fs10filesystem16filesystem_errorD1Ev = unnamed_addr alias void (%"class.std::__1::__fs::filesystem::filesystem_error"*), void (%"class.std::__1::__fs::filesystem::filesystem_error"*)* @_ZNSt3__14__fs10filesystem16filesystem_errorD2Ev

; Function Attrs: nounwind uwtable
define { i64, i64 } @_ZNSt3__14__fs10filesystem16_FilesystemClock3nowEv() local_unnamed_addr #0 align 2 personality i8* bitcast (i32 (...)* @__gxx_personality_v0 to i8*) {
  %1 = alloca %struct.timespec, align 8
  %2 = bitcast %struct.timespec* %1 to i8*
  call void @llvm.lifetime.start.p0i8(i64 16, i8* nonnull %2) #13
  %3 = call i32 @clock_gettime(i32 0, %struct.timespec* nonnull %1) #13
  %4 = icmp eq i32 %3, 0
  br i1 %4, label %12, label %5

5:                                                ; preds = %0
  %6 = tail call i32* @__errno_location() #21
  %7 = load i32, i32* %6, align 4, !tbaa !4
  invoke void @_ZNSt3__120__throw_system_errorEiPKc(i32 %7, i8* getelementptr inbounds ([37 x i8], [37 x i8]* @.str, i64 0, i64 0)) #22
          to label %8 unwind label %9

8:                                                ; preds = %5
  unreachable

9:                                                ; preds = %5
  %10 = landingpad { i8*, i32 }
          catch i8* null
  %11 = extractvalue { i8*, i32 } %10, 0
  call void @llvm.lifetime.end.p0i8(i64 16, i8* nonnull %2) #13
  call void @__clang_call_terminate(i8* %11) #23
  unreachable

12:                                               ; preds = %0
  %13 = getelementptr inbounds %struct.timespec, %struct.timespec* %1, i64 0, i32 0
  %14 = load i64, i64* %13, align 8, !tbaa !8
  %15 = sext i64 %14 to i128
  %16 = getelementptr inbounds %struct.timespec, %struct.timespec* %1, i64 0, i32 1
  %17 = load i64, i64* %16, align 8, !tbaa !8
  %18 = ashr i64 %17, 63
  %19 = mul nsw i128 %15, 1000000000
  %20 = zext i64 %18 to i128
  %21 = shl nuw i128 %20, 64
  %22 = zext i64 %17 to i128
  %23 = or i128 %21, %22
  %24 = add nsw i128 %23, %19
  %25 = trunc i128 %24 to i64
  %26 = lshr i128 %24, 64
  %27 = trunc i128 %26 to i64
  %28 = insertvalue { i64, i64 } undef, i64 %25, 0
  %29 = insertvalue { i64, i64 } %28, i64 %27, 1
  call void @llvm.lifetime.end.p0i8(i64 16, i8* nonnull %2) #13
  ret { i64, i64 } %29
}

; Function Attrs: argmemonly nounwind willreturn
declare void @llvm.lifetime.start.p0i8(i64 immarg, i8* nocapture) #1

; Function Attrs: nounwind
declare i32 @clock_gettime(i32, %struct.timespec*) local_unnamed_addr #2

; Function Attrs: noreturn
declare void @_ZNSt3__120__throw_system_errorEiPKc(i32, i8*) local_unnamed_addr #3

; Function Attrs: nounwind readnone
declare i32* @__errno_location() local_unnamed_addr #4

declare i32 @__gxx_personality_v0(...)

; Function Attrs: argmemonly nounwind willreturn
declare void @llvm.lifetime.end.p0i8(i64 immarg, i8* nocapture) #1

; Function Attrs: noinline noreturn nounwind
define linkonce_odr hidden void @__clang_call_terminate(i8* %0) local_unnamed_addr #5 comdat {
  %2 = tail call i8* @__cxa_begin_catch(i8* %0) #13
  tail call void @_ZSt9terminatev() #23
  unreachable
}

declare i8* @__cxa_begin_catch(i8*) local_unnamed_addr

declare void @_ZSt9terminatev() local_unnamed_addr

; Function Attrs: nounwind uwtable
define void @_ZNSt3__14__fs10filesystem16filesystem_errorD2Ev(%"class.std::__1::__fs::filesystem::filesystem_error"* %0) unnamed_addr #0 align 2 {
  %2 = getelementptr %"class.std::__1::__fs::filesystem::filesystem_error", %"class.std::__1::__fs::filesystem::filesystem_error"* %0, i64 0, i32 0, i32 0, i32 0, i32 0
  store i32 (...)** bitcast (i8** getelementptr inbounds ({ [5 x i8*] }, { [5 x i8*] }* @_ZTVNSt3__14__fs10filesystem16filesystem_errorE, i64 0, inrange i32 0, i64 2) to i32 (...)**), i32 (...)*** %2, align 8, !tbaa !10
  %3 = getelementptr inbounds %"class.std::__1::__fs::filesystem::filesystem_error", %"class.std::__1::__fs::filesystem::filesystem_error"* %0, i64 0, i32 1, i32 1
  %4 = load %"class.std::__1::__shared_weak_count"*, %"class.std::__1::__shared_weak_count"** %3, align 8, !tbaa !12
  %5 = icmp eq %"class.std::__1::__shared_weak_count"* %4, null
  br i1 %5, label %7, label %6

6:                                                ; preds = %1
  tail call void @_ZNSt3__119__shared_weak_count16__release_sharedEv(%"class.std::__1::__shared_weak_count"* nonnull %4) #13
  br label %7

7:                                                ; preds = %1, %6
  %8 = getelementptr %"class.std::__1::__fs::filesystem::filesystem_error", %"class.std::__1::__fs::filesystem::filesystem_error"* %0, i64 0, i32 0
  tail call void @_ZNSt3__112system_errorD2Ev(%"class.std::__1::system_error"* %8) #13
  ret void
}

; Function Attrs: nounwind
declare void @_ZNSt3__112system_errorD2Ev(%"class.std::__1::system_error"*) unnamed_addr #2

; Function Attrs: nounwind uwtable
define void @_ZNSt3__14__fs10filesystem16filesystem_errorD0Ev(%"class.std::__1::__fs::filesystem::filesystem_error"* %0) unnamed_addr #0 align 2 {
  %2 = getelementptr %"class.std::__1::__fs::filesystem::filesystem_error", %"class.std::__1::__fs::filesystem::filesystem_error"* %0, i64 0, i32 0, i32 0, i32 0, i32 0
  store i32 (...)** bitcast (i8** getelementptr inbounds ({ [5 x i8*] }, { [5 x i8*] }* @_ZTVNSt3__14__fs10filesystem16filesystem_errorE, i64 0, inrange i32 0, i64 2) to i32 (...)**), i32 (...)*** %2, align 8, !tbaa !10
  %3 = getelementptr inbounds %"class.std::__1::__fs::filesystem::filesystem_error", %"class.std::__1::__fs::filesystem::filesystem_error"* %0, i64 0, i32 1, i32 1
  %4 = load %"class.std::__1::__shared_weak_count"*, %"class.std::__1::__shared_weak_count"** %3, align 8, !tbaa !12
  %5 = icmp eq %"class.std::__1::__shared_weak_count"* %4, null
  br i1 %5, label %7, label %6

6:                                                ; preds = %1
  tail call void @_ZNSt3__119__shared_weak_count16__release_sharedEv(%"class.std::__1::__shared_weak_count"* nonnull %4) #13
  br label %7

7:                                                ; preds = %1, %6
  %8 = getelementptr %"class.std::__1::__fs::filesystem::filesystem_error", %"class.std::__1::__fs::filesystem::filesystem_error"* %0, i64 0, i32 0
  tail call void @_ZNSt3__112system_errorD2Ev(%"class.std::__1::system_error"* %8) #13
  %9 = bitcast %"class.std::__1::__fs::filesystem::filesystem_error"* %0 to i8*
  tail call void @_ZdlPv(i8* %9) #24
  ret void
}

; Function Attrs: nobuiltin nounwind
declare void @_ZdlPv(i8*) local_unnamed_addr #6

; Function Attrs: uwtable
define void @_ZNSt3__14__fs10filesystem16filesystem_error13__create_whatEi(%"class.std::__1::__fs::filesystem::filesystem_error"* %0, i32 %1) local_unnamed_addr #7 align 2 personality i32 (...)* @__gxx_personality_v0 {
  %3 = alloca %"class.std::__1::basic_string", align 8
  %4 = getelementptr %"class.std::__1::__fs::filesystem::filesystem_error", %"class.std::__1::__fs::filesystem::filesystem_error"* %0, i64 0, i32 0, i32 0
  %5 = tail call i8* @_ZNKSt13runtime_error4whatEv(%"class.std::runtime_error"* %4) #13
  %6 = bitcast %"class.std::__1::basic_string"* %3 to i8*
  call void @llvm.lifetime.start.p0i8(i64 24, i8* nonnull %6) #13
  switch i32 %1, label %51 [
    i32 0, label %7
    i32 1, label %8
    i32 2, label %23
  ]

7:                                                ; preds = %2
  call void (%"class.std::__1::basic_string"*, i8*, ...) @_ZNSt3__14__fs10filesystem6detail12_GLOBAL__N_113format_stringEPKcz(%"class.std::__1::basic_string"* nonnull sret align 8 %3, i8* getelementptr inbounds ([21 x i8], [21 x i8]* @.str.36, i64 0, i64 0), i8* %5)
  br label %52

8:                                                ; preds = %2
  %9 = getelementptr inbounds %"class.std::__1::__fs::filesystem::filesystem_error", %"class.std::__1::__fs::filesystem::filesystem_error"* %0, i64 0, i32 1, i32 0
  %10 = load %"struct.std::__1::__fs::filesystem::filesystem_error::_Storage"*, %"struct.std::__1::__fs::filesystem::filesystem_error::_Storage"** %9, align 8, !tbaa !15, !noalias !16
  %11 = bitcast %"struct.std::__1::__fs::filesystem::filesystem_error::_Storage"* %10 to i8*
  %12 = load i8, i8* %11, align 8, !tbaa !19, !noalias !16
  %13 = and i8 %12, 1
  %14 = icmp eq i8 %13, 0
  br i1 %14, label %18, label %15

15:                                               ; preds = %8
  %16 = getelementptr inbounds %"struct.std::__1::__fs::filesystem::filesystem_error::_Storage", %"struct.std::__1::__fs::filesystem::filesystem_error::_Storage"* %10, i64 0, i32 0, i32 0, i32 0, i32 0, i32 0, i32 0, i32 0, i32 2
  %17 = load i8*, i8** %16, align 8, !tbaa !19, !noalias !16
  br label %21

18:                                               ; preds = %8
  %19 = bitcast %"struct.std::__1::__fs::filesystem::filesystem_error::_Storage"* %10 to %"struct.std::__1::basic_string<char, std::__1::char_traits<char>, std::__1::allocator<char>>::__short"*
  %20 = getelementptr inbounds %"struct.std::__1::basic_string<char, std::__1::char_traits<char>, std::__1::allocator<char>>::__short", %"struct.std::__1::basic_string<char, std::__1::char_traits<char>, std::__1::allocator<char>>::__short"* %19, i64 0, i32 1, i64 0
  br label %21

21:                                               ; preds = %18, %15
  %22 = phi i8* [ %17, %15 ], [ %20, %18 ]
  call void (%"class.std::__1::basic_string"*, i8*, ...) @_ZNSt3__14__fs10filesystem6detail12_GLOBAL__N_113format_stringEPKcz(%"class.std::__1::basic_string"* nonnull sret align 8 %3, i8* getelementptr inbounds ([28 x i8], [28 x i8]* @.str.37, i64 0, i64 0), i8* %5, i8* %22)
  br label %52

23:                                               ; preds = %2
  %24 = getelementptr inbounds %"class.std::__1::__fs::filesystem::filesystem_error", %"class.std::__1::__fs::filesystem::filesystem_error"* %0, i64 0, i32 1, i32 0
  %25 = load %"struct.std::__1::__fs::filesystem::filesystem_error::_Storage"*, %"struct.std::__1::__fs::filesystem::filesystem_error::_Storage"** %24, align 8, !tbaa !15, !noalias !16
  %26 = bitcast %"struct.std::__1::__fs::filesystem::filesystem_error::_Storage"* %25 to i8*
  %27 = load i8, i8* %26, align 8, !tbaa !19, !noalias !16
  %28 = and i8 %27, 1
  %29 = icmp eq i8 %28, 0
  br i1 %29, label %33, label %30

30:                                               ; preds = %23
  %31 = getelementptr inbounds %"struct.std::__1::__fs::filesystem::filesystem_error::_Storage", %"struct.std::__1::__fs::filesystem::filesystem_error::_Storage"* %25, i64 0, i32 0, i32 0, i32 0, i32 0, i32 0, i32 0, i32 0, i32 2
  %32 = load i8*, i8** %31, align 8, !tbaa !19, !noalias !16
  br label %36

33:                                               ; preds = %23
  %34 = bitcast %"struct.std::__1::__fs::filesystem::filesystem_error::_Storage"* %25 to %"struct.std::__1::basic_string<char, std::__1::char_traits<char>, std::__1::allocator<char>>::__short"*
  %35 = getelementptr inbounds %"struct.std::__1::basic_string<char, std::__1::char_traits<char>, std::__1::allocator<char>>::__short", %"struct.std::__1::basic_string<char, std::__1::char_traits<char>, std::__1::allocator<char>>::__short"* %34, i64 0, i32 1, i64 0
  br label %36

36:                                               ; preds = %33, %30
  %37 = phi i8* [ %32, %30 ], [ %35, %33 ]
  %38 = getelementptr inbounds %"struct.std::__1::__fs::filesystem::filesystem_error::_Storage", %"struct.std::__1::__fs::filesystem::filesystem_error::_Storage"* %25, i64 0, i32 1
  %39 = bitcast %"class.std::__1::__fs::filesystem::path"* %38 to i8*
  %40 = load i8, i8* %39, align 8, !tbaa !19, !noalias !16
  %41 = and i8 %40, 1
  %42 = icmp eq i8 %41, 0
  br i1 %42, label %46, label %43

43:                                               ; preds = %36
  %44 = getelementptr inbounds %"struct.std::__1::__fs::filesystem::filesystem_error::_Storage", %"struct.std::__1::__fs::filesystem::filesystem_error::_Storage"* %25, i64 0, i32 1, i32 0, i32 0, i32 0, i32 0, i32 0, i32 0, i32 2
  %45 = load i8*, i8** %44, align 8, !tbaa !19, !noalias !16
  br label %49

46:                                               ; preds = %36
  %47 = bitcast %"class.std::__1::__fs::filesystem::path"* %38 to %"struct.std::__1::basic_string<char, std::__1::char_traits<char>, std::__1::allocator<char>>::__short"*
  %48 = getelementptr inbounds %"struct.std::__1::basic_string<char, std::__1::char_traits<char>, std::__1::allocator<char>>::__short", %"struct.std::__1::basic_string<char, std::__1::char_traits<char>, std::__1::allocator<char>>::__short"* %47, i64 0, i32 1, i64 0
  br label %49

49:                                               ; preds = %46, %43
  %50 = phi i8* [ %45, %43 ], [ %48, %46 ]
  call void (%"class.std::__1::basic_string"*, i8*, ...) @_ZNSt3__14__fs10filesystem6detail12_GLOBAL__N_113format_stringEPKcz(%"class.std::__1::basic_string"* nonnull sret align 8 %3, i8* getelementptr inbounds ([35 x i8], [35 x i8]* @.str.38, i64 0, i64 0), i8* %5, i8* %37, i8* %50)
  br label %52

51:                                               ; preds = %2
  unreachable

52:                                               ; preds = %7, %21, %49
  %53 = getelementptr inbounds %"class.std::__1::__fs::filesystem::filesystem_error", %"class.std::__1::__fs::filesystem::filesystem_error"* %0, i64 0, i32 1, i32 0
  %54 = load %"struct.std::__1::__fs::filesystem::filesystem_error::_Storage"*, %"struct.std::__1::__fs::filesystem::filesystem_error::_Storage"** %53, align 8, !tbaa !15
  %55 = getelementptr inbounds %"struct.std::__1::__fs::filesystem::filesystem_error::_Storage", %"struct.std::__1::__fs::filesystem::filesystem_error::_Storage"* %54, i64 0, i32 2
  %56 = bitcast %"class.std::__1::basic_string"* %55 to i8*
  %57 = load i8, i8* %56, align 8, !tbaa !19
  %58 = and i8 %57, 1
  %59 = icmp eq i8 %58, 0
  br i1 %59, label %63, label %60

60:                                               ; preds = %52
  %61 = getelementptr inbounds %"struct.std::__1::__fs::filesystem::filesystem_error::_Storage", %"struct.std::__1::__fs::filesystem::filesystem_error::_Storage"* %54, i64 0, i32 2, i32 0, i32 0, i32 0, i32 0, i32 0, i32 2
  %62 = load i8*, i8** %61, align 8, !tbaa !19
  tail call void @_ZdlPv(i8* %62) #24
  br label %63

63:                                               ; preds = %60, %52
  call void @llvm.memcpy.p0i8.p0i8.i64(i8* nonnull align 8 dereferenceable(24) %56, i8* nonnull align 8 dereferenceable(24) %6, i64 24, i1 false) #13, !tbaa.struct !20
  call void @llvm.lifetime.end.p0i8(i64 24, i8* nonnull %6) #13
  ret void
}

; Function Attrs: nounwind
declare i8* @_ZNKSt13runtime_error4whatEv(%"class.std::runtime_error"*) unnamed_addr #2

; Function Attrs: uwtable
define void @_ZNSt3__14__fs10filesystem10__absoluteERKNS1_4pathEPNS_10error_codeE(%"class.std::__1::__fs::filesystem::path"* noalias sret align 8 %0, %"class.std::__1::__fs::filesystem::path"* nonnull align 8 dereferenceable(24) %1, %"class.std::__1::error_code"* %2) local_unnamed_addr #7 personality i8* bitcast (i32 (...)* @__gxx_personality_v0 to i8*) {
  %4 = alloca %"class.std::__1::__fs::filesystem::path", align 8
  %5 = bitcast %"class.std::__1::__fs::filesystem::path"* %4 to i8*
  call void @llvm.lifetime.start.p0i8(i64 24, i8* nonnull %5) #13
  call void @llvm.memset.p0i8.i64(i8* nonnull align 8 dereferenceable(24) %5, i8 0, i64 24, i1 false) #13
  invoke fastcc void @_ZNSt3__14__fs10filesystemL13__do_absoluteERKNS1_4pathEPS2_PNS_10error_codeE(%"class.std::__1::__fs::filesystem::path"* noalias align 8 %0, %"class.std::__1::__fs::filesystem::path"* nonnull align 8 dereferenceable(24) %1, %"class.std::__1::__fs::filesystem::path"* nonnull %4, %"class.std::__1::error_code"* %2)
          to label %6 unwind label %14

6:                                                ; preds = %3
  %7 = load i8, i8* %5, align 8, !tbaa !19
  %8 = and i8 %7, 1
  %9 = icmp eq i8 %8, 0
  br i1 %9, label %13, label %10

10:                                               ; preds = %6
  %11 = getelementptr inbounds %"class.std::__1::__fs::filesystem::path", %"class.std::__1::__fs::filesystem::path"* %4, i64 0, i32 0, i32 0, i32 0, i32 0, i32 0, i32 0, i32 2
  %12 = load i8*, i8** %11, align 8, !tbaa !19
  call void @_ZdlPv(i8* %12) #24
  br label %13

13:                                               ; preds = %6, %10
  call void @llvm.lifetime.end.p0i8(i64 24, i8* nonnull %5) #13
  ret void

14:                                               ; preds = %3
  %15 = landingpad { i8*, i32 }
          cleanup
  %16 = load i8, i8* %5, align 8, !tbaa !19
  %17 = and i8 %16, 1
  %18 = icmp eq i8 %17, 0
  br i1 %18, label %22, label %19

19:                                               ; preds = %14
  %20 = getelementptr inbounds %"class.std::__1::__fs::filesystem::path", %"class.std::__1::__fs::filesystem::path"* %4, i64 0, i32 0, i32 0, i32 0, i32 0, i32 0, i32 0, i32 2
  %21 = load i8*, i8** %20, align 8, !tbaa !19
  call void @_ZdlPv(i8* %21) #24
  br label %22

22:                                               ; preds = %14, %19
  call void @llvm.lifetime.end.p0i8(i64 24, i8* nonnull %5) #13
  resume { i8*, i32 } %15
}

; Function Attrs: uwtable
define internal fastcc void @_ZNSt3__14__fs10filesystemL13__do_absoluteERKNS1_4pathEPS2_PNS_10error_codeE(%"class.std::__1::__fs::filesystem::path"* noalias align 8 %0, %"class.std::__1::__fs::filesystem::path"* nonnull align 8 dereferenceable(24) %1, %"class.std::__1::__fs::filesystem::path"* %2, %"class.std::__1::error_code"* %3) unnamed_addr #7 personality i32 (...)* @__gxx_personality_v0 {
  %5 = alloca %"struct.std::__1::__fs::filesystem::(anonymous namespace)::parser::PathParser", align 8
  %6 = alloca %"class.std::__1::__fs::filesystem::path", align 8
  %7 = icmp eq %"class.std::__1::error_code"* %3, null
  br i1 %7, label %12, label %8

8:                                                ; preds = %4
  %9 = getelementptr inbounds %"class.std::__1::error_code", %"class.std::__1::error_code"* %3, i64 0, i32 0
  store i32 0, i32* %9, align 8, !tbaa !22
  %10 = tail call nonnull align 8 dereferenceable(8) %"class.std::__1::error_category"* @_ZNSt3__115system_categoryEv() #13
  %11 = getelementptr inbounds %"class.std::__1::error_code", %"class.std::__1::error_code"* %3, i64 0, i32 1
  store %"class.std::__1::error_category"* %10, %"class.std::__1::error_category"** %11, align 8, !tbaa !24
  br label %12

12:                                               ; preds = %4, %8
  %13 = bitcast %"struct.std::__1::__fs::filesystem::(anonymous namespace)::parser::PathParser"* %5 to i8*
  call void @llvm.lifetime.start.p0i8(i64 40, i8* nonnull %13) #13
  %14 = bitcast %"class.std::__1::__fs::filesystem::path"* %1 to i8*
  %15 = load i8, i8* %14, align 8, !tbaa !19
  %16 = and i8 %15, 1
  %17 = icmp eq i8 %16, 0
  %18 = getelementptr inbounds %"class.std::__1::__fs::filesystem::path", %"class.std::__1::__fs::filesystem::path"* %1, i64 0, i32 0, i32 0, i32 0, i32 0, i32 0, i32 0, i32 2
  %19 = load i8*, i8** %18, align 8
  %20 = getelementptr inbounds %"class.std::__1::__fs::filesystem::path", %"class.std::__1::__fs::filesystem::path"* %1, i64 0, i32 0, i32 0, i32 0, i32 0, i32 0, i32 0, i32 1
  %21 = load i64, i64* %20, align 8
  %22 = bitcast %"class.std::__1::__fs::filesystem::path"* %1 to %"struct.std::__1::basic_string<char, std::__1::char_traits<char>, std::__1::allocator<char>>::__short"*
  %23 = getelementptr inbounds %"struct.std::__1::basic_string<char, std::__1::char_traits<char>, std::__1::allocator<char>>::__short", %"struct.std::__1::basic_string<char, std::__1::char_traits<char>, std::__1::allocator<char>>::__short"* %22, i64 0, i32 1, i64 0
  %24 = lshr i8 %15, 1
  %25 = zext i8 %24 to i64
  %26 = select i1 %17, i8* %23, i8* %19
  %27 = select i1 %17, i64 %25, i64 %21
  %28 = getelementptr inbounds %"struct.std::__1::__fs::filesystem::(anonymous namespace)::parser::PathParser", %"struct.std::__1::__fs::filesystem::(anonymous namespace)::parser::PathParser"* %5, i64 0, i32 0, i32 0
  store i8* %26, i8** %28, align 8, !tbaa.struct !25, !alias.scope !26
  %29 = getelementptr inbounds %"struct.std::__1::__fs::filesystem::(anonymous namespace)::parser::PathParser", %"struct.std::__1::__fs::filesystem::(anonymous namespace)::parser::PathParser"* %5, i64 0, i32 0, i32 1
  store i64 %27, i64* %29, align 8, !tbaa.struct !25, !alias.scope !26
  %30 = getelementptr inbounds %"struct.std::__1::__fs::filesystem::(anonymous namespace)::parser::PathParser", %"struct.std::__1::__fs::filesystem::(anonymous namespace)::parser::PathParser"* %5, i64 0, i32 1
  %31 = bitcast %"class.std::__1::basic_string_view"* %30 to i8*
  call void @llvm.memset.p0i8.i64(i8* nonnull align 8 dereferenceable(16) %31, i8 0, i64 16, i1 false) #13, !alias.scope !26
  %32 = getelementptr inbounds %"struct.std::__1::__fs::filesystem::(anonymous namespace)::parser::PathParser", %"struct.std::__1::__fs::filesystem::(anonymous namespace)::parser::PathParser"* %5, i64 0, i32 2
  store i8 1, i8* %32, align 8, !tbaa !29, !alias.scope !26
  call fastcc void @_ZNSt3__14__fs10filesystem12_GLOBAL__N_16parser10PathParser9incrementEv(%"struct.std::__1::__fs::filesystem::(anonymous namespace)::parser::PathParser"* nonnull %5) #13
  %33 = load i8, i8* %32, align 8, !tbaa !29
  %34 = icmp eq i8 %33, 2
  br i1 %34, label %35, label %37

35:                                               ; preds = %12
  call fastcc void @_ZNSt3__14__fs10filesystem12_GLOBAL__N_16parser10PathParser9incrementEv(%"struct.std::__1::__fs::filesystem::(anonymous namespace)::parser::PathParser"* nonnull %5) #13
  %36 = load i8, i8* %32, align 8, !tbaa !29
  br label %37

37:                                               ; preds = %12, %35
  %38 = phi i8 [ %36, %35 ], [ %33, %12 ]
  %39 = icmp eq i8 %38, 3
  call void @llvm.lifetime.end.p0i8(i64 40, i8* nonnull %13) #13
  br i1 %39, label %40, label %43

40:                                               ; preds = %37
  %41 = getelementptr inbounds %"class.std::__1::__fs::filesystem::path", %"class.std::__1::__fs::filesystem::path"* %0, i64 0, i32 0
  %42 = getelementptr inbounds %"class.std::__1::__fs::filesystem::path", %"class.std::__1::__fs::filesystem::path"* %1, i64 0, i32 0
  call void @_ZNSt3__112basic_stringIcNS_11char_traitsIcEENS_9allocatorIcEEEC1ERKS5_(%"class.std::__1::basic_string"* %41, %"class.std::__1::basic_string"* nonnull align 8 dereferenceable(24) %42)
  br label %73

43:                                               ; preds = %37
  %44 = bitcast %"class.std::__1::__fs::filesystem::path"* %6 to i8*
  call void @llvm.lifetime.start.p0i8(i64 24, i8* nonnull %44) #13
  call void @_ZNSt3__14__fs10filesystem14__current_pathEPNS_10error_codeE(%"class.std::__1::__fs::filesystem::path"* nonnull sret align 8 %6, %"class.std::__1::error_code"* %3)
  %45 = bitcast %"class.std::__1::__fs::filesystem::path"* %2 to i8*
  %46 = load i8, i8* %45, align 8, !tbaa !19
  %47 = and i8 %46, 1
  %48 = icmp eq i8 %47, 0
  br i1 %48, label %52, label %49

49:                                               ; preds = %43
  %50 = getelementptr inbounds %"class.std::__1::__fs::filesystem::path", %"class.std::__1::__fs::filesystem::path"* %2, i64 0, i32 0, i32 0, i32 0, i32 0, i32 0, i32 0, i32 2
  %51 = load i8*, i8** %50, align 8, !tbaa !19
  call void @_ZdlPv(i8* %51) #24
  br label %52

52:                                               ; preds = %49, %43
  call void @llvm.memcpy.p0i8.p0i8.i64(i8* nonnull align 8 dereferenceable(24) %45, i8* nonnull align 8 dereferenceable(24) %44, i64 24, i1 false) #13, !tbaa.struct !20
  call void @llvm.lifetime.end.p0i8(i64 24, i8* nonnull %44) #13
  br i1 %7, label %59, label %53

53:                                               ; preds = %52
  %54 = getelementptr inbounds %"class.std::__1::error_code", %"class.std::__1::error_code"* %3, i64 0, i32 0
  %55 = load i32, i32* %54, align 8, !tbaa !22
  %56 = icmp eq i32 %55, 0
  br i1 %56, label %59, label %57

57:                                               ; preds = %53
  %58 = bitcast %"class.std::__1::__fs::filesystem::path"* %0 to i8*
  call void @llvm.memset.p0i8.i64(i8* nonnull align 8 dereferenceable(24) %58, i8 0, i64 24, i1 false) #13
  br label %73

59:                                               ; preds = %53, %52
  %60 = getelementptr inbounds %"class.std::__1::__fs::filesystem::path", %"class.std::__1::__fs::filesystem::path"* %0, i64 0, i32 0
  %61 = getelementptr inbounds %"class.std::__1::__fs::filesystem::path", %"class.std::__1::__fs::filesystem::path"* %2, i64 0, i32 0
  call void @_ZNSt3__112basic_stringIcNS_11char_traitsIcEENS_9allocatorIcEEEC1ERKS5_(%"class.std::__1::basic_string"* %60, %"class.std::__1::basic_string"* nonnull align 8 dereferenceable(24) %61)
  %62 = invoke nonnull align 8 dereferenceable(24) %"class.std::__1::__fs::filesystem::path"* @_ZNSt3__14__fs10filesystem4pathdVERKS2_(%"class.std::__1::__fs::filesystem::path"* %0, %"class.std::__1::__fs::filesystem::path"* nonnull align 8 dereferenceable(24) %1)
          to label %73 unwind label %63

63:                                               ; preds = %59
  %64 = landingpad { i8*, i32 }
          cleanup
  %65 = bitcast %"class.std::__1::__fs::filesystem::path"* %0 to i8*
  %66 = load i8, i8* %65, align 8, !tbaa !19, !alias.scope !32
  %67 = and i8 %66, 1
  %68 = icmp eq i8 %67, 0
  br i1 %68, label %72, label %69

69:                                               ; preds = %63
  %70 = getelementptr inbounds %"class.std::__1::__fs::filesystem::path", %"class.std::__1::__fs::filesystem::path"* %0, i64 0, i32 0, i32 0, i32 0, i32 0, i32 0, i32 0, i32 2
  %71 = load i8*, i8** %70, align 8, !tbaa !19, !alias.scope !32
  call void @_ZdlPv(i8* %71) #24
  br label %72

72:                                               ; preds = %69, %63
  resume { i8*, i32 } %64

73:                                               ; preds = %59, %57, %40
  ret void
}

; Function Attrs: uwtable
define void @_ZNSt3__14__fs10filesystem11__canonicalERKNS1_4pathEPNS_10error_codeE(%"class.std::__1::__fs::filesystem::path"* noalias sret align 8 %0, %"class.std::__1::__fs::filesystem::path"* nonnull align 8 dereferenceable(24) %1, %"class.std::__1::error_code"* %2) local_unnamed_addr #7 personality i8* bitcast (i32 (...)* @__gxx_personality_v0 to i8*) {
  %4 = alloca %"class.std::__1::__fs::filesystem::path", align 8
  %5 = alloca %"struct.std::__1::__fs::filesystem::detail::(anonymous namespace)::ErrorHandler", align 8
  %6 = alloca %"class.std::__1::__fs::filesystem::path", align 8
  %7 = alloca %"class.std::__1::error_code", align 8
  %8 = bitcast %"class.std::__1::__fs::filesystem::path"* %4 to i8*
  call void @llvm.lifetime.start.p0i8(i64 24, i8* nonnull %8) #13
  call void @llvm.memset.p0i8.i64(i8* nonnull align 8 dereferenceable(24) %8, i8 0, i64 24, i1 false) #13
  %9 = bitcast %"struct.std::__1::__fs::filesystem::detail::(anonymous namespace)::ErrorHandler"* %5 to i8*
  call void @llvm.lifetime.start.p0i8(i64 32, i8* nonnull %9) #13
  %10 = getelementptr inbounds %"struct.std::__1::__fs::filesystem::detail::(anonymous namespace)::ErrorHandler", %"struct.std::__1::__fs::filesystem::detail::(anonymous namespace)::ErrorHandler"* %5, i64 0, i32 0
  store i8* getelementptr inbounds ([10 x i8], [10 x i8]* @.str.1, i64 0, i64 0), i8** %10, align 8, !tbaa !35
  %11 = getelementptr inbounds %"struct.std::__1::__fs::filesystem::detail::(anonymous namespace)::ErrorHandler", %"struct.std::__1::__fs::filesystem::detail::(anonymous namespace)::ErrorHandler"* %5, i64 0, i32 1
  store %"class.std::__1::error_code"* %2, %"class.std::__1::error_code"** %11, align 8, !tbaa !37
  %12 = getelementptr inbounds %"struct.std::__1::__fs::filesystem::detail::(anonymous namespace)::ErrorHandler", %"struct.std::__1::__fs::filesystem::detail::(anonymous namespace)::ErrorHandler"* %5, i64 0, i32 2
  store %"class.std::__1::__fs::filesystem::path"* %1, %"class.std::__1::__fs::filesystem::path"** %12, align 8, !tbaa !38
  %13 = getelementptr inbounds %"struct.std::__1::__fs::filesystem::detail::(anonymous namespace)::ErrorHandler", %"struct.std::__1::__fs::filesystem::detail::(anonymous namespace)::ErrorHandler"* %5, i64 0, i32 3
  store %"class.std::__1::__fs::filesystem::path"* %4, %"class.std::__1::__fs::filesystem::path"** %13, align 8, !tbaa !39
  %14 = icmp eq %"class.std::__1::error_code"* %2, null
  br i1 %14, label %19, label %15

15:                                               ; preds = %3
  %16 = getelementptr inbounds %"class.std::__1::error_code", %"class.std::__1::error_code"* %2, i64 0, i32 0
  store i32 0, i32* %16, align 8, !tbaa !22
  %17 = call nonnull align 8 dereferenceable(8) %"class.std::__1::error_category"* @_ZNSt3__115system_categoryEv() #13
  %18 = getelementptr inbounds %"class.std::__1::error_code", %"class.std::__1::error_code"* %2, i64 0, i32 1
  store %"class.std::__1::error_category"* %17, %"class.std::__1::error_category"** %18, align 8, !tbaa !24
  br label %19

19:                                               ; preds = %3, %15
  %20 = bitcast %"class.std::__1::__fs::filesystem::path"* %6 to i8*
  call void @llvm.lifetime.start.p0i8(i64 24, i8* nonnull %20) #13
  invoke fastcc void @_ZNSt3__14__fs10filesystemL13__do_absoluteERKNS1_4pathEPS2_PNS_10error_codeE(%"class.std::__1::__fs::filesystem::path"* noalias nonnull align 8 %6, %"class.std::__1::__fs::filesystem::path"* nonnull align 8 dereferenceable(24) %1, %"class.std::__1::__fs::filesystem::path"* nonnull %4, %"class.std::__1::error_code"* %2)
          to label %21 unwind label %40

21:                                               ; preds = %19
  %22 = load i8, i8* %20, align 8, !tbaa !19
  %23 = and i8 %22, 1
  %24 = icmp eq i8 %23, 0
  %25 = getelementptr inbounds %"class.std::__1::__fs::filesystem::path", %"class.std::__1::__fs::filesystem::path"* %6, i64 0, i32 0, i32 0, i32 0, i32 0, i32 0, i32 0, i32 2
  %26 = load i8*, i8** %25, align 8
  %27 = bitcast %"class.std::__1::__fs::filesystem::path"* %6 to %"struct.std::__1::basic_string<char, std::__1::char_traits<char>, std::__1::allocator<char>>::__short"*
  %28 = getelementptr inbounds %"struct.std::__1::basic_string<char, std::__1::char_traits<char>, std::__1::allocator<char>>::__short", %"struct.std::__1::basic_string<char, std::__1::char_traits<char>, std::__1::allocator<char>>::__short"* %27, i64 0, i32 1, i64 0
  %29 = select i1 %24, i8* %28, i8* %26
  %30 = call i8* @realpath(i8* %29, i8* null) #13
  %31 = icmp eq i8* %30, null
  br i1 %31, label %32, label %48

32:                                               ; preds = %21
  %33 = bitcast %"class.std::__1::error_code"* %7 to i8*
  call void @llvm.lifetime.start.p0i8(i64 16, i8* nonnull %33) #13
  %34 = tail call i32* @__errno_location() #21
  %35 = load i32, i32* %34, align 4, !tbaa !4
  %36 = call nonnull align 8 dereferenceable(8) %"class.std::__1::error_category"* @_ZNSt3__116generic_categoryEv() #13
  %37 = getelementptr inbounds %"class.std::__1::error_code", %"class.std::__1::error_code"* %7, i64 0, i32 0
  store i32 %35, i32* %37, align 8
  %38 = getelementptr inbounds %"class.std::__1::error_code", %"class.std::__1::error_code"* %7, i64 0, i32 1
  store %"class.std::__1::error_category"* %36, %"class.std::__1::error_category"** %38, align 8
  invoke fastcc void @_ZNKSt3__14__fs10filesystem6detail12_GLOBAL__N_112ErrorHandlerINS1_4pathEE6reportERKNS_10error_codeE(%"class.std::__1::__fs::filesystem::path"* noalias align 8 %0, %"struct.std::__1::__fs::filesystem::detail::(anonymous namespace)::ErrorHandler"* nonnull %5, %"class.std::__1::error_code"* nonnull align 8 dereferenceable(16) %7)
          to label %39 unwind label %44

39:                                               ; preds = %32
  call void @llvm.lifetime.end.p0i8(i64 16, i8* nonnull %33) #13
  br label %67

40:                                               ; preds = %19
  %41 = landingpad { i8*, i32 }
          cleanup
  %42 = extractvalue { i8*, i32 } %41, 0
  %43 = extractvalue { i8*, i32 } %41, 1
  br label %92

44:                                               ; preds = %32
  %45 = landingpad { i8*, i32 }
          cleanup
  %46 = extractvalue { i8*, i32 } %45, 0
  %47 = extractvalue { i8*, i32 } %45, 1
  call void @llvm.lifetime.end.p0i8(i64 16, i8* nonnull %33) #13
  br label %84

48:                                               ; preds = %21
  %49 = bitcast %"class.std::__1::__fs::filesystem::path"* %0 to i8*
  call void @llvm.memset.p0i8.i64(i8* nonnull align 8 dereferenceable(24) %49, i8 0, i64 24, i1 false) #13
  br label %50

50:                                               ; preds = %50, %48
  %51 = phi i8* [ %30, %48 ], [ %54, %50 ]
  %52 = load i8, i8* %51, align 1, !tbaa !19
  %53 = icmp eq i8 %52, 0
  %54 = getelementptr inbounds i8, i8* %51, i64 1
  br i1 %53, label %55, label %50

55:                                               ; preds = %50
  %56 = getelementptr inbounds %"class.std::__1::__fs::filesystem::path", %"class.std::__1::__fs::filesystem::path"* %0, i64 0, i32 0
  %57 = invoke nonnull align 8 dereferenceable(24) %"class.std::__1::basic_string"* @_ZNSt3__112basic_stringIcNS_11char_traitsIcEENS_9allocatorIcEEE6appendIPKcEENS_9_MetaBaseIXsr27__is_cpp17_forward_iteratorIT_EE5valueEE13_EnableIfImplIRS5_EESA_SA_(%"class.std::__1::basic_string"* nonnull %56, i8* nonnull %30, i8* nonnull %51)
          to label %66 unwind label %58

58:                                               ; preds = %55
  %59 = landingpad { i8*, i32 }
          cleanup
  %60 = load i8, i8* %49, align 8, !tbaa !19
  %61 = and i8 %60, 1
  %62 = icmp eq i8 %61, 0
  br i1 %62, label %81, label %63

63:                                               ; preds = %58
  %64 = getelementptr inbounds %"class.std::__1::__fs::filesystem::path", %"class.std::__1::__fs::filesystem::path"* %0, i64 0, i32 0, i32 0, i32 0, i32 0, i32 0, i32 0, i32 2
  %65 = load i8*, i8** %64, align 8, !tbaa !19
  call void @_ZdlPv(i8* %65) #24
  br label %81

66:                                               ; preds = %55
  call void @free(i8* nonnull %30) #13
  br label %67

67:                                               ; preds = %39, %66
  %68 = load i8, i8* %20, align 8, !tbaa !19
  %69 = and i8 %68, 1
  %70 = icmp eq i8 %69, 0
  br i1 %70, label %73, label %71

71:                                               ; preds = %67
  %72 = load i8*, i8** %25, align 8, !tbaa !19
  call void @_ZdlPv(i8* %72) #24
  br label %73

73:                                               ; preds = %67, %71
  call void @llvm.lifetime.end.p0i8(i64 24, i8* nonnull %20) #13
  call void @llvm.lifetime.end.p0i8(i64 32, i8* nonnull %9) #13
  %74 = load i8, i8* %8, align 8, !tbaa !19
  %75 = and i8 %74, 1
  %76 = icmp eq i8 %75, 0
  br i1 %76, label %80, label %77

77:                                               ; preds = %73
  %78 = getelementptr inbounds %"class.std::__1::__fs::filesystem::path", %"class.std::__1::__fs::filesystem::path"* %4, i64 0, i32 0, i32 0, i32 0, i32 0, i32 0, i32 0, i32 2
  %79 = load i8*, i8** %78, align 8, !tbaa !19
  call void @_ZdlPv(i8* %79) #24
  br label %80

80:                                               ; preds = %73, %77
  call void @llvm.lifetime.end.p0i8(i64 24, i8* nonnull %8) #13
  ret void

81:                                               ; preds = %58, %63
  %82 = extractvalue { i8*, i32 } %59, 1
  %83 = extractvalue { i8*, i32 } %59, 0
  call void @free(i8* nonnull %30) #13
  br label %84

84:                                               ; preds = %44, %81
  %85 = phi i32 [ %47, %44 ], [ %82, %81 ]
  %86 = phi i8* [ %46, %44 ], [ %83, %81 ]
  %87 = load i8, i8* %20, align 8, !tbaa !19
  %88 = and i8 %87, 1
  %89 = icmp eq i8 %88, 0
  br i1 %89, label %92, label %90

90:                                               ; preds = %84
  %91 = load i8*, i8** %25, align 8, !tbaa !19
  call void @_ZdlPv(i8* %91) #24
  br label %92

92:                                               ; preds = %90, %84, %40
  %93 = phi i8* [ %42, %40 ], [ %86, %84 ], [ %86, %90 ]
  %94 = phi i32 [ %43, %40 ], [ %85, %84 ], [ %85, %90 ]
  call void @llvm.lifetime.end.p0i8(i64 24, i8* nonnull %20) #13
  call void @llvm.lifetime.end.p0i8(i64 32, i8* nonnull %9) #13
  %95 = load i8, i8* %8, align 8, !tbaa !19
  %96 = and i8 %95, 1
  %97 = icmp eq i8 %96, 0
  br i1 %97, label %101, label %98

98:                                               ; preds = %92
  %99 = getelementptr inbounds %"class.std::__1::__fs::filesystem::path", %"class.std::__1::__fs::filesystem::path"* %4, i64 0, i32 0, i32 0, i32 0, i32 0, i32 0, i32 0, i32 2
  %100 = load i8*, i8** %99, align 8, !tbaa !19
  call void @_ZdlPv(i8* %100) #24
  br label %101

101:                                              ; preds = %92, %98
  call void @llvm.lifetime.end.p0i8(i64 24, i8* nonnull %8) #13
  %102 = insertvalue { i8*, i32 } undef, i8* %93, 0
  %103 = insertvalue { i8*, i32 } %102, i32 %94, 1
  resume { i8*, i32 } %103
}

; Function Attrs: nofree nounwind
declare i8* @realpath(i8* nocapture readonly, i8*) local_unnamed_addr #8

; Function Attrs: nounwind
declare void @free(i8* nocapture) local_unnamed_addr #2

; Function Attrs: uwtable
define internal fastcc void @_ZNKSt3__14__fs10filesystem6detail12_GLOBAL__N_112ErrorHandlerINS1_4pathEE6reportERKNS_10error_codeE(%"class.std::__1::__fs::filesystem::path"* noalias nocapture align 8 %0, %"struct.std::__1::__fs::filesystem::detail::(anonymous namespace)::ErrorHandler"* nocapture readonly %1, %"class.std::__1::error_code"* nonnull align 8 dereferenceable(16) %2) unnamed_addr #7 align 2 personality i8* bitcast (i32 (...)* @__gxx_personality_v0 to i8*) {
  %4 = alloca %"class.std::__1::basic_string", align 8
  %5 = alloca %"class.std::__1::basic_string", align 8
  %6 = getelementptr inbounds %"struct.std::__1::__fs::filesystem::detail::(anonymous namespace)::ErrorHandler", %"struct.std::__1::__fs::filesystem::detail::(anonymous namespace)::ErrorHandler"* %1, i64 0, i32 1
  %7 = load %"class.std::__1::error_code"*, %"class.std::__1::error_code"** %6, align 8, !tbaa !37
  %8 = icmp eq %"class.std::__1::error_code"* %7, null
  br i1 %8, label %13, label %9

9:                                                ; preds = %3
  %10 = bitcast %"class.std::__1::error_code"* %7 to i8*
  %11 = bitcast %"class.std::__1::error_code"* %2 to i8*
  tail call void @llvm.memcpy.p0i8.p0i8.i64(i8* nonnull align 8 dereferenceable(16) %10, i8* nonnull align 8 dereferenceable(16) %11, i64 16, i1 false), !tbaa.struct !40
  %12 = bitcast %"class.std::__1::__fs::filesystem::path"* %0 to i8*
  tail call void @llvm.memset.p0i8.i64(i8* nonnull align 8 dereferenceable(24) %12, i8 0, i64 24, i1 false) #13, !alias.scope !41
  ret void

13:                                               ; preds = %3
  %14 = bitcast %"class.std::__1::basic_string"* %4 to i8*
  call void @llvm.lifetime.start.p0i8(i64 24, i8* nonnull %14) #13
  %15 = bitcast %"class.std::__1::basic_string"* %5 to i8*
  call void @llvm.lifetime.start.p0i8(i64 24, i8* nonnull %15) #13
  store i8 6, i8* %15, align 8, !tbaa !19
  %16 = bitcast %"class.std::__1::basic_string"* %5 to %"struct.std::__1::basic_string<char, std::__1::char_traits<char>, std::__1::allocator<char>>::__short"*
  %17 = getelementptr inbounds %"struct.std::__1::basic_string<char, std::__1::char_traits<char>, std::__1::allocator<char>>::__short", %"struct.std::__1::basic_string<char, std::__1::char_traits<char>, std::__1::allocator<char>>::__short"* %16, i64 0, i32 1, i64 0
  call void @llvm.memcpy.p0i8.p0i8.i64(i8* nonnull align 1 dereferenceable(3) %17, i8* nonnull align 1 dereferenceable(3) getelementptr inbounds ([4 x i8], [4 x i8]* @.str.41, i64 0, i64 0), i64 3, i1 false) #13
  %18 = getelementptr inbounds %"struct.std::__1::basic_string<char, std::__1::char_traits<char>, std::__1::allocator<char>>::__short", %"struct.std::__1::basic_string<char, std::__1::char_traits<char>, std::__1::allocator<char>>::__short"* %16, i64 0, i32 1, i64 3
  store i8 0, i8* %18, align 1, !tbaa !19
  %19 = getelementptr inbounds %"struct.std::__1::__fs::filesystem::detail::(anonymous namespace)::ErrorHandler", %"struct.std::__1::__fs::filesystem::detail::(anonymous namespace)::ErrorHandler"* %1, i64 0, i32 0
  %20 = load i8*, i8** %19, align 8, !tbaa !35
  %21 = invoke nonnull align 8 dereferenceable(24) %"class.std::__1::basic_string"* @_ZNSt3__112basic_stringIcNS_11char_traitsIcEENS_9allocatorIcEEE6appendEPKc(%"class.std::__1::basic_string"* nonnull %5, i8* %20)
          to label %22 unwind label %40

22:                                               ; preds = %13
  %23 = bitcast %"class.std::__1::basic_string"* %21 to i8*
  call void @llvm.memcpy.p0i8.p0i8.i64(i8* nonnull align 8 dereferenceable(24) %14, i8* nonnull align 8 dereferenceable(24) %23, i64 24, i1 false) #13
  call void @llvm.memset.p0i8.i64(i8* nonnull align 8 dereferenceable(24) %23, i8 0, i64 24, i1 false) #13, !noalias !44
  %24 = load i8, i8* %15, align 8, !tbaa !19
  %25 = and i8 %24, 1
  %26 = icmp eq i8 %25, 0
  br i1 %26, label %30, label %27

27:                                               ; preds = %22
  %28 = getelementptr inbounds %"class.std::__1::basic_string", %"class.std::__1::basic_string"* %5, i64 0, i32 0, i32 0, i32 0, i32 0, i32 0, i32 2
  %29 = load i8*, i8** %28, align 8, !tbaa !19
  call void @_ZdlPv(i8* %29) #24
  br label %30

30:                                               ; preds = %22, %27
  call void @llvm.lifetime.end.p0i8(i64 24, i8* nonnull %15) #13
  %31 = getelementptr inbounds %"struct.std::__1::__fs::filesystem::detail::(anonymous namespace)::ErrorHandler", %"struct.std::__1::__fs::filesystem::detail::(anonymous namespace)::ErrorHandler"* %1, i64 0, i32 2
  %32 = load %"class.std::__1::__fs::filesystem::path"*, %"class.std::__1::__fs::filesystem::path"** %31, align 8, !tbaa !38
  %33 = icmp ne %"class.std::__1::__fs::filesystem::path"* %32, null
  %34 = zext i1 %33 to i32
  %35 = getelementptr inbounds %"struct.std::__1::__fs::filesystem::detail::(anonymous namespace)::ErrorHandler", %"struct.std::__1::__fs::filesystem::detail::(anonymous namespace)::ErrorHandler"* %1, i64 0, i32 3
  %36 = load %"class.std::__1::__fs::filesystem::path"*, %"class.std::__1::__fs::filesystem::path"** %35, align 8, !tbaa !39
  %37 = icmp ne %"class.std::__1::__fs::filesystem::path"* %36, null
  %38 = zext i1 %37 to i32
  %39 = add nuw nsw i32 %38, %34
  switch i32 %39, label %67 [
    i32 0, label %51
    i32 1, label %63
    i32 2, label %65
  ]

40:                                               ; preds = %13
  %41 = landingpad { i8*, i32 }
          cleanup
  %42 = extractvalue { i8*, i32 } %41, 0
  %43 = extractvalue { i8*, i32 } %41, 1
  %44 = load i8, i8* %15, align 8, !tbaa !19
  %45 = and i8 %44, 1
  %46 = icmp eq i8 %45, 0
  br i1 %46, label %50, label %47

47:                                               ; preds = %40
  %48 = getelementptr inbounds %"class.std::__1::basic_string", %"class.std::__1::basic_string"* %5, i64 0, i32 0, i32 0, i32 0, i32 0, i32 0, i32 2
  %49 = load i8*, i8** %48, align 8, !tbaa !19
  call void @_ZdlPv(i8* %49) #24
  br label %50

50:                                               ; preds = %40, %47
  call void @llvm.lifetime.end.p0i8(i64 24, i8* nonnull %15) #13
  br label %68

51:                                               ; preds = %30
  invoke void @_ZNSt3__14__fs10filesystem24__throw_filesystem_errorIJRNS_12basic_stringIcNS_11char_traitsIcEENS_9allocatorIcEEEERKNS_10error_codeEEEEvDpOT_(%"class.std::__1::basic_string"* nonnull align 8 dereferenceable(24) %4, %"class.std::__1::error_code"* nonnull align 8 dereferenceable(16) %2) #22
          to label %52 unwind label %53

52:                                               ; preds = %51
  unreachable

53:                                               ; preds = %65, %63, %51
  %54 = landingpad { i8*, i32 }
          cleanup
  %55 = extractvalue { i8*, i32 } %54, 0
  %56 = extractvalue { i8*, i32 } %54, 1
  %57 = load i8, i8* %14, align 8, !tbaa !19
  %58 = and i8 %57, 1
  %59 = icmp eq i8 %58, 0
  br i1 %59, label %68, label %60

60:                                               ; preds = %53
  %61 = getelementptr inbounds %"class.std::__1::basic_string", %"class.std::__1::basic_string"* %4, i64 0, i32 0, i32 0, i32 0, i32 0, i32 0, i32 2
  %62 = load i8*, i8** %61, align 8, !tbaa !19
  call void @_ZdlPv(i8* %62) #24
  br label %68

63:                                               ; preds = %30
  invoke void @_ZNSt3__14__fs10filesystem24__throw_filesystem_errorIJRNS_12basic_stringIcNS_11char_traitsIcEENS_9allocatorIcEEEERKNS1_4pathERKNS_10error_codeEEEEvDpOT_(%"class.std::__1::basic_string"* nonnull align 8 dereferenceable(24) %4, %"class.std::__1::__fs::filesystem::path"* nonnull align 8 dereferenceable(24) %32, %"class.std::__1::error_code"* nonnull align 8 dereferenceable(16) %2) #22
          to label %64 unwind label %53

64:                                               ; preds = %63
  unreachable

65:                                               ; preds = %30
  invoke void @_ZNSt3__14__fs10filesystem24__throw_filesystem_errorIJRNS_12basic_stringIcNS_11char_traitsIcEENS_9allocatorIcEEEERKNS1_4pathESC_RKNS_10error_codeEEEEvDpOT_(%"class.std::__1::basic_string"* nonnull align 8 dereferenceable(24) %4, %"class.std::__1::__fs::filesystem::path"* nonnull align 8 dereferenceable(24) %32, %"class.std::__1::__fs::filesystem::path"* nonnull align 8 dereferenceable(24) %36, %"class.std::__1::error_code"* nonnull align 8 dereferenceable(16) %2) #22
          to label %66 unwind label %53

66:                                               ; preds = %65
  unreachable

67:                                               ; preds = %30
  unreachable

68:                                               ; preds = %60, %53, %50
  %69 = phi i8* [ %42, %50 ], [ %55, %53 ], [ %55, %60 ]
  %70 = phi i32 [ %43, %50 ], [ %56, %53 ], [ %56, %60 ]
  call void @llvm.lifetime.end.p0i8(i64 24, i8* nonnull %14) #13
  %71 = insertvalue { i8*, i32 } undef, i8* %69, 0
  %72 = insertvalue { i8*, i32 } %71, i32 %70, 1
  resume { i8*, i32 } %72
}

; Function Attrs: uwtable
define void @_ZNSt3__14__fs10filesystem6__copyERKNS1_4pathES4_NS1_12copy_optionsEPNS_10error_codeE(%"class.std::__1::__fs::filesystem::path"* nonnull align 8 dereferenceable(24) %0, %"class.std::__1::__fs::filesystem::path"* nonnull align 8 dereferenceable(24) %1, i16 zeroext %2, %"class.std::__1::error_code"* %3) local_unnamed_addr #7 personality i8* bitcast (i32 (...)* @__gxx_personality_v0 to i8*) {
  %5 = alloca %"class.std::__1::basic_string", align 8
  %6 = alloca %"class.std::__1::error_code", align 8
  %7 = alloca %"class.std::__1::basic_string", align 8
  %8 = alloca %"class.std::__1::error_code", align 8
  %9 = alloca %"class.std::__1::__fs::filesystem::path", align 8
  %10 = alloca %"struct.std::__1::__fs::filesystem::detail::(anonymous namespace)::ErrorHandler.6", align 8
  %11 = alloca %"class.std::__1::error_code", align 8
  %12 = alloca %"struct.std::__1::__fs::filesystem::detail::(anonymous namespace)::ErrorHandler.6", align 8
  %13 = alloca %"struct.std::__1::__fs::filesystem::detail::(anonymous namespace)::ErrorHandler.6", align 8
  %14 = alloca %"struct.std::__1::__fs::filesystem::detail::(anonymous namespace)::ErrorHandler.6", align 8
  %15 = alloca %"class.std::__1::error_code", align 8
  %16 = alloca %"class.std::__1::error_code", align 8
  %17 = alloca %"class.std::__1::error_code", align 8
  %18 = alloca %"class.std::__1::error_code", align 8
  %19 = alloca %"struct.std::__1::__fs::filesystem::detail::(anonymous namespace)::ErrorHandler.6", align 8
  %20 = alloca %"class.std::__1::error_code", align 8
  %21 = alloca %struct.stat, align 8
  %22 = alloca %struct.stat, align 8
  %23 = alloca %"class.std::__1::__fs::filesystem::path", align 8
  %24 = alloca %"class.std::__1::__fs::filesystem::path", align 8
  %25 = alloca %"class.std::__1::__fs::filesystem::directory_iterator", align 8
  %26 = alloca %"class.std::__1::error_code", align 8
  %27 = alloca %"class.std::__1::__fs::filesystem::path", align 8
  %28 = alloca %"class.std::__1::__fs::filesystem::path", align 8
  %29 = bitcast %"struct.std::__1::__fs::filesystem::detail::(anonymous namespace)::ErrorHandler.6"* %19 to i8*
  call void @llvm.lifetime.start.p0i8(i64 32, i8* nonnull %29) #13
  %30 = getelementptr inbounds %"struct.std::__1::__fs::filesystem::detail::(anonymous namespace)::ErrorHandler.6", %"struct.std::__1::__fs::filesystem::detail::(anonymous namespace)::ErrorHandler.6"* %19, i64 0, i32 0
  store i8* getelementptr inbounds ([5 x i8], [5 x i8]* @.str.2, i64 0, i64 0), i8** %30, align 8, !tbaa !47
  %31 = getelementptr inbounds %"struct.std::__1::__fs::filesystem::detail::(anonymous namespace)::ErrorHandler.6", %"struct.std::__1::__fs::filesystem::detail::(anonymous namespace)::ErrorHandler.6"* %19, i64 0, i32 1
  store %"class.std::__1::error_code"* %3, %"class.std::__1::error_code"** %31, align 8, !tbaa !49
  %32 = getelementptr inbounds %"struct.std::__1::__fs::filesystem::detail::(anonymous namespace)::ErrorHandler.6", %"struct.std::__1::__fs::filesystem::detail::(anonymous namespace)::ErrorHandler.6"* %19, i64 0, i32 2
  store %"class.std::__1::__fs::filesystem::path"* %0, %"class.std::__1::__fs::filesystem::path"** %32, align 8, !tbaa !50
  %33 = getelementptr inbounds %"struct.std::__1::__fs::filesystem::detail::(anonymous namespace)::ErrorHandler.6", %"struct.std::__1::__fs::filesystem::detail::(anonymous namespace)::ErrorHandler.6"* %19, i64 0, i32 3
  store %"class.std::__1::__fs::filesystem::path"* %1, %"class.std::__1::__fs::filesystem::path"** %33, align 8, !tbaa !51
  %34 = icmp eq %"class.std::__1::error_code"* %3, null
  br i1 %34, label %39, label %35

35:                                               ; preds = %4
  %36 = getelementptr inbounds %"class.std::__1::error_code", %"class.std::__1::error_code"* %3, i64 0, i32 0
  store i32 0, i32* %36, align 8, !tbaa !22
  %37 = tail call nonnull align 8 dereferenceable(8) %"class.std::__1::error_category"* @_ZNSt3__115system_categoryEv() #13
  %38 = getelementptr inbounds %"class.std::__1::error_code", %"class.std::__1::error_code"* %3, i64 0, i32 1
  store %"class.std::__1::error_category"* %37, %"class.std::__1::error_category"** %38, align 8, !tbaa !24
  br label %39

39:                                               ; preds = %4, %35
  %40 = and i16 %2, 160
  %41 = icmp eq i16 %40, 0
  %42 = bitcast %"class.std::__1::error_code"* %20 to i8*
  call void @llvm.lifetime.start.p0i8(i64 16, i8* nonnull %42) #13
  %43 = getelementptr inbounds %"class.std::__1::error_code", %"class.std::__1::error_code"* %20, i64 0, i32 0
  store i32 0, i32* %43, align 8, !tbaa !22
  %44 = getelementptr inbounds %"class.std::__1::error_code", %"class.std::__1::error_code"* %20, i64 0, i32 1
  %45 = tail call nonnull align 8 dereferenceable(8) %"class.std::__1::error_category"* @_ZNSt3__115system_categoryEv() #13
  store %"class.std::__1::error_category"* %45, %"class.std::__1::error_category"** %44, align 8, !tbaa !24
  %46 = bitcast %struct.stat* %21 to i8*
  call void @llvm.lifetime.start.p0i8(i64 144, i8* nonnull %46) #13
  call void @llvm.memset.p0i8.i64(i8* nonnull align 8 dereferenceable(144) %46, i8 0, i64 144, i1 false)
  %47 = and i16 %2, 176
  %48 = icmp eq i16 %47, 0
  br i1 %48, label %93, label %49

49:                                               ; preds = %39
  %50 = bitcast %"class.std::__1::error_code"* %18 to i8*
  call void @llvm.lifetime.start.p0i8(i64 16, i8* nonnull %50) #13, !noalias !52
  %51 = getelementptr inbounds %"class.std::__1::error_code", %"class.std::__1::error_code"* %18, i64 0, i32 0
  store i32 0, i32* %51, align 8, !tbaa !22, !noalias !52
  %52 = getelementptr inbounds %"class.std::__1::error_code", %"class.std::__1::error_code"* %18, i64 0, i32 1
  %53 = tail call nonnull align 8 dereferenceable(8) %"class.std::__1::error_category"* @_ZNSt3__115system_categoryEv() #13, !noalias !52
  store %"class.std::__1::error_category"* %53, %"class.std::__1::error_category"** %52, align 8, !tbaa !24, !noalias !52
  %54 = bitcast %"class.std::__1::__fs::filesystem::path"* %0 to i8*
  %55 = load i8, i8* %54, align 8, !tbaa !19, !noalias !52
  %56 = and i8 %55, 1
  %57 = icmp eq i8 %56, 0
  %58 = getelementptr inbounds %"class.std::__1::__fs::filesystem::path", %"class.std::__1::__fs::filesystem::path"* %0, i64 0, i32 0, i32 0, i32 0, i32 0, i32 0, i32 0, i32 2
  %59 = load i8*, i8** %58, align 8, !noalias !52
  %60 = bitcast %"class.std::__1::__fs::filesystem::path"* %0 to %"struct.std::__1::basic_string<char, std::__1::char_traits<char>, std::__1::allocator<char>>::__short"*
  %61 = getelementptr inbounds %"struct.std::__1::basic_string<char, std::__1::char_traits<char>, std::__1::allocator<char>>::__short", %"struct.std::__1::basic_string<char, std::__1::char_traits<char>, std::__1::allocator<char>>::__short"* %60, i64 0, i32 1, i64 0
  %62 = select i1 %57, i8* %61, i8* %59
  %63 = call i32 @__lxstat(i32 1, i8* nonnull %62, %struct.stat* nonnull %21) #13, !noalias !52
  %64 = icmp eq i32 %63, -1
  br i1 %64, label %65, label %69

65:                                               ; preds = %49
  %66 = tail call i32* @__errno_location() #21
  %67 = load i32, i32* %66, align 4, !tbaa !4, !noalias !52
  %68 = call nonnull align 8 dereferenceable(8) %"class.std::__1::error_category"* @_ZNSt3__116generic_categoryEv() #13, !noalias !52
  store i32 %67, i32* %51, align 8, !tbaa.struct !40, !noalias !52
  store %"class.std::__1::error_category"* %68, %"class.std::__1::error_category"** %52, align 8, !tbaa.struct !40, !noalias !52
  br label %71

69:                                               ; preds = %49
  %70 = load i32, i32* %51, align 8, !tbaa !22, !noalias !55
  br label %71

71:                                               ; preds = %69, %65
  %72 = phi i32 [ %70, %69 ], [ %67, %65 ]
  call void @llvm.memcpy.p0i8.p0i8.i64(i8* nonnull align 8 dereferenceable(16) %42, i8* nonnull align 8 dereferenceable(16) %50, i64 16, i1 false), !tbaa.struct !40, !noalias !55
  switch i32 %72, label %73 [
    i32 0, label %80
    i32 2, label %91
    i32 20, label %91
  ]

73:                                               ; preds = %71
  %74 = bitcast %"struct.std::__1::__fs::filesystem::detail::(anonymous namespace)::ErrorHandler.6"* %10 to i8*
  call void @llvm.lifetime.start.p0i8(i64 32, i8* nonnull %74) #13, !noalias !55
  %75 = getelementptr inbounds %"struct.std::__1::__fs::filesystem::detail::(anonymous namespace)::ErrorHandler.6", %"struct.std::__1::__fs::filesystem::detail::(anonymous namespace)::ErrorHandler.6"* %10, i64 0, i32 0
  store i8* getelementptr inbounds ([11 x i8], [11 x i8]* @.str.39, i64 0, i64 0), i8** %75, align 8, !tbaa !47, !noalias !55
  %76 = getelementptr inbounds %"struct.std::__1::__fs::filesystem::detail::(anonymous namespace)::ErrorHandler.6", %"struct.std::__1::__fs::filesystem::detail::(anonymous namespace)::ErrorHandler.6"* %10, i64 0, i32 1
  store %"class.std::__1::error_code"* %20, %"class.std::__1::error_code"** %76, align 8, !tbaa !49, !noalias !55
  %77 = getelementptr inbounds %"struct.std::__1::__fs::filesystem::detail::(anonymous namespace)::ErrorHandler.6", %"struct.std::__1::__fs::filesystem::detail::(anonymous namespace)::ErrorHandler.6"* %10, i64 0, i32 2
  store %"class.std::__1::__fs::filesystem::path"* %0, %"class.std::__1::__fs::filesystem::path"** %77, align 8, !tbaa !50, !noalias !55
  %78 = getelementptr inbounds %"struct.std::__1::__fs::filesystem::detail::(anonymous namespace)::ErrorHandler.6", %"struct.std::__1::__fs::filesystem::detail::(anonymous namespace)::ErrorHandler.6"* %10, i64 0, i32 3
  store %"class.std::__1::__fs::filesystem::path"* null, %"class.std::__1::__fs::filesystem::path"** %78, align 8, !tbaa !51, !noalias !55
  store i32 0, i32* %43, align 8, !tbaa !22, !noalias !55
  %79 = call nonnull align 8 dereferenceable(8) %"class.std::__1::error_category"* @_ZNSt3__115system_categoryEv() #13, !noalias !55
  store %"class.std::__1::error_category"* %79, %"class.std::__1::error_category"** %44, align 8, !tbaa !24, !noalias !55
  call void (%"struct.std::__1::__fs::filesystem::detail::(anonymous namespace)::ErrorHandler.6"*, %"class.std::__1::error_code"*, i8*, ...) @_ZNKSt3__14__fs10filesystem6detail12_GLOBAL__N_112ErrorHandlerIvE6reportERKNS_10error_codeEPKcz(%"struct.std::__1::__fs::filesystem::detail::(anonymous namespace)::ErrorHandler.6"* nonnull %10, %"class.std::__1::error_code"* nonnull align 8 dereferenceable(16) %18, i8* undef), !noalias !55
  call void @llvm.lifetime.end.p0i8(i64 32, i8* nonnull %74) #13, !noalias !55
  br label %91

80:                                               ; preds = %71
  %81 = getelementptr inbounds %struct.stat, %struct.stat* %21, i64 0, i32 3
  %82 = load i32, i32* %81, align 8, !tbaa !58, !noalias !55
  %83 = and i32 %82, 61440
  %84 = add nsw i32 %83, -4096
  %85 = icmp ult i32 %84, 49152
  br i1 %85, label %86, label %91

86:                                               ; preds = %80
  %87 = lshr exact i32 %84, 12
  %88 = zext i32 %87 to i64
  %89 = getelementptr inbounds [12 x i8], [12 x i8]* @switch.table._ZNSt3__14__fs10filesystem13__fs_is_emptyERKNS1_4pathEPNS_10error_codeE, i64 0, i64 %88
  %90 = load i8, i8* %89, align 1
  br label %91

91:                                               ; preds = %80, %86, %71, %71, %73
  %92 = phi i8 [ 0, %73 ], [ -1, %71 ], [ -1, %71 ], [ %90, %86 ], [ 8, %80 ]
  call void @llvm.lifetime.end.p0i8(i64 16, i8* nonnull %50) #13, !noalias !52
  br label %137

93:                                               ; preds = %39
  %94 = bitcast %"class.std::__1::error_code"* %17 to i8*
  call void @llvm.lifetime.start.p0i8(i64 16, i8* nonnull %94) #13, !noalias !61
  %95 = getelementptr inbounds %"class.std::__1::error_code", %"class.std::__1::error_code"* %17, i64 0, i32 0
  store i32 0, i32* %95, align 8, !tbaa !22, !noalias !61
  %96 = getelementptr inbounds %"class.std::__1::error_code", %"class.std::__1::error_code"* %17, i64 0, i32 1
  %97 = tail call nonnull align 8 dereferenceable(8) %"class.std::__1::error_category"* @_ZNSt3__115system_categoryEv() #13, !noalias !61
  store %"class.std::__1::error_category"* %97, %"class.std::__1::error_category"** %96, align 8, !tbaa !24, !noalias !61
  %98 = bitcast %"class.std::__1::__fs::filesystem::path"* %0 to i8*
  %99 = load i8, i8* %98, align 8, !tbaa !19, !noalias !61
  %100 = and i8 %99, 1
  %101 = icmp eq i8 %100, 0
  %102 = getelementptr inbounds %"class.std::__1::__fs::filesystem::path", %"class.std::__1::__fs::filesystem::path"* %0, i64 0, i32 0, i32 0, i32 0, i32 0, i32 0, i32 0, i32 2
  %103 = load i8*, i8** %102, align 8, !noalias !61
  %104 = bitcast %"class.std::__1::__fs::filesystem::path"* %0 to %"struct.std::__1::basic_string<char, std::__1::char_traits<char>, std::__1::allocator<char>>::__short"*
  %105 = getelementptr inbounds %"struct.std::__1::basic_string<char, std::__1::char_traits<char>, std::__1::allocator<char>>::__short", %"struct.std::__1::basic_string<char, std::__1::char_traits<char>, std::__1::allocator<char>>::__short"* %104, i64 0, i32 1, i64 0
  %106 = select i1 %101, i8* %105, i8* %103
  %107 = call i32 @__xstat(i32 1, i8* nonnull %106, %struct.stat* nonnull %21) #13, !noalias !61
  %108 = icmp eq i32 %107, -1
  br i1 %108, label %109, label %113

109:                                              ; preds = %93
  %110 = tail call i32* @__errno_location() #21
  %111 = load i32, i32* %110, align 4, !tbaa !4, !noalias !61
  %112 = call nonnull align 8 dereferenceable(8) %"class.std::__1::error_category"* @_ZNSt3__116generic_categoryEv() #13, !noalias !61
  store i32 %111, i32* %95, align 8, !tbaa.struct !40, !noalias !61
  store %"class.std::__1::error_category"* %112, %"class.std::__1::error_category"** %96, align 8, !tbaa.struct !40, !noalias !61
  br label %115

113:                                              ; preds = %93
  %114 = load i32, i32* %95, align 8, !tbaa !22, !noalias !64
  br label %115

115:                                              ; preds = %113, %109
  %116 = phi i32 [ %114, %113 ], [ %111, %109 ]
  call void @llvm.memcpy.p0i8.p0i8.i64(i8* nonnull align 8 dereferenceable(16) %42, i8* nonnull align 8 dereferenceable(16) %94, i64 16, i1 false), !tbaa.struct !40, !noalias !64
  switch i32 %116, label %117 [
    i32 0, label %124
    i32 2, label %135
    i32 20, label %135
  ]

117:                                              ; preds = %115
  %118 = bitcast %"struct.std::__1::__fs::filesystem::detail::(anonymous namespace)::ErrorHandler.6"* %12 to i8*
  call void @llvm.lifetime.start.p0i8(i64 32, i8* nonnull %118) #13, !noalias !64
  %119 = getelementptr inbounds %"struct.std::__1::__fs::filesystem::detail::(anonymous namespace)::ErrorHandler.6", %"struct.std::__1::__fs::filesystem::detail::(anonymous namespace)::ErrorHandler.6"* %12, i64 0, i32 0
  store i8* getelementptr inbounds ([11 x i8], [11 x i8]* @.str.39, i64 0, i64 0), i8** %119, align 8, !tbaa !47, !noalias !64
  %120 = getelementptr inbounds %"struct.std::__1::__fs::filesystem::detail::(anonymous namespace)::ErrorHandler.6", %"struct.std::__1::__fs::filesystem::detail::(anonymous namespace)::ErrorHandler.6"* %12, i64 0, i32 1
  store %"class.std::__1::error_code"* %20, %"class.std::__1::error_code"** %120, align 8, !tbaa !49, !noalias !64
  %121 = getelementptr inbounds %"struct.std::__1::__fs::filesystem::detail::(anonymous namespace)::ErrorHandler.6", %"struct.std::__1::__fs::filesystem::detail::(anonymous namespace)::ErrorHandler.6"* %12, i64 0, i32 2
  store %"class.std::__1::__fs::filesystem::path"* %0, %"class.std::__1::__fs::filesystem::path"** %121, align 8, !tbaa !50, !noalias !64
  %122 = getelementptr inbounds %"struct.std::__1::__fs::filesystem::detail::(anonymous namespace)::ErrorHandler.6", %"struct.std::__1::__fs::filesystem::detail::(anonymous namespace)::ErrorHandler.6"* %12, i64 0, i32 3
  store %"class.std::__1::__fs::filesystem::path"* null, %"class.std::__1::__fs::filesystem::path"** %122, align 8, !tbaa !51, !noalias !64
  store i32 0, i32* %43, align 8, !tbaa !22, !noalias !64
  %123 = call nonnull align 8 dereferenceable(8) %"class.std::__1::error_category"* @_ZNSt3__115system_categoryEv() #13, !noalias !64
  store %"class.std::__1::error_category"* %123, %"class.std::__1::error_category"** %44, align 8, !tbaa !24, !noalias !64
  call void (%"struct.std::__1::__fs::filesystem::detail::(anonymous namespace)::ErrorHandler.6"*, %"class.std::__1::error_code"*, i8*, ...) @_ZNKSt3__14__fs10filesystem6detail12_GLOBAL__N_112ErrorHandlerIvE6reportERKNS_10error_codeEPKcz(%"struct.std::__1::__fs::filesystem::detail::(anonymous namespace)::ErrorHandler.6"* nonnull %12, %"class.std::__1::error_code"* nonnull align 8 dereferenceable(16) %17, i8* undef), !noalias !64
  call void @llvm.lifetime.end.p0i8(i64 32, i8* nonnull %118) #13, !noalias !64
  br label %135

124:                                              ; preds = %115
  %125 = getelementptr inbounds %struct.stat, %struct.stat* %21, i64 0, i32 3
  %126 = load i32, i32* %125, align 8, !tbaa !58, !noalias !64
  %127 = and i32 %126, 61440
  %128 = add nsw i32 %127, -4096
  %129 = icmp ult i32 %128, 49152
  br i1 %129, label %130, label %135

130:                                              ; preds = %124
  %131 = lshr exact i32 %128, 12
  %132 = zext i32 %131 to i64
  %133 = getelementptr inbounds [12 x i8], [12 x i8]* @switch.table._ZNSt3__14__fs10filesystem13__fs_is_emptyERKNS1_4pathEPNS_10error_codeE, i64 0, i64 %132
  %134 = load i8, i8* %133, align 1
  br label %135

135:                                              ; preds = %124, %130, %115, %115, %117
  %136 = phi i8 [ 0, %117 ], [ -1, %115 ], [ -1, %115 ], [ %134, %130 ], [ 8, %124 ]
  call void @llvm.lifetime.end.p0i8(i64 16, i8* nonnull %94) #13, !noalias !61
  br label %137

137:                                              ; preds = %135, %91
  %138 = phi i8 [ %136, %135 ], [ %92, %91 ]
  %139 = load i32, i32* %43, align 8, !tbaa !22
  %140 = icmp eq i32 %139, 0
  br i1 %140, label %146, label %141

141:                                              ; preds = %137
  invoke fastcc void @_ZNKSt3__14__fs10filesystem6detail12_GLOBAL__N_112ErrorHandlerIvE6reportERKNS_10error_codeE(%"struct.std::__1::__fs::filesystem::detail::(anonymous namespace)::ErrorHandler.6"* nonnull %19, %"class.std::__1::error_code"* nonnull align 8 dereferenceable(16) %20)
          to label %701 unwind label %142

142:                                              ; preds = %141
  %143 = landingpad { i8*, i32 }
          cleanup
  %144 = extractvalue { i8*, i32 } %143, 0
  %145 = extractvalue { i8*, i32 } %143, 1
  br label %705

146:                                              ; preds = %137
  %147 = bitcast %struct.stat* %22 to i8*
  call void @llvm.lifetime.start.p0i8(i64 144, i8* nonnull %147) #13
  call void @llvm.memset.p0i8.i64(i8* nonnull align 8 dereferenceable(144) %147, i8 0, i64 144, i1 false)
  br i1 %41, label %193, label %148

148:                                              ; preds = %146
  %149 = bitcast %"class.std::__1::error_code"* %16 to i8*
  call void @llvm.lifetime.start.p0i8(i64 16, i8* nonnull %149) #13, !noalias !67
  %150 = getelementptr inbounds %"class.std::__1::error_code", %"class.std::__1::error_code"* %16, i64 0, i32 0
  store i32 0, i32* %150, align 8, !tbaa !22, !noalias !67
  %151 = getelementptr inbounds %"class.std::__1::error_code", %"class.std::__1::error_code"* %16, i64 0, i32 1
  %152 = call nonnull align 8 dereferenceable(8) %"class.std::__1::error_category"* @_ZNSt3__115system_categoryEv() #13, !noalias !67
  store %"class.std::__1::error_category"* %152, %"class.std::__1::error_category"** %151, align 8, !tbaa !24, !noalias !67
  %153 = bitcast %"class.std::__1::__fs::filesystem::path"* %1 to i8*
  %154 = load i8, i8* %153, align 8, !tbaa !19, !noalias !67
  %155 = and i8 %154, 1
  %156 = icmp eq i8 %155, 0
  %157 = getelementptr inbounds %"class.std::__1::__fs::filesystem::path", %"class.std::__1::__fs::filesystem::path"* %1, i64 0, i32 0, i32 0, i32 0, i32 0, i32 0, i32 0, i32 2
  %158 = load i8*, i8** %157, align 8, !noalias !67
  %159 = bitcast %"class.std::__1::__fs::filesystem::path"* %1 to %"struct.std::__1::basic_string<char, std::__1::char_traits<char>, std::__1::allocator<char>>::__short"*
  %160 = getelementptr inbounds %"struct.std::__1::basic_string<char, std::__1::char_traits<char>, std::__1::allocator<char>>::__short", %"struct.std::__1::basic_string<char, std::__1::char_traits<char>, std::__1::allocator<char>>::__short"* %159, i64 0, i32 1, i64 0
  %161 = select i1 %156, i8* %160, i8* %158
  %162 = call i32 @__lxstat(i32 1, i8* nonnull %161, %struct.stat* nonnull %22) #13, !noalias !67
  %163 = icmp eq i32 %162, -1
  br i1 %163, label %164, label %168

164:                                              ; preds = %148
  %165 = tail call i32* @__errno_location() #21
  %166 = load i32, i32* %165, align 4, !tbaa !4, !noalias !67
  %167 = call nonnull align 8 dereferenceable(8) %"class.std::__1::error_category"* @_ZNSt3__116generic_categoryEv() #13, !noalias !67
  store i32 %166, i32* %150, align 8, !tbaa.struct !40, !noalias !67
  store %"class.std::__1::error_category"* %167, %"class.std::__1::error_category"** %151, align 8, !tbaa.struct !40, !noalias !67
  br label %170

168:                                              ; preds = %148
  %169 = load i32, i32* %150, align 8, !tbaa !22, !noalias !70
  br label %170

170:                                              ; preds = %168, %164
  %171 = phi i32 [ %169, %168 ], [ %166, %164 ]
  call void @llvm.memcpy.p0i8.p0i8.i64(i8* nonnull align 8 dereferenceable(16) %42, i8* nonnull align 8 dereferenceable(16) %149, i64 16, i1 false), !tbaa.struct !40, !noalias !70
  switch i32 %171, label %172 [
    i32 0, label %180
    i32 2, label %191
    i32 20, label %191
  ]

172:                                              ; preds = %170
  %173 = bitcast %"struct.std::__1::__fs::filesystem::detail::(anonymous namespace)::ErrorHandler.6"* %13 to i8*
  call void @llvm.lifetime.start.p0i8(i64 32, i8* nonnull %173) #13, !noalias !70
  %174 = getelementptr inbounds %"struct.std::__1::__fs::filesystem::detail::(anonymous namespace)::ErrorHandler.6", %"struct.std::__1::__fs::filesystem::detail::(anonymous namespace)::ErrorHandler.6"* %13, i64 0, i32 0
  store i8* getelementptr inbounds ([11 x i8], [11 x i8]* @.str.39, i64 0, i64 0), i8** %174, align 8, !tbaa !47, !noalias !70
  %175 = getelementptr inbounds %"struct.std::__1::__fs::filesystem::detail::(anonymous namespace)::ErrorHandler.6", %"struct.std::__1::__fs::filesystem::detail::(anonymous namespace)::ErrorHandler.6"* %13, i64 0, i32 1
  store %"class.std::__1::error_code"* %20, %"class.std::__1::error_code"** %175, align 8, !tbaa !49, !noalias !70
  %176 = getelementptr inbounds %"struct.std::__1::__fs::filesystem::detail::(anonymous namespace)::ErrorHandler.6", %"struct.std::__1::__fs::filesystem::detail::(anonymous namespace)::ErrorHandler.6"* %13, i64 0, i32 2
  store %"class.std::__1::__fs::filesystem::path"* %1, %"class.std::__1::__fs::filesystem::path"** %176, align 8, !tbaa !50, !noalias !70
  %177 = getelementptr inbounds %"struct.std::__1::__fs::filesystem::detail::(anonymous namespace)::ErrorHandler.6", %"struct.std::__1::__fs::filesystem::detail::(anonymous namespace)::ErrorHandler.6"* %13, i64 0, i32 3
  store %"class.std::__1::__fs::filesystem::path"* null, %"class.std::__1::__fs::filesystem::path"** %177, align 8, !tbaa !51, !noalias !70
  store i32 0, i32* %43, align 8, !tbaa !22, !noalias !70
  %178 = call nonnull align 8 dereferenceable(8) %"class.std::__1::error_category"* @_ZNSt3__115system_categoryEv() #13, !noalias !70
  store %"class.std::__1::error_category"* %178, %"class.std::__1::error_category"** %44, align 8, !tbaa !24, !noalias !70
  invoke void (%"struct.std::__1::__fs::filesystem::detail::(anonymous namespace)::ErrorHandler.6"*, %"class.std::__1::error_code"*, i8*, ...) @_ZNKSt3__14__fs10filesystem6detail12_GLOBAL__N_112ErrorHandlerIvE6reportERKNS_10error_codeEPKcz(%"struct.std::__1::__fs::filesystem::detail::(anonymous namespace)::ErrorHandler.6"* nonnull %13, %"class.std::__1::error_code"* nonnull align 8 dereferenceable(16) %16, i8* undef)
          to label %179 unwind label %242

179:                                              ; preds = %172
  call void @llvm.lifetime.end.p0i8(i64 32, i8* nonnull %173) #13, !noalias !70
  br label %191

180:                                              ; preds = %170
  %181 = getelementptr inbounds %struct.stat, %struct.stat* %22, i64 0, i32 3
  %182 = load i32, i32* %181, align 8, !tbaa !58, !noalias !70
  %183 = and i32 %182, 61440
  %184 = add nsw i32 %183, -4096
  %185 = icmp ult i32 %184, 49152
  br i1 %185, label %186, label %191

186:                                              ; preds = %180
  %187 = lshr exact i32 %184, 12
  %188 = zext i32 %187 to i64
  %189 = getelementptr inbounds [12 x i8], [12 x i8]* @switch.table._ZNSt3__14__fs10filesystem13__fs_is_emptyERKNS1_4pathEPNS_10error_codeE, i64 0, i64 %188
  %190 = load i8, i8* %189, align 1
  br label %191

191:                                              ; preds = %180, %186, %179, %170, %170
  %192 = phi i8 [ 0, %179 ], [ -1, %170 ], [ -1, %170 ], [ %190, %186 ], [ 8, %180 ]
  call void @llvm.lifetime.end.p0i8(i64 16, i8* nonnull %149) #13, !noalias !67
  br label %238

193:                                              ; preds = %146
  %194 = bitcast %"class.std::__1::error_code"* %15 to i8*
  call void @llvm.lifetime.start.p0i8(i64 16, i8* nonnull %194) #13, !noalias !73
  %195 = getelementptr inbounds %"class.std::__1::error_code", %"class.std::__1::error_code"* %15, i64 0, i32 0
  store i32 0, i32* %195, align 8, !tbaa !22, !noalias !73
  %196 = getelementptr inbounds %"class.std::__1::error_code", %"class.std::__1::error_code"* %15, i64 0, i32 1
  %197 = call nonnull align 8 dereferenceable(8) %"class.std::__1::error_category"* @_ZNSt3__115system_categoryEv() #13, !noalias !73
  store %"class.std::__1::error_category"* %197, %"class.std::__1::error_category"** %196, align 8, !tbaa !24, !noalias !73
  %198 = bitcast %"class.std::__1::__fs::filesystem::path"* %1 to i8*
  %199 = load i8, i8* %198, align 8, !tbaa !19, !noalias !73
  %200 = and i8 %199, 1
  %201 = icmp eq i8 %200, 0
  %202 = getelementptr inbounds %"class.std::__1::__fs::filesystem::path", %"class.std::__1::__fs::filesystem::path"* %1, i64 0, i32 0, i32 0, i32 0, i32 0, i32 0, i32 0, i32 2
  %203 = load i8*, i8** %202, align 8, !noalias !73
  %204 = bitcast %"class.std::__1::__fs::filesystem::path"* %1 to %"struct.std::__1::basic_string<char, std::__1::char_traits<char>, std::__1::allocator<char>>::__short"*
  %205 = getelementptr inbounds %"struct.std::__1::basic_string<char, std::__1::char_traits<char>, std::__1::allocator<char>>::__short", %"struct.std::__1::basic_string<char, std::__1::char_traits<char>, std::__1::allocator<char>>::__short"* %204, i64 0, i32 1, i64 0
  %206 = select i1 %201, i8* %205, i8* %203
  %207 = call i32 @__xstat(i32 1, i8* nonnull %206, %struct.stat* nonnull %22) #13, !noalias !73
  %208 = icmp eq i32 %207, -1
  br i1 %208, label %209, label %213

209:                                              ; preds = %193
  %210 = tail call i32* @__errno_location() #21
  %211 = load i32, i32* %210, align 4, !tbaa !4, !noalias !73
  %212 = call nonnull align 8 dereferenceable(8) %"class.std::__1::error_category"* @_ZNSt3__116generic_categoryEv() #13, !noalias !73
  store i32 %211, i32* %195, align 8, !tbaa.struct !40, !noalias !73
  store %"class.std::__1::error_category"* %212, %"class.std::__1::error_category"** %196, align 8, !tbaa.struct !40, !noalias !73
  br label %215

213:                                              ; preds = %193
  %214 = load i32, i32* %195, align 8, !tbaa !22, !noalias !76
  br label %215

215:                                              ; preds = %213, %209
  %216 = phi i32 [ %214, %213 ], [ %211, %209 ]
  call void @llvm.memcpy.p0i8.p0i8.i64(i8* nonnull align 8 dereferenceable(16) %42, i8* nonnull align 8 dereferenceable(16) %194, i64 16, i1 false), !tbaa.struct !40, !noalias !76
  switch i32 %216, label %217 [
    i32 0, label %225
    i32 2, label %236
    i32 20, label %236
  ]

217:                                              ; preds = %215
  %218 = bitcast %"struct.std::__1::__fs::filesystem::detail::(anonymous namespace)::ErrorHandler.6"* %14 to i8*
  call void @llvm.lifetime.start.p0i8(i64 32, i8* nonnull %218) #13, !noalias !76
  %219 = getelementptr inbounds %"struct.std::__1::__fs::filesystem::detail::(anonymous namespace)::ErrorHandler.6", %"struct.std::__1::__fs::filesystem::detail::(anonymous namespace)::ErrorHandler.6"* %14, i64 0, i32 0
  store i8* getelementptr inbounds ([11 x i8], [11 x i8]* @.str.39, i64 0, i64 0), i8** %219, align 8, !tbaa !47, !noalias !76
  %220 = getelementptr inbounds %"struct.std::__1::__fs::filesystem::detail::(anonymous namespace)::ErrorHandler.6", %"struct.std::__1::__fs::filesystem::detail::(anonymous namespace)::ErrorHandler.6"* %14, i64 0, i32 1
  store %"class.std::__1::error_code"* %20, %"class.std::__1::error_code"** %220, align 8, !tbaa !49, !noalias !76
  %221 = getelementptr inbounds %"struct.std::__1::__fs::filesystem::detail::(anonymous namespace)::ErrorHandler.6", %"struct.std::__1::__fs::filesystem::detail::(anonymous namespace)::ErrorHandler.6"* %14, i64 0, i32 2
  store %"class.std::__1::__fs::filesystem::path"* %1, %"class.std::__1::__fs::filesystem::path"** %221, align 8, !tbaa !50, !noalias !76
  %222 = getelementptr inbounds %"struct.std::__1::__fs::filesystem::detail::(anonymous namespace)::ErrorHandler.6", %"struct.std::__1::__fs::filesystem::detail::(anonymous namespace)::ErrorHandler.6"* %14, i64 0, i32 3
  store %"class.std::__1::__fs::filesystem::path"* null, %"class.std::__1::__fs::filesystem::path"** %222, align 8, !tbaa !51, !noalias !76
  store i32 0, i32* %43, align 8, !tbaa !22, !noalias !76
  %223 = call nonnull align 8 dereferenceable(8) %"class.std::__1::error_category"* @_ZNSt3__115system_categoryEv() #13, !noalias !76
  store %"class.std::__1::error_category"* %223, %"class.std::__1::error_category"** %44, align 8, !tbaa !24, !noalias !76
  invoke void (%"struct.std::__1::__fs::filesystem::detail::(anonymous namespace)::ErrorHandler.6"*, %"class.std::__1::error_code"*, i8*, ...) @_ZNKSt3__14__fs10filesystem6detail12_GLOBAL__N_112ErrorHandlerIvE6reportERKNS_10error_codeEPKcz(%"struct.std::__1::__fs::filesystem::detail::(anonymous namespace)::ErrorHandler.6"* nonnull %14, %"class.std::__1::error_code"* nonnull align 8 dereferenceable(16) %15, i8* undef)
          to label %224 unwind label %242

224:                                              ; preds = %217
  call void @llvm.lifetime.end.p0i8(i64 32, i8* nonnull %218) #13, !noalias !76
  br label %236

225:                                              ; preds = %215
  %226 = getelementptr inbounds %struct.stat, %struct.stat* %22, i64 0, i32 3
  %227 = load i32, i32* %226, align 8, !tbaa !58, !noalias !76
  %228 = and i32 %227, 61440
  %229 = add nsw i32 %228, -4096
  %230 = icmp ult i32 %229, 49152
  br i1 %230, label %231, label %236

231:                                              ; preds = %225
  %232 = lshr exact i32 %229, 12
  %233 = zext i32 %232 to i64
  %234 = getelementptr inbounds [12 x i8], [12 x i8]* @switch.table._ZNSt3__14__fs10filesystem13__fs_is_emptyERKNS1_4pathEPNS_10error_codeE, i64 0, i64 %233
  %235 = load i8, i8* %234, align 1
  br label %236

236:                                              ; preds = %225, %231, %224, %215, %215
  %237 = phi i8 [ 0, %224 ], [ -1, %215 ], [ -1, %215 ], [ %235, %231 ], [ 8, %225 ]
  call void @llvm.lifetime.end.p0i8(i64 16, i8* nonnull %194) #13, !noalias !73
  br label %238

238:                                              ; preds = %236, %191
  %239 = phi i8 [ %237, %236 ], [ %192, %191 ]
  %240 = icmp eq i8 %239, 0
  br i1 %240, label %241, label %252

241:                                              ; preds = %238
  invoke fastcc void @_ZNKSt3__14__fs10filesystem6detail12_GLOBAL__N_112ErrorHandlerIvE6reportERKNS_10error_codeE(%"struct.std::__1::__fs::filesystem::detail::(anonymous namespace)::ErrorHandler.6"* nonnull %19, %"class.std::__1::error_code"* nonnull align 8 dereferenceable(16) %20)
          to label %700 unwind label %246

242:                                              ; preds = %172, %217
  %243 = landingpad { i8*, i32 }
          cleanup
  %244 = extractvalue { i8*, i32 } %243, 0
  %245 = extractvalue { i8*, i32 } %243, 1
  br label %702

246:                                              ; preds = %297, %462, %439, %342, %338, %241
  %247 = landingpad { i8*, i32 }
          cleanup
  br label %248

248:                                              ; preds = %320, %246
  %249 = phi { i8*, i32 } [ %247, %246 ], [ %313, %320 ]
  %250 = extractvalue { i8*, i32 } %249, 0
  %251 = extractvalue { i8*, i32 } %249, 1
  br label %702

252:                                              ; preds = %238
  %253 = add nsw i8 %138, 1
  %254 = icmp ugt i8 %253, 1
  %255 = add nsw i8 %138, -1
  %256 = icmp ult i8 %255, 3
  %257 = and i1 %254, %256
  br i1 %257, label %258, label %275

258:                                              ; preds = %252
  switch i8 %239, label %275 [
    i8 -1, label %259
    i8 2, label %259
    i8 1, label %259
    i8 3, label %259
  ]

259:                                              ; preds = %258, %258, %258, %258
  %260 = icmp eq i8 %138, 2
  %261 = icmp eq i8 %239, 1
  %262 = and i1 %260, %261
  br i1 %262, label %275, label %263

263:                                              ; preds = %259
  %264 = getelementptr inbounds %struct.stat, %struct.stat* %21, i64 0, i32 0
  %265 = load i64, i64* %264, align 8, !tbaa !79
  %266 = getelementptr inbounds %struct.stat, %struct.stat* %21, i64 0, i32 1
  %267 = load i64, i64* %266, align 8
  %268 = getelementptr inbounds %struct.stat, %struct.stat* %22, i64 0, i32 0
  %269 = load i64, i64* %268, align 8, !tbaa !79
  %270 = getelementptr inbounds %struct.stat, %struct.stat* %22, i64 0, i32 1
  %271 = load i64, i64* %270, align 8
  %272 = icmp eq i64 %265, %269
  %273 = icmp eq i64 %267, %271
  %274 = and i1 %272, %273
  br i1 %274, label %275, label %285

275:                                              ; preds = %259, %258, %252, %263
  %276 = bitcast %"class.std::__1::error_code"* %11 to i8*
  call void @llvm.lifetime.start.p0i8(i64 16, i8* nonnull %276) #13
  %277 = call nonnull align 8 dereferenceable(8) %"class.std::__1::error_category"* @_ZNSt3__116generic_categoryEv() #13
  %278 = getelementptr inbounds %"class.std::__1::error_code", %"class.std::__1::error_code"* %11, i64 0, i32 0
  store i32 38, i32* %278, align 8
  %279 = getelementptr inbounds %"class.std::__1::error_code", %"class.std::__1::error_code"* %11, i64 0, i32 1
  store %"class.std::__1::error_category"* %277, %"class.std::__1::error_category"** %279, align 8
  invoke fastcc void @_ZNKSt3__14__fs10filesystem6detail12_GLOBAL__N_112ErrorHandlerIvE6reportERKNS_10error_codeE(%"struct.std::__1::__fs::filesystem::detail::(anonymous namespace)::ErrorHandler.6"* nonnull %19, %"class.std::__1::error_code"* nonnull align 8 dereferenceable(16) %11)
          to label %280 unwind label %281

280:                                              ; preds = %275
  call void @llvm.lifetime.end.p0i8(i64 16, i8* nonnull %276) #13
  br label %700

281:                                              ; preds = %275
  %282 = landingpad { i8*, i32 }
          cleanup
  %283 = extractvalue { i8*, i32 } %282, 0
  %284 = extractvalue { i8*, i32 } %282, 1
  br label %702

285:                                              ; preds = %263
  br i1 %34, label %290, label %286

286:                                              ; preds = %285
  %287 = getelementptr inbounds %"class.std::__1::error_code", %"class.std::__1::error_code"* %3, i64 0, i32 0
  store i32 0, i32* %287, align 8, !tbaa !22
  %288 = call nonnull align 8 dereferenceable(8) %"class.std::__1::error_category"* @_ZNSt3__115system_categoryEv() #13
  %289 = getelementptr inbounds %"class.std::__1::error_code", %"class.std::__1::error_code"* %3, i64 0, i32 1
  store %"class.std::__1::error_category"* %288, %"class.std::__1::error_category"** %289, align 8, !tbaa !24
  br label %290

290:                                              ; preds = %285, %286
  switch i8 %138, label %441 [
    i8 3, label %291
    i8 1, label %332
  ]

291:                                              ; preds = %290
  %292 = and i16 %2, 32
  %293 = icmp eq i16 %292, 0
  br i1 %293, label %294, label %700

294:                                              ; preds = %291
  %295 = add nsw i8 %239, 1
  %296 = icmp ugt i8 %295, 1
  br i1 %296, label %322, label %297

297:                                              ; preds = %294
  %298 = bitcast %"class.std::__1::__fs::filesystem::path"* %9 to i8*
  call void @llvm.lifetime.start.p0i8(i64 24, i8* nonnull %298) #13
  invoke void @_ZNSt3__14__fs10filesystem14__read_symlinkERKNS1_4pathEPNS_10error_codeE(%"class.std::__1::__fs::filesystem::path"* nonnull sret align 8 %9, %"class.std::__1::__fs::filesystem::path"* nonnull align 8 dereferenceable(24) %0, %"class.std::__1::error_code"* %3)
          to label %299 unwind label %246

299:                                              ; preds = %297
  br i1 %34, label %304, label %300

300:                                              ; preds = %299
  %301 = getelementptr inbounds %"class.std::__1::error_code", %"class.std::__1::error_code"* %3, i64 0, i32 0
  %302 = load i32, i32* %301, align 8, !tbaa !22
  %303 = icmp eq i32 %302, 0
  br i1 %303, label %304, label %305

304:                                              ; preds = %300, %299
  invoke void @_ZNSt3__14__fs10filesystem16__create_symlinkERKNS1_4pathES4_PNS_10error_codeE(%"class.std::__1::__fs::filesystem::path"* nonnull align 8 dereferenceable(24) %9, %"class.std::__1::__fs::filesystem::path"* nonnull align 8 dereferenceable(24) %1, %"class.std::__1::error_code"* %3)
          to label %305 unwind label %312

305:                                              ; preds = %304, %300
  %306 = load i8, i8* %298, align 8, !tbaa !19
  %307 = and i8 %306, 1
  %308 = icmp eq i8 %307, 0
  br i1 %308, label %321, label %309

309:                                              ; preds = %305
  %310 = getelementptr inbounds %"class.std::__1::__fs::filesystem::path", %"class.std::__1::__fs::filesystem::path"* %9, i64 0, i32 0, i32 0, i32 0, i32 0, i32 0, i32 0, i32 2
  %311 = load i8*, i8** %310, align 8, !tbaa !19
  call void @_ZdlPv(i8* %311) #24
  br label %321

312:                                              ; preds = %304
  %313 = landingpad { i8*, i32 }
          cleanup
  %314 = load i8, i8* %298, align 8, !tbaa !19
  %315 = and i8 %314, 1
  %316 = icmp eq i8 %315, 0
  br i1 %316, label %320, label %317

317:                                              ; preds = %312
  %318 = getelementptr inbounds %"class.std::__1::__fs::filesystem::path", %"class.std::__1::__fs::filesystem::path"* %9, i64 0, i32 0, i32 0, i32 0, i32 0, i32 0, i32 0, i32 2
  %319 = load i8*, i8** %318, align 8, !tbaa !19
  call void @_ZdlPv(i8* %319) #24
  br label %320

320:                                              ; preds = %317, %312
  call void @llvm.lifetime.end.p0i8(i64 24, i8* nonnull %298) #13
  br label %248

321:                                              ; preds = %305, %309
  call void @llvm.lifetime.end.p0i8(i64 24, i8* nonnull %298) #13
  br label %700

322:                                              ; preds = %294
  %323 = bitcast %"class.std::__1::error_code"* %8 to i8*
  call void @llvm.lifetime.start.p0i8(i64 16, i8* nonnull %323) #13
  %324 = call nonnull align 8 dereferenceable(8) %"class.std::__1::error_category"* @_ZNSt3__116generic_categoryEv() #13
  %325 = getelementptr inbounds %"class.std::__1::error_code", %"class.std::__1::error_code"* %8, i64 0, i32 0
  store i32 17, i32* %325, align 8
  %326 = getelementptr inbounds %"class.std::__1::error_code", %"class.std::__1::error_code"* %8, i64 0, i32 1
  store %"class.std::__1::error_category"* %324, %"class.std::__1::error_category"** %326, align 8
  invoke fastcc void @_ZNKSt3__14__fs10filesystem6detail12_GLOBAL__N_112ErrorHandlerIvE6reportERKNS_10error_codeE(%"struct.std::__1::__fs::filesystem::detail::(anonymous namespace)::ErrorHandler.6"* nonnull %19, %"class.std::__1::error_code"* nonnull align 8 dereferenceable(16) %8)
          to label %327 unwind label %328

327:                                              ; preds = %322
  call void @llvm.lifetime.end.p0i8(i64 16, i8* nonnull %323) #13
  br label %700

328:                                              ; preds = %322
  %329 = landingpad { i8*, i32 }
          cleanup
  %330 = extractvalue { i8*, i32 } %329, 0
  %331 = extractvalue { i8*, i32 } %329, 1
  br label %702

332:                                              ; preds = %290
  %333 = and i16 %2, 64
  %334 = icmp eq i16 %333, 0
  br i1 %334, label %335, label %700

335:                                              ; preds = %332
  %336 = trunc i16 %2 to i8
  %337 = icmp sgt i8 %336, -1
  br i1 %337, label %339, label %338

338:                                              ; preds = %335
  invoke void @_ZNSt3__14__fs10filesystem16__create_symlinkERKNS1_4pathES4_PNS_10error_codeE(%"class.std::__1::__fs::filesystem::path"* nonnull align 8 dereferenceable(24) %0, %"class.std::__1::__fs::filesystem::path"* nonnull align 8 dereferenceable(24) %1, %"class.std::__1::error_code"* %3)
          to label %700 unwind label %246

339:                                              ; preds = %335
  %340 = and i16 %2, 256
  %341 = icmp eq i16 %340, 0
  br i1 %341, label %343, label %342

342:                                              ; preds = %339
  invoke void @_ZNSt3__14__fs10filesystem18__create_hard_linkERKNS1_4pathES4_PNS_10error_codeE(%"class.std::__1::__fs::filesystem::path"* nonnull align 8 dereferenceable(24) %0, %"class.std::__1::__fs::filesystem::path"* nonnull align 8 dereferenceable(24) %1, %"class.std::__1::error_code"* %3)
          to label %700 unwind label %246

343:                                              ; preds = %339
  %344 = icmp eq i8 %239, 2
  br i1 %344, label %345, label %439

345:                                              ; preds = %343
  %346 = bitcast %"class.std::__1::__fs::filesystem::path"* %23 to i8*
  call void @llvm.lifetime.start.p0i8(i64 24, i8* nonnull %346) #13
  %347 = bitcast %"class.std::__1::__fs::filesystem::path"* %24 to i8*
  call void @llvm.lifetime.start.p0i8(i64 24, i8* nonnull %347) #13
  %348 = bitcast %"class.std::__1::basic_string"* %7 to i8*
  call void @llvm.lifetime.start.p0i8(i64 24, i8* nonnull %348) #13, !noalias !80
  %349 = call { i8*, i64 } @_ZNKSt3__14__fs10filesystem4path10__filenameEv(%"class.std::__1::__fs::filesystem::path"* nonnull %0), !noalias !80
  %350 = extractvalue { i8*, i64 } %349, 0
  %351 = extractvalue { i8*, i64 } %349, 1
  %352 = icmp ugt i64 %351, -17
  br i1 %352, label %353, label %356

353:                                              ; preds = %345
  %354 = bitcast %"class.std::__1::basic_string"* %7 to %"class.std::__1::__basic_string_common"*
  invoke void @_ZNKSt3__121__basic_string_commonILb1EE20__throw_length_errorEv(%"class.std::__1::__basic_string_common"* nonnull %354) #22
          to label %355 unwind label %407

355:                                              ; preds = %353
  unreachable

356:                                              ; preds = %345
  %357 = icmp ult i64 %351, 23
  br i1 %357, label %367, label %358

358:                                              ; preds = %356
  %359 = add nuw i64 %351, 16
  %360 = and i64 %359, -16
  %361 = invoke noalias nonnull i8* @_Znwm(i64 %360) #25
          to label %362 unwind label %407

362:                                              ; preds = %358
  %363 = getelementptr inbounds %"class.std::__1::basic_string", %"class.std::__1::basic_string"* %7, i64 0, i32 0, i32 0, i32 0, i32 0, i32 0, i32 2
  store i8* %361, i8** %363, align 8, !tbaa !19, !noalias !80
  %364 = or i64 %360, 1
  %365 = getelementptr inbounds %"class.std::__1::basic_string", %"class.std::__1::basic_string"* %7, i64 0, i32 0, i32 0, i32 0, i32 0, i32 0, i32 0
  store i64 %364, i64* %365, align 8, !tbaa !19, !noalias !80
  %366 = getelementptr inbounds %"class.std::__1::basic_string", %"class.std::__1::basic_string"* %7, i64 0, i32 0, i32 0, i32 0, i32 0, i32 0, i32 1
  store i64 %351, i64* %366, align 8, !tbaa !19, !noalias !80
  br label %373

367:                                              ; preds = %356
  %368 = trunc i64 %351 to i8
  %369 = shl nuw nsw i8 %368, 1
  store i8 %369, i8* %348, align 8, !tbaa !19, !noalias !80
  %370 = bitcast %"class.std::__1::basic_string"* %7 to %"struct.std::__1::basic_string<char, std::__1::char_traits<char>, std::__1::allocator<char>>::__short"*
  %371 = getelementptr inbounds %"struct.std::__1::basic_string<char, std::__1::char_traits<char>, std::__1::allocator<char>>::__short", %"struct.std::__1::basic_string<char, std::__1::char_traits<char>, std::__1::allocator<char>>::__short"* %370, i64 0, i32 1, i64 0
  %372 = icmp eq i64 %351, 0
  br i1 %372, label %375, label %373

373:                                              ; preds = %367, %362
  %374 = phi i8* [ %361, %362 ], [ %371, %367 ]
  call void @llvm.memcpy.p0i8.p0i8.i64(i8* nonnull align 1 %374, i8* align 1 %350, i64 %351, i1 false) #13, !noalias !80
  br label %375

375:                                              ; preds = %373, %367
  %376 = phi i8* [ %371, %367 ], [ %374, %373 ]
  %377 = getelementptr inbounds i8, i8* %376, i64 %351
  store i8 0, i8* %377, align 1, !tbaa !19, !noalias !80
  call void @llvm.memcpy.p0i8.p0i8.i64(i8* nonnull align 8 dereferenceable(24) %347, i8* nonnull align 8 dereferenceable(24) %348, i64 24, i1 false) #13
  call void @llvm.lifetime.end.p0i8(i64 24, i8* nonnull %348) #13, !noalias !80
  %378 = getelementptr inbounds %"class.std::__1::__fs::filesystem::path", %"class.std::__1::__fs::filesystem::path"* %23, i64 0, i32 0
  %379 = getelementptr inbounds %"class.std::__1::__fs::filesystem::path", %"class.std::__1::__fs::filesystem::path"* %1, i64 0, i32 0
  invoke void @_ZNSt3__112basic_stringIcNS_11char_traitsIcEENS_9allocatorIcEEEC1ERKS5_(%"class.std::__1::basic_string"* nonnull %378, %"class.std::__1::basic_string"* nonnull align 8 dereferenceable(24) %379)
          to label %380 unwind label %411

380:                                              ; preds = %375
  %381 = invoke nonnull align 8 dereferenceable(24) %"class.std::__1::__fs::filesystem::path"* @_ZNSt3__14__fs10filesystem4pathdVERKS2_(%"class.std::__1::__fs::filesystem::path"* nonnull %23, %"class.std::__1::__fs::filesystem::path"* nonnull align 8 dereferenceable(24) %24)
          to label %390 unwind label %382

382:                                              ; preds = %380
  %383 = landingpad { i8*, i32 }
          cleanup
  %384 = load i8, i8* %346, align 8, !tbaa !19, !alias.scope !83
  %385 = and i8 %384, 1
  %386 = icmp eq i8 %385, 0
  br i1 %386, label %413, label %387

387:                                              ; preds = %382
  %388 = getelementptr inbounds %"class.std::__1::__fs::filesystem::path", %"class.std::__1::__fs::filesystem::path"* %23, i64 0, i32 0, i32 0, i32 0, i32 0, i32 0, i32 0, i32 2
  %389 = load i8*, i8** %388, align 8, !tbaa !19, !alias.scope !83
  call void @_ZdlPv(i8* %389) #24
  br label %413

390:                                              ; preds = %380
  %391 = invoke zeroext i1 @_ZNSt3__14__fs10filesystem11__copy_fileERKNS1_4pathES4_NS1_12copy_optionsEPNS_10error_codeE(%"class.std::__1::__fs::filesystem::path"* nonnull align 8 dereferenceable(24) %0, %"class.std::__1::__fs::filesystem::path"* nonnull align 8 dereferenceable(24) %23, i16 zeroext %2, %"class.std::__1::error_code"* %3)
          to label %392 unwind label %417

392:                                              ; preds = %390
  %393 = load i8, i8* %346, align 8, !tbaa !19
  %394 = and i8 %393, 1
  %395 = icmp eq i8 %394, 0
  br i1 %395, label %399, label %396

396:                                              ; preds = %392
  %397 = getelementptr inbounds %"class.std::__1::__fs::filesystem::path", %"class.std::__1::__fs::filesystem::path"* %23, i64 0, i32 0, i32 0, i32 0, i32 0, i32 0, i32 0, i32 2
  %398 = load i8*, i8** %397, align 8, !tbaa !19
  call void @_ZdlPv(i8* %398) #24
  br label %399

399:                                              ; preds = %392, %396
  %400 = load i8, i8* %347, align 8, !tbaa !19
  %401 = and i8 %400, 1
  %402 = icmp eq i8 %401, 0
  br i1 %402, label %406, label %403

403:                                              ; preds = %399
  %404 = getelementptr inbounds %"class.std::__1::__fs::filesystem::path", %"class.std::__1::__fs::filesystem::path"* %24, i64 0, i32 0, i32 0, i32 0, i32 0, i32 0, i32 0, i32 2
  %405 = load i8*, i8** %404, align 8, !tbaa !19
  call void @_ZdlPv(i8* %405) #24
  br label %406

406:                                              ; preds = %399, %403
  call void @llvm.lifetime.end.p0i8(i64 24, i8* nonnull %347) #13
  call void @llvm.lifetime.end.p0i8(i64 24, i8* nonnull %346) #13
  br label %700

407:                                              ; preds = %358, %353
  %408 = landingpad { i8*, i32 }
          cleanup
  %409 = extractvalue { i8*, i32 } %408, 0
  %410 = extractvalue { i8*, i32 } %408, 1
  br label %436

411:                                              ; preds = %375
  %412 = landingpad { i8*, i32 }
          cleanup
  br label %413

413:                                              ; preds = %382, %387, %411
  %414 = phi { i8*, i32 } [ %412, %411 ], [ %383, %387 ], [ %383, %382 ]
  %415 = extractvalue { i8*, i32 } %414, 0
  %416 = extractvalue { i8*, i32 } %414, 1
  br label %427

417:                                              ; preds = %390
  %418 = landingpad { i8*, i32 }
          cleanup
  %419 = extractvalue { i8*, i32 } %418, 0
  %420 = extractvalue { i8*, i32 } %418, 1
  %421 = load i8, i8* %346, align 8, !tbaa !19
  %422 = and i8 %421, 1
  %423 = icmp eq i8 %422, 0
  br i1 %423, label %427, label %424

424:                                              ; preds = %417
  %425 = getelementptr inbounds %"class.std::__1::__fs::filesystem::path", %"class.std::__1::__fs::filesystem::path"* %23, i64 0, i32 0, i32 0, i32 0, i32 0, i32 0, i32 0, i32 2
  %426 = load i8*, i8** %425, align 8, !tbaa !19
  call void @_ZdlPv(i8* %426) #24
  br label %427

427:                                              ; preds = %424, %417, %413
  %428 = phi i8* [ %415, %413 ], [ %419, %417 ], [ %419, %424 ]
  %429 = phi i32 [ %416, %413 ], [ %420, %417 ], [ %420, %424 ]
  %430 = load i8, i8* %347, align 8, !tbaa !19
  %431 = and i8 %430, 1
  %432 = icmp eq i8 %431, 0
  br i1 %432, label %436, label %433

433:                                              ; preds = %427
  %434 = getelementptr inbounds %"class.std::__1::__fs::filesystem::path", %"class.std::__1::__fs::filesystem::path"* %24, i64 0, i32 0, i32 0, i32 0, i32 0, i32 0, i32 0, i32 2
  %435 = load i8*, i8** %434, align 8, !tbaa !19
  call void @_ZdlPv(i8* %435) #24
  br label %436

436:                                              ; preds = %433, %427, %407
  %437 = phi i8* [ %409, %407 ], [ %428, %427 ], [ %428, %433 ]
  %438 = phi i32 [ %410, %407 ], [ %429, %427 ], [ %429, %433 ]
  call void @llvm.lifetime.end.p0i8(i64 24, i8* nonnull %347) #13
  call void @llvm.lifetime.end.p0i8(i64 24, i8* nonnull %346) #13
  br label %702

439:                                              ; preds = %343
  %440 = invoke zeroext i1 @_ZNSt3__14__fs10filesystem11__copy_fileERKNS1_4pathES4_NS1_12copy_optionsEPNS_10error_codeE(%"class.std::__1::__fs::filesystem::path"* nonnull align 8 dereferenceable(24) %0, %"class.std::__1::__fs::filesystem::path"* nonnull align 8 dereferenceable(24) %1, i16 zeroext %2, %"class.std::__1::error_code"* %3)
          to label %700 unwind label %246

441:                                              ; preds = %290
  %442 = trunc i16 %2 to i8
  %443 = icmp sgt i8 %442, -1
  br i1 %443, label %454, label %444

444:                                              ; preds = %441
  %445 = bitcast %"class.std::__1::error_code"* %6 to i8*
  call void @llvm.lifetime.start.p0i8(i64 16, i8* nonnull %445) #13
  %446 = call nonnull align 8 dereferenceable(8) %"class.std::__1::error_category"* @_ZNSt3__116generic_categoryEv() #13
  %447 = getelementptr inbounds %"class.std::__1::error_code", %"class.std::__1::error_code"* %6, i64 0, i32 0
  store i32 21, i32* %447, align 8
  %448 = getelementptr inbounds %"class.std::__1::error_code", %"class.std::__1::error_code"* %6, i64 0, i32 1
  store %"class.std::__1::error_category"* %446, %"class.std::__1::error_category"** %448, align 8
  invoke fastcc void @_ZNKSt3__14__fs10filesystem6detail12_GLOBAL__N_112ErrorHandlerIvE6reportERKNS_10error_codeE(%"struct.std::__1::__fs::filesystem::detail::(anonymous namespace)::ErrorHandler.6"* nonnull %19, %"class.std::__1::error_code"* nonnull align 8 dereferenceable(16) %6)
          to label %449 unwind label %450

449:                                              ; preds = %444
  call void @llvm.lifetime.end.p0i8(i64 16, i8* nonnull %445) #13
  br label %700

450:                                              ; preds = %444
  %451 = landingpad { i8*, i32 }
          cleanup
  %452 = extractvalue { i8*, i32 } %451, 0
  %453 = extractvalue { i8*, i32 } %451, 1
  br label %702

454:                                              ; preds = %441
  %455 = and i16 %2, 8
  %456 = icmp ne i16 %455, 0
  %457 = icmp eq i16 %2, 0
  %458 = or i1 %457, %456
  br i1 %458, label %459, label %700

459:                                              ; preds = %454
  %460 = add nsw i8 %239, 1
  %461 = icmp ugt i8 %460, 1
  br i1 %461, label %473, label %462

462:                                              ; preds = %459
  %463 = invoke zeroext i1 @_ZNSt3__14__fs10filesystem18__create_directoryERKNS1_4pathES4_PNS_10error_codeE(%"class.std::__1::__fs::filesystem::path"* nonnull align 8 dereferenceable(24) %1, %"class.std::__1::__fs::filesystem::path"* nonnull align 8 dereferenceable(24) %0, %"class.std::__1::error_code"* %3)
          to label %464 unwind label %246

464:                                              ; preds = %462
  br i1 %34, label %465, label %467

465:                                              ; preds = %464
  %466 = bitcast %"class.std::__1::__fs::filesystem::directory_iterator"* %25 to i8*
  call void @llvm.lifetime.start.p0i8(i64 16, i8* nonnull %466) #13
  br label %477

467:                                              ; preds = %464
  %468 = getelementptr inbounds %"class.std::__1::error_code", %"class.std::__1::error_code"* %3, i64 0, i32 0
  %469 = load i32, i32* %468, align 8, !tbaa !22
  %470 = icmp eq i32 %469, 0
  br i1 %470, label %471, label %700

471:                                              ; preds = %467
  %472 = bitcast %"class.std::__1::__fs::filesystem::directory_iterator"* %25 to i8*
  call void @llvm.lifetime.start.p0i8(i64 16, i8* nonnull %472) #13
  br label %475

473:                                              ; preds = %459
  %474 = bitcast %"class.std::__1::__fs::filesystem::directory_iterator"* %25 to i8*
  call void @llvm.lifetime.start.p0i8(i64 16, i8* nonnull %474) #13
  br i1 %34, label %477, label %475

475:                                              ; preds = %471, %473
  %476 = phi i8* [ %472, %471 ], [ %474, %473 ]
  invoke void @_ZNSt3__14__fs10filesystem18directory_iteratorC2ERKNS1_4pathEPNS_10error_codeENS1_17directory_optionsE(%"class.std::__1::__fs::filesystem::directory_iterator"* nonnull %25, %"class.std::__1::__fs::filesystem::path"* nonnull align 8 dereferenceable(24) %0, %"class.std::__1::error_code"* nonnull %3, i8 zeroext 0)
          to label %479 unwind label %483

477:                                              ; preds = %465, %473
  %478 = phi i8* [ %466, %465 ], [ %474, %473 ]
  invoke void @_ZNSt3__14__fs10filesystem18directory_iteratorC2ERKNS1_4pathEPNS_10error_codeENS1_17directory_optionsE(%"class.std::__1::__fs::filesystem::directory_iterator"* nonnull %25, %"class.std::__1::__fs::filesystem::path"* nonnull align 8 dereferenceable(24) %0, %"class.std::__1::error_code"* null, i8 zeroext 0)
          to label %488 unwind label %483

479:                                              ; preds = %475
  %480 = getelementptr inbounds %"class.std::__1::error_code", %"class.std::__1::error_code"* %3, i64 0, i32 0
  %481 = load i32, i32* %480, align 8, !tbaa !22
  %482 = icmp eq i32 %481, 0
  br i1 %482, label %488, label %682

483:                                              ; preds = %477, %475
  %484 = phi i8* [ %478, %477 ], [ %476, %475 ]
  %485 = landingpad { i8*, i32 }
          cleanup
  %486 = extractvalue { i8*, i32 } %485, 0
  %487 = extractvalue { i8*, i32 } %485, 1
  br label %696

488:                                              ; preds = %479, %477
  %489 = phi i8* [ %476, %479 ], [ %478, %477 ]
  %490 = bitcast %"class.std::__1::error_code"* %26 to i8*
  call void @llvm.lifetime.start.p0i8(i64 16, i8* nonnull %490) #13
  %491 = getelementptr inbounds %"class.std::__1::error_code", %"class.std::__1::error_code"* %26, i64 0, i32 0
  store i32 0, i32* %491, align 8, !tbaa !22
  %492 = getelementptr inbounds %"class.std::__1::error_code", %"class.std::__1::error_code"* %26, i64 0, i32 1
  %493 = call nonnull align 8 dereferenceable(8) %"class.std::__1::error_category"* @_ZNSt3__115system_categoryEv() #13
  store %"class.std::__1::error_category"* %493, %"class.std::__1::error_category"** %492, align 8, !tbaa !24
  %494 = getelementptr inbounds %"class.std::__1::__fs::filesystem::directory_iterator", %"class.std::__1::__fs::filesystem::directory_iterator"* %25, i64 0, i32 0, i32 0
  %495 = bitcast %"class.std::__1::__fs::filesystem::path"* %27 to i8*
  %496 = bitcast %"class.std::__1::__fs::filesystem::path"* %28 to i8*
  %497 = bitcast %"class.std::__1::basic_string"* %5 to i8*
  %498 = getelementptr inbounds %"class.std::__1::basic_string", %"class.std::__1::basic_string"* %5, i64 0, i32 0, i32 0, i32 0, i32 0, i32 0, i32 2
  %499 = getelementptr inbounds %"class.std::__1::basic_string", %"class.std::__1::basic_string"* %5, i64 0, i32 0, i32 0, i32 0, i32 0, i32 0, i32 0
  %500 = getelementptr inbounds %"class.std::__1::basic_string", %"class.std::__1::basic_string"* %5, i64 0, i32 0, i32 0, i32 0, i32 0, i32 0, i32 1
  %501 = bitcast %"class.std::__1::basic_string"* %5 to %"struct.std::__1::basic_string<char, std::__1::char_traits<char>, std::__1::allocator<char>>::__short"*
  %502 = getelementptr inbounds %"struct.std::__1::basic_string<char, std::__1::char_traits<char>, std::__1::allocator<char>>::__short", %"struct.std::__1::basic_string<char, std::__1::char_traits<char>, std::__1::allocator<char>>::__short"* %501, i64 0, i32 1, i64 0
  %503 = getelementptr inbounds %"class.std::__1::__fs::filesystem::path", %"class.std::__1::__fs::filesystem::path"* %27, i64 0, i32 0
  %504 = getelementptr inbounds %"class.std::__1::__fs::filesystem::path", %"class.std::__1::__fs::filesystem::path"* %1, i64 0, i32 0
  %505 = or i16 %2, 512
  %506 = getelementptr inbounds %"class.std::__1::__fs::filesystem::path", %"class.std::__1::__fs::filesystem::path"* %27, i64 0, i32 0, i32 0, i32 0, i32 0, i32 0, i32 0, i32 2
  %507 = getelementptr inbounds %"class.std::__1::__fs::filesystem::path", %"class.std::__1::__fs::filesystem::path"* %28, i64 0, i32 0, i32 0, i32 0, i32 0, i32 0, i32 0, i32 2
  %508 = getelementptr inbounds %"class.std::__1::error_code", %"class.std::__1::error_code"* %3, i64 0, i32 0
  br i1 %34, label %509, label %570

509:                                              ; preds = %488, %558
  %510 = load %"class.std::__1::__fs::filesystem::__dir_stream"*, %"class.std::__1::__fs::filesystem::__dir_stream"** %494, align 8, !tbaa !86
  %511 = icmp eq %"class.std::__1::__fs::filesystem::__dir_stream"* %510, null
  br i1 %511, label %681, label %512

512:                                              ; preds = %509
  %513 = load i32, i32* %491, align 8, !tbaa !22
  %514 = icmp eq i32 %513, 0
  br i1 %514, label %515, label %576

515:                                              ; preds = %512
  %516 = invoke nonnull align 16 dereferenceable(80) %"class.std::__1::__fs::filesystem::directory_entry"* @_ZNKSt3__14__fs10filesystem18directory_iterator13__dereferenceEv(%"class.std::__1::__fs::filesystem::directory_iterator"* nonnull %25)
          to label %517 unwind label %560

517:                                              ; preds = %515
  %518 = getelementptr inbounds %"class.std::__1::__fs::filesystem::directory_entry", %"class.std::__1::__fs::filesystem::directory_entry"* %516, i64 0, i32 0
  call void @llvm.lifetime.start.p0i8(i64 24, i8* nonnull %495) #13
  call void @llvm.lifetime.start.p0i8(i64 24, i8* nonnull %496) #13
  %519 = invoke nonnull align 16 dereferenceable(80) %"class.std::__1::__fs::filesystem::directory_entry"* @_ZNKSt3__14__fs10filesystem18directory_iterator13__dereferenceEv(%"class.std::__1::__fs::filesystem::directory_iterator"* nonnull %25)
          to label %520 unwind label %562

520:                                              ; preds = %517
  %521 = getelementptr inbounds %"class.std::__1::__fs::filesystem::directory_entry", %"class.std::__1::__fs::filesystem::directory_entry"* %519, i64 0, i32 0
  call void @llvm.lifetime.start.p0i8(i64 24, i8* nonnull %497) #13, !noalias !88
  %522 = call { i8*, i64 } @_ZNKSt3__14__fs10filesystem4path10__filenameEv(%"class.std::__1::__fs::filesystem::path"* nonnull %521), !noalias !88
  %523 = extractvalue { i8*, i64 } %522, 0
  %524 = extractvalue { i8*, i64 } %522, 1
  %525 = icmp ugt i64 %524, -17
  br i1 %525, label %596, label %526

526:                                              ; preds = %520
  %527 = icmp ult i64 %524, 23
  br i1 %527, label %534, label %528

528:                                              ; preds = %526
  %529 = add nuw i64 %524, 16
  %530 = and i64 %529, -16
  %531 = invoke noalias nonnull i8* @_Znwm(i64 %530) #25
          to label %532 unwind label %562

532:                                              ; preds = %528
  store i8* %531, i8** %498, align 8, !tbaa !19, !noalias !88
  %533 = or i64 %530, 1
  store i64 %533, i64* %499, align 8, !tbaa !19, !noalias !88
  store i64 %524, i64* %500, align 8, !tbaa !19, !noalias !88
  br label %538

534:                                              ; preds = %526
  %535 = trunc i64 %524 to i8
  %536 = shl nuw nsw i8 %535, 1
  store i8 %536, i8* %497, align 8, !tbaa !19, !noalias !88
  %537 = icmp eq i64 %524, 0
  br i1 %537, label %540, label %538

538:                                              ; preds = %534, %532
  %539 = phi i8* [ %531, %532 ], [ %502, %534 ]
  call void @llvm.memcpy.p0i8.p0i8.i64(i8* nonnull align 1 %539, i8* align 1 %523, i64 %524, i1 false) #13, !noalias !88
  br label %540

540:                                              ; preds = %538, %534
  %541 = phi i8* [ %502, %534 ], [ %539, %538 ]
  %542 = getelementptr inbounds i8, i8* %541, i64 %524
  store i8 0, i8* %542, align 1, !tbaa !19, !noalias !88
  call void @llvm.memcpy.p0i8.p0i8.i64(i8* nonnull align 8 dereferenceable(24) %496, i8* nonnull align 8 dereferenceable(24) %497, i64 24, i1 false) #13
  call void @llvm.lifetime.end.p0i8(i64 24, i8* nonnull %497) #13, !noalias !88
  invoke void @_ZNSt3__112basic_stringIcNS_11char_traitsIcEENS_9allocatorIcEEEC1ERKS5_(%"class.std::__1::basic_string"* nonnull %503, %"class.std::__1::basic_string"* nonnull align 8 dereferenceable(24) %504)
          to label %543 unwind label %564

543:                                              ; preds = %540
  %544 = invoke nonnull align 8 dereferenceable(24) %"class.std::__1::__fs::filesystem::path"* @_ZNSt3__14__fs10filesystem4pathdVERKS2_(%"class.std::__1::__fs::filesystem::path"* nonnull %27, %"class.std::__1::__fs::filesystem::path"* nonnull align 8 dereferenceable(24) %28)
          to label %545 unwind label %566

545:                                              ; preds = %543
  invoke void @_ZNSt3__14__fs10filesystem6__copyERKNS1_4pathES4_NS1_12copy_optionsEPNS_10error_codeE(%"class.std::__1::__fs::filesystem::path"* nonnull align 8 dereferenceable(24) %518, %"class.std::__1::__fs::filesystem::path"* nonnull align 8 dereferenceable(24) %27, i16 zeroext %505, %"class.std::__1::error_code"* null)
          to label %546 unwind label %568

546:                                              ; preds = %545
  %547 = load i8, i8* %495, align 8, !tbaa !19
  %548 = and i8 %547, 1
  %549 = icmp eq i8 %548, 0
  br i1 %549, label %552, label %550

550:                                              ; preds = %546
  %551 = load i8*, i8** %506, align 8, !tbaa !19
  call void @_ZdlPv(i8* %551) #24
  br label %552

552:                                              ; preds = %550, %546
  %553 = load i8, i8* %496, align 8, !tbaa !19
  %554 = and i8 %553, 1
  %555 = icmp eq i8 %554, 0
  br i1 %555, label %558, label %556

556:                                              ; preds = %552
  %557 = load i8*, i8** %507, align 8, !tbaa !19
  call void @_ZdlPv(i8* %557) #24
  br label %558

558:                                              ; preds = %556, %552
  call void @llvm.lifetime.end.p0i8(i64 24, i8* nonnull %496) #13
  call void @llvm.lifetime.end.p0i8(i64 24, i8* nonnull %495) #13
  %559 = invoke nonnull align 8 dereferenceable(16) %"class.std::__1::__fs::filesystem::directory_iterator"* @_ZNSt3__14__fs10filesystem18directory_iterator11__incrementEPNS_10error_codeE(%"class.std::__1::__fs::filesystem::directory_iterator"* nonnull %25, %"class.std::__1::error_code"* nonnull %26)
          to label %509 unwind label %560

560:                                              ; preds = %558, %515
  %561 = landingpad { i8*, i32 }
          cleanup
  br label %581

562:                                              ; preds = %528, %517
  %563 = landingpad { i8*, i32 }
          cleanup
  br label %647

564:                                              ; preds = %540
  %565 = landingpad { i8*, i32 }
          cleanup
  br label %653

566:                                              ; preds = %543
  %567 = landingpad { i8*, i32 }
          cleanup
  br label %620

568:                                              ; preds = %545
  %569 = landingpad { i8*, i32 }
          cleanup
  br label %659

570:                                              ; preds = %488, %679
  %571 = load %"class.std::__1::__fs::filesystem::__dir_stream"*, %"class.std::__1::__fs::filesystem::__dir_stream"** %494, align 8, !tbaa !86
  %572 = icmp eq %"class.std::__1::__fs::filesystem::__dir_stream"* %571, null
  br i1 %572, label %681, label %573

573:                                              ; preds = %570
  %574 = load i32, i32* %491, align 8, !tbaa !22
  %575 = icmp eq i32 %574, 0
  br i1 %575, label %585, label %576

576:                                              ; preds = %573, %512
  invoke fastcc void @_ZNKSt3__14__fs10filesystem6detail12_GLOBAL__N_112ErrorHandlerIvE6reportERKNS_10error_codeE(%"struct.std::__1::__fs::filesystem::detail::(anonymous namespace)::ErrorHandler.6"* nonnull %19, %"class.std::__1::error_code"* nonnull align 8 dereferenceable(16) %26)
          to label %681 unwind label %579

577:                                              ; preds = %585, %679
  %578 = landingpad { i8*, i32 }
          cleanup
  br label %581

579:                                              ; preds = %576
  %580 = landingpad { i8*, i32 }
          cleanup
  br label %581

581:                                              ; preds = %577, %560, %579
  %582 = phi { i8*, i32 } [ %580, %579 ], [ %561, %560 ], [ %578, %577 ]
  %583 = extractvalue { i8*, i32 } %582, 0
  %584 = extractvalue { i8*, i32 } %582, 1
  br label %689

585:                                              ; preds = %573
  %586 = invoke nonnull align 16 dereferenceable(80) %"class.std::__1::__fs::filesystem::directory_entry"* @_ZNKSt3__14__fs10filesystem18directory_iterator13__dereferenceEv(%"class.std::__1::__fs::filesystem::directory_iterator"* nonnull %25)
          to label %587 unwind label %577

587:                                              ; preds = %585
  %588 = getelementptr inbounds %"class.std::__1::__fs::filesystem::directory_entry", %"class.std::__1::__fs::filesystem::directory_entry"* %586, i64 0, i32 0
  call void @llvm.lifetime.start.p0i8(i64 24, i8* nonnull %495) #13
  call void @llvm.lifetime.start.p0i8(i64 24, i8* nonnull %496) #13
  %589 = invoke nonnull align 16 dereferenceable(80) %"class.std::__1::__fs::filesystem::directory_entry"* @_ZNKSt3__14__fs10filesystem18directory_iterator13__dereferenceEv(%"class.std::__1::__fs::filesystem::directory_iterator"* nonnull %25)
          to label %590 unwind label %643

590:                                              ; preds = %587
  %591 = getelementptr inbounds %"class.std::__1::__fs::filesystem::directory_entry", %"class.std::__1::__fs::filesystem::directory_entry"* %589, i64 0, i32 0
  call void @llvm.lifetime.start.p0i8(i64 24, i8* nonnull %497) #13, !noalias !88
  %592 = call { i8*, i64 } @_ZNKSt3__14__fs10filesystem4path10__filenameEv(%"class.std::__1::__fs::filesystem::path"* nonnull %591), !noalias !88
  %593 = extractvalue { i8*, i64 } %592, 0
  %594 = extractvalue { i8*, i64 } %592, 1
  %595 = icmp ugt i64 %594, -17
  br i1 %595, label %596, label %599

596:                                              ; preds = %590, %520
  %597 = bitcast %"class.std::__1::basic_string"* %5 to %"class.std::__1::__basic_string_common"*
  invoke void @_ZNKSt3__121__basic_string_commonILb1EE20__throw_length_errorEv(%"class.std::__1::__basic_string_common"* nonnull %597) #22
          to label %598 unwind label %645

598:                                              ; preds = %596
  unreachable

599:                                              ; preds = %590
  %600 = icmp ult i64 %594, 23
  br i1 %600, label %607, label %601

601:                                              ; preds = %599
  %602 = add nuw i64 %594, 16
  %603 = and i64 %602, -16
  %604 = invoke noalias nonnull i8* @_Znwm(i64 %603) #25
          to label %605 unwind label %643

605:                                              ; preds = %601
  store i8* %604, i8** %498, align 8, !tbaa !19, !noalias !88
  %606 = or i64 %603, 1
  store i64 %606, i64* %499, align 8, !tbaa !19, !noalias !88
  store i64 %594, i64* %500, align 8, !tbaa !19, !noalias !88
  br label %611

607:                                              ; preds = %599
  %608 = trunc i64 %594 to i8
  %609 = shl nuw nsw i8 %608, 1
  store i8 %609, i8* %497, align 8, !tbaa !19, !noalias !88
  %610 = icmp eq i64 %594, 0
  br i1 %610, label %613, label %611

611:                                              ; preds = %607, %605
  %612 = phi i8* [ %604, %605 ], [ %502, %607 ]
  call void @llvm.memcpy.p0i8.p0i8.i64(i8* nonnull align 1 %612, i8* align 1 %593, i64 %594, i1 false) #13, !noalias !88
  br label %613

613:                                              ; preds = %611, %607
  %614 = phi i8* [ %502, %607 ], [ %612, %611 ]
  %615 = getelementptr inbounds i8, i8* %614, i64 %594
  store i8 0, i8* %615, align 1, !tbaa !19, !noalias !88
  call void @llvm.memcpy.p0i8.p0i8.i64(i8* nonnull align 8 dereferenceable(24) %496, i8* nonnull align 8 dereferenceable(24) %497, i64 24, i1 false) #13
  call void @llvm.lifetime.end.p0i8(i64 24, i8* nonnull %497) #13, !noalias !88
  invoke void @_ZNSt3__112basic_stringIcNS_11char_traitsIcEENS_9allocatorIcEEEC1ERKS5_(%"class.std::__1::basic_string"* nonnull %503, %"class.std::__1::basic_string"* nonnull align 8 dereferenceable(24) %504)
          to label %616 unwind label %651

616:                                              ; preds = %613
  %617 = invoke nonnull align 8 dereferenceable(24) %"class.std::__1::__fs::filesystem::path"* @_ZNSt3__14__fs10filesystem4pathdVERKS2_(%"class.std::__1::__fs::filesystem::path"* nonnull %27, %"class.std::__1::__fs::filesystem::path"* nonnull align 8 dereferenceable(24) %28)
          to label %627 unwind label %618

618:                                              ; preds = %616
  %619 = landingpad { i8*, i32 }
          cleanup
  br label %620

620:                                              ; preds = %566, %618
  %621 = phi { i8*, i32 } [ %567, %566 ], [ %619, %618 ]
  %622 = load i8, i8* %495, align 8, !tbaa !19, !alias.scope !91
  %623 = and i8 %622, 1
  %624 = icmp eq i8 %623, 0
  br i1 %624, label %653, label %625

625:                                              ; preds = %620
  %626 = load i8*, i8** %506, align 8, !tbaa !19, !alias.scope !91
  call void @_ZdlPv(i8* %626) #24
  br label %653

627:                                              ; preds = %616
  invoke void @_ZNSt3__14__fs10filesystem6__copyERKNS1_4pathES4_NS1_12copy_optionsEPNS_10error_codeE(%"class.std::__1::__fs::filesystem::path"* nonnull align 8 dereferenceable(24) %588, %"class.std::__1::__fs::filesystem::path"* nonnull align 8 dereferenceable(24) %27, i16 zeroext %505, %"class.std::__1::error_code"* nonnull %3)
          to label %628 unwind label %657

628:                                              ; preds = %627
  %629 = load i8, i8* %495, align 8, !tbaa !19
  %630 = and i8 %629, 1
  %631 = icmp eq i8 %630, 0
  br i1 %631, label %634, label %632

632:                                              ; preds = %628
  %633 = load i8*, i8** %506, align 8, !tbaa !19
  call void @_ZdlPv(i8* %633) #24
  br label %634

634:                                              ; preds = %628, %632
  %635 = load i8, i8* %496, align 8, !tbaa !19
  %636 = and i8 %635, 1
  %637 = icmp eq i8 %636, 0
  br i1 %637, label %640, label %638

638:                                              ; preds = %634
  %639 = load i8*, i8** %507, align 8, !tbaa !19
  call void @_ZdlPv(i8* %639) #24
  br label %640

640:                                              ; preds = %634, %638
  call void @llvm.lifetime.end.p0i8(i64 24, i8* nonnull %496) #13
  call void @llvm.lifetime.end.p0i8(i64 24, i8* nonnull %495) #13
  %641 = load i32, i32* %508, align 8, !tbaa !22
  %642 = icmp eq i32 %641, 0
  br i1 %642, label %679, label %681

643:                                              ; preds = %587, %601
  %644 = landingpad { i8*, i32 }
          cleanup
  br label %647

645:                                              ; preds = %596
  %646 = landingpad { i8*, i32 }
          cleanup
  br label %647

647:                                              ; preds = %643, %562, %645
  %648 = phi { i8*, i32 } [ %646, %645 ], [ %563, %562 ], [ %644, %643 ]
  %649 = extractvalue { i8*, i32 } %648, 0
  %650 = extractvalue { i8*, i32 } %648, 1
  br label %676

651:                                              ; preds = %613
  %652 = landingpad { i8*, i32 }
          cleanup
  br label %653

653:                                              ; preds = %651, %564, %620, %625
  %654 = phi { i8*, i32 } [ %621, %625 ], [ %621, %620 ], [ %565, %564 ], [ %652, %651 ]
  %655 = extractvalue { i8*, i32 } %654, 0
  %656 = extractvalue { i8*, i32 } %654, 1
  br label %668

657:                                              ; preds = %627
  %658 = landingpad { i8*, i32 }
          cleanup
  br label %659

659:                                              ; preds = %568, %657
  %660 = phi { i8*, i32 } [ %569, %568 ], [ %658, %657 ]
  %661 = extractvalue { i8*, i32 } %660, 0
  %662 = extractvalue { i8*, i32 } %660, 1
  %663 = load i8, i8* %495, align 8, !tbaa !19
  %664 = and i8 %663, 1
  %665 = icmp eq i8 %664, 0
  br i1 %665, label %668, label %666

666:                                              ; preds = %659
  %667 = load i8*, i8** %506, align 8, !tbaa !19
  call void @_ZdlPv(i8* %667) #24
  br label %668

668:                                              ; preds = %666, %659, %653
  %669 = phi i8* [ %655, %653 ], [ %661, %659 ], [ %661, %666 ]
  %670 = phi i32 [ %656, %653 ], [ %662, %659 ], [ %662, %666 ]
  %671 = load i8, i8* %496, align 8, !tbaa !19
  %672 = and i8 %671, 1
  %673 = icmp eq i8 %672, 0
  br i1 %673, label %676, label %674

674:                                              ; preds = %668
  %675 = load i8*, i8** %507, align 8, !tbaa !19
  call void @_ZdlPv(i8* %675) #24
  br label %676

676:                                              ; preds = %674, %668, %647
  %677 = phi i8* [ %649, %647 ], [ %669, %668 ], [ %669, %674 ]
  %678 = phi i32 [ %650, %647 ], [ %670, %668 ], [ %670, %674 ]
  call void @llvm.lifetime.end.p0i8(i64 24, i8* nonnull %496) #13
  call void @llvm.lifetime.end.p0i8(i64 24, i8* nonnull %495) #13
  br label %689

679:                                              ; preds = %640
  %680 = invoke nonnull align 8 dereferenceable(16) %"class.std::__1::__fs::filesystem::directory_iterator"* @_ZNSt3__14__fs10filesystem18directory_iterator11__incrementEPNS_10error_codeE(%"class.std::__1::__fs::filesystem::directory_iterator"* nonnull %25, %"class.std::__1::error_code"* nonnull %26)
          to label %570 unwind label %577

681:                                              ; preds = %640, %570, %509, %576
  call void @llvm.lifetime.end.p0i8(i64 16, i8* nonnull %490) #13
  br label %682

682:                                              ; preds = %479, %681
  %683 = phi i8* [ %476, %479 ], [ %489, %681 ]
  %684 = getelementptr inbounds %"class.std::__1::__fs::filesystem::directory_iterator", %"class.std::__1::__fs::filesystem::directory_iterator"* %25, i64 0, i32 0, i32 1
  %685 = load %"class.std::__1::__shared_weak_count"*, %"class.std::__1::__shared_weak_count"** %684, align 8, !tbaa !94
  %686 = icmp eq %"class.std::__1::__shared_weak_count"* %685, null
  br i1 %686, label %688, label %687

687:                                              ; preds = %682
  call void @_ZNSt3__119__shared_weak_count16__release_sharedEv(%"class.std::__1::__shared_weak_count"* nonnull %685) #13
  br label %688

688:                                              ; preds = %682, %687
  call void @llvm.lifetime.end.p0i8(i64 16, i8* nonnull %683) #13
  br label %700

689:                                              ; preds = %676, %581
  %690 = phi i8* [ %583, %581 ], [ %677, %676 ]
  %691 = phi i32 [ %584, %581 ], [ %678, %676 ]
  call void @llvm.lifetime.end.p0i8(i64 16, i8* nonnull %490) #13
  %692 = getelementptr inbounds %"class.std::__1::__fs::filesystem::directory_iterator", %"class.std::__1::__fs::filesystem::directory_iterator"* %25, i64 0, i32 0, i32 1
  %693 = load %"class.std::__1::__shared_weak_count"*, %"class.std::__1::__shared_weak_count"** %692, align 8, !tbaa !94
  %694 = icmp eq %"class.std::__1::__shared_weak_count"* %693, null
  br i1 %694, label %696, label %695

695:                                              ; preds = %689
  call void @_ZNSt3__119__shared_weak_count16__release_sharedEv(%"class.std::__1::__shared_weak_count"* nonnull %693) #13
  br label %696

696:                                              ; preds = %695, %689, %483
  %697 = phi i8* [ %484, %483 ], [ %489, %689 ], [ %489, %695 ]
  %698 = phi i8* [ %486, %483 ], [ %690, %689 ], [ %690, %695 ]
  %699 = phi i32 [ %487, %483 ], [ %691, %689 ], [ %691, %695 ]
  call void @llvm.lifetime.end.p0i8(i64 16, i8* nonnull %697) #13
  br label %702

700:                                              ; preds = %467, %321, %688, %454, %342, %439, %406, %338, %332, %291, %241, %449, %327, %280
  call void @llvm.lifetime.end.p0i8(i64 144, i8* nonnull %147) #13
  br label %701

701:                                              ; preds = %141, %700
  call void @llvm.lifetime.end.p0i8(i64 144, i8* nonnull %46) #13
  call void @llvm.lifetime.end.p0i8(i64 16, i8* nonnull %42) #13
  call void @llvm.lifetime.end.p0i8(i64 32, i8* nonnull %29) #13
  ret void

702:                                              ; preds = %248, %281, %328, %436, %450, %696, %242
  %703 = phi i8* [ %244, %242 ], [ %250, %248 ], [ %283, %281 ], [ %330, %328 ], [ %437, %436 ], [ %452, %450 ], [ %698, %696 ]
  %704 = phi i32 [ %245, %242 ], [ %251, %248 ], [ %284, %281 ], [ %331, %328 ], [ %438, %436 ], [ %453, %450 ], [ %699, %696 ]
  call void @llvm.lifetime.end.p0i8(i64 144, i8* nonnull %147) #13
  br label %705

705:                                              ; preds = %702, %142
  %706 = phi i8* [ %144, %142 ], [ %703, %702 ]
  %707 = phi i32 [ %145, %142 ], [ %704, %702 ]
  call void @llvm.lifetime.end.p0i8(i64 144, i8* nonnull %46) #13
  call void @llvm.lifetime.end.p0i8(i64 16, i8* nonnull %42) #13
  call void @llvm.lifetime.end.p0i8(i64 32, i8* nonnull %29) #13
  %708 = insertvalue { i8*, i32 } undef, i8* %706, 0
  %709 = insertvalue { i8*, i32 } %708, i32 %707, 1
  resume { i8*, i32 } %709
}

; Function Attrs: argmemonly nounwind willreturn writeonly
declare void @llvm.memset.p0i8.i64(i8* nocapture writeonly, i8, i64, i1 immarg) #9

; Function Attrs: uwtable
define internal fastcc void @_ZNKSt3__14__fs10filesystem6detail12_GLOBAL__N_112ErrorHandlerIvE6reportERKNS_10error_codeE(%"struct.std::__1::__fs::filesystem::detail::(anonymous namespace)::ErrorHandler.6"* nocapture readonly %0, %"class.std::__1::error_code"* nonnull align 8 dereferenceable(16) %1) unnamed_addr #7 align 2 personality i8* bitcast (i32 (...)* @__gxx_personality_v0 to i8*) {
  %3 = alloca %"class.std::__1::basic_string", align 8
  %4 = alloca %"class.std::__1::basic_string", align 8
  %5 = getelementptr inbounds %"struct.std::__1::__fs::filesystem::detail::(anonymous namespace)::ErrorHandler.6", %"struct.std::__1::__fs::filesystem::detail::(anonymous namespace)::ErrorHandler.6"* %0, i64 0, i32 1
  %6 = load %"class.std::__1::error_code"*, %"class.std::__1::error_code"** %5, align 8, !tbaa !49
  %7 = icmp eq %"class.std::__1::error_code"* %6, null
  br i1 %7, label %11, label %8

8:                                                ; preds = %2
  %9 = bitcast %"class.std::__1::error_code"* %6 to i8*
  %10 = bitcast %"class.std::__1::error_code"* %1 to i8*
  tail call void @llvm.memcpy.p0i8.p0i8.i64(i8* nonnull align 8 dereferenceable(16) %9, i8* nonnull align 8 dereferenceable(16) %10, i64 16, i1 false), !tbaa.struct !40
  ret void

11:                                               ; preds = %2
  %12 = bitcast %"class.std::__1::basic_string"* %3 to i8*
  call void @llvm.lifetime.start.p0i8(i64 24, i8* nonnull %12) #13
  %13 = bitcast %"class.std::__1::basic_string"* %4 to i8*
  call void @llvm.lifetime.start.p0i8(i64 24, i8* nonnull %13) #13
  store i8 6, i8* %13, align 8, !tbaa !19
  %14 = bitcast %"class.std::__1::basic_string"* %4 to %"struct.std::__1::basic_string<char, std::__1::char_traits<char>, std::__1::allocator<char>>::__short"*
  %15 = getelementptr inbounds %"struct.std::__1::basic_string<char, std::__1::char_traits<char>, std::__1::allocator<char>>::__short", %"struct.std::__1::basic_string<char, std::__1::char_traits<char>, std::__1::allocator<char>>::__short"* %14, i64 0, i32 1, i64 0
  call void @llvm.memcpy.p0i8.p0i8.i64(i8* nonnull align 1 dereferenceable(3) %15, i8* nonnull align 1 dereferenceable(3) getelementptr inbounds ([4 x i8], [4 x i8]* @.str.41, i64 0, i64 0), i64 3, i1 false) #13
  %16 = getelementptr inbounds %"struct.std::__1::basic_string<char, std::__1::char_traits<char>, std::__1::allocator<char>>::__short", %"struct.std::__1::basic_string<char, std::__1::char_traits<char>, std::__1::allocator<char>>::__short"* %14, i64 0, i32 1, i64 3
  store i8 0, i8* %16, align 1, !tbaa !19
  %17 = getelementptr inbounds %"struct.std::__1::__fs::filesystem::detail::(anonymous namespace)::ErrorHandler.6", %"struct.std::__1::__fs::filesystem::detail::(anonymous namespace)::ErrorHandler.6"* %0, i64 0, i32 0
  %18 = load i8*, i8** %17, align 8, !tbaa !47
  %19 = invoke nonnull align 8 dereferenceable(24) %"class.std::__1::basic_string"* @_ZNSt3__112basic_stringIcNS_11char_traitsIcEENS_9allocatorIcEEE6appendEPKc(%"class.std::__1::basic_string"* nonnull %4, i8* %18)
          to label %20 unwind label %38

20:                                               ; preds = %11
  %21 = bitcast %"class.std::__1::basic_string"* %19 to i8*
  call void @llvm.memcpy.p0i8.p0i8.i64(i8* nonnull align 8 dereferenceable(24) %12, i8* nonnull align 8 dereferenceable(24) %21, i64 24, i1 false) #13
  call void @llvm.memset.p0i8.i64(i8* nonnull align 8 dereferenceable(24) %21, i8 0, i64 24, i1 false) #13, !noalias !95
  %22 = load i8, i8* %13, align 8, !tbaa !19
  %23 = and i8 %22, 1
  %24 = icmp eq i8 %23, 0
  br i1 %24, label %28, label %25

25:                                               ; preds = %20
  %26 = getelementptr inbounds %"class.std::__1::basic_string", %"class.std::__1::basic_string"* %4, i64 0, i32 0, i32 0, i32 0, i32 0, i32 0, i32 2
  %27 = load i8*, i8** %26, align 8, !tbaa !19
  call void @_ZdlPv(i8* %27) #24
  br label %28

28:                                               ; preds = %20, %25
  call void @llvm.lifetime.end.p0i8(i64 24, i8* nonnull %13) #13
  %29 = getelementptr inbounds %"struct.std::__1::__fs::filesystem::detail::(anonymous namespace)::ErrorHandler.6", %"struct.std::__1::__fs::filesystem::detail::(anonymous namespace)::ErrorHandler.6"* %0, i64 0, i32 2
  %30 = load %"class.std::__1::__fs::filesystem::path"*, %"class.std::__1::__fs::filesystem::path"** %29, align 8, !tbaa !50
  %31 = icmp ne %"class.std::__1::__fs::filesystem::path"* %30, null
  %32 = zext i1 %31 to i32
  %33 = getelementptr inbounds %"struct.std::__1::__fs::filesystem::detail::(anonymous namespace)::ErrorHandler.6", %"struct.std::__1::__fs::filesystem::detail::(anonymous namespace)::ErrorHandler.6"* %0, i64 0, i32 3
  %34 = load %"class.std::__1::__fs::filesystem::path"*, %"class.std::__1::__fs::filesystem::path"** %33, align 8, !tbaa !51
  %35 = icmp ne %"class.std::__1::__fs::filesystem::path"* %34, null
  %36 = zext i1 %35 to i32
  %37 = add nuw nsw i32 %36, %32
  switch i32 %37, label %65 [
    i32 0, label %49
    i32 1, label %61
    i32 2, label %63
  ]

38:                                               ; preds = %11
  %39 = landingpad { i8*, i32 }
          cleanup
  %40 = extractvalue { i8*, i32 } %39, 0
  %41 = extractvalue { i8*, i32 } %39, 1
  %42 = load i8, i8* %13, align 8, !tbaa !19
  %43 = and i8 %42, 1
  %44 = icmp eq i8 %43, 0
  br i1 %44, label %48, label %45

45:                                               ; preds = %38
  %46 = getelementptr inbounds %"class.std::__1::basic_string", %"class.std::__1::basic_string"* %4, i64 0, i32 0, i32 0, i32 0, i32 0, i32 0, i32 2
  %47 = load i8*, i8** %46, align 8, !tbaa !19
  call void @_ZdlPv(i8* %47) #24
  br label %48

48:                                               ; preds = %38, %45
  call void @llvm.lifetime.end.p0i8(i64 24, i8* nonnull %13) #13
  br label %66

49:                                               ; preds = %28
  invoke void @_ZNSt3__14__fs10filesystem24__throw_filesystem_errorIJRNS_12basic_stringIcNS_11char_traitsIcEENS_9allocatorIcEEEERKNS_10error_codeEEEEvDpOT_(%"class.std::__1::basic_string"* nonnull align 8 dereferenceable(24) %3, %"class.std::__1::error_code"* nonnull align 8 dereferenceable(16) %1) #22
          to label %50 unwind label %51

50:                                               ; preds = %49
  unreachable

51:                                               ; preds = %63, %61, %49
  %52 = landingpad { i8*, i32 }
          cleanup
  %53 = extractvalue { i8*, i32 } %52, 0
  %54 = extractvalue { i8*, i32 } %52, 1
  %55 = load i8, i8* %12, align 8, !tbaa !19
  %56 = and i8 %55, 1
  %57 = icmp eq i8 %56, 0
  br i1 %57, label %66, label %58

58:                                               ; preds = %51
  %59 = getelementptr inbounds %"class.std::__1::basic_string", %"class.std::__1::basic_string"* %3, i64 0, i32 0, i32 0, i32 0, i32 0, i32 0, i32 2
  %60 = load i8*, i8** %59, align 8, !tbaa !19
  call void @_ZdlPv(i8* %60) #24
  br label %66

61:                                               ; preds = %28
  invoke void @_ZNSt3__14__fs10filesystem24__throw_filesystem_errorIJRNS_12basic_stringIcNS_11char_traitsIcEENS_9allocatorIcEEEERKNS1_4pathERKNS_10error_codeEEEEvDpOT_(%"class.std::__1::basic_string"* nonnull align 8 dereferenceable(24) %3, %"class.std::__1::__fs::filesystem::path"* nonnull align 8 dereferenceable(24) %30, %"class.std::__1::error_code"* nonnull align 8 dereferenceable(16) %1) #22
          to label %62 unwind label %51

62:                                               ; preds = %61
  unreachable

63:                                               ; preds = %28
  invoke void @_ZNSt3__14__fs10filesystem24__throw_filesystem_errorIJRNS_12basic_stringIcNS_11char_traitsIcEENS_9allocatorIcEEEERKNS1_4pathESC_RKNS_10error_codeEEEEvDpOT_(%"class.std::__1::basic_string"* nonnull align 8 dereferenceable(24) %3, %"class.std::__1::__fs::filesystem::path"* nonnull align 8 dereferenceable(24) %30, %"class.std::__1::__fs::filesystem::path"* nonnull align 8 dereferenceable(24) %34, %"class.std::__1::error_code"* nonnull align 8 dereferenceable(16) %1) #22
          to label %64 unwind label %51

64:                                               ; preds = %63
  unreachable

65:                                               ; preds = %28
  unreachable

66:                                               ; preds = %58, %51, %48
  %67 = phi i8* [ %40, %48 ], [ %53, %51 ], [ %53, %58 ]
  %68 = phi i32 [ %41, %48 ], [ %54, %51 ], [ %54, %58 ]
  call void @llvm.lifetime.end.p0i8(i64 24, i8* nonnull %12) #13
  %69 = insertvalue { i8*, i32 } undef, i8* %67, 0
  %70 = insertvalue { i8*, i32 } %69, i32 %68, 1
  resume { i8*, i32 } %70
}

; Function Attrs: argmemonly nounwind willreturn
declare void @llvm.memcpy.p0i8.p0i8.i64(i8* noalias nocapture writeonly, i8* noalias nocapture readonly, i64, i1 immarg) #1

; Function Attrs: uwtable
define void @_ZNSt3__14__fs10filesystem14__copy_symlinkERKNS1_4pathES4_PNS_10error_codeE(%"class.std::__1::__fs::filesystem::path"* nonnull align 8 dereferenceable(24) %0, %"class.std::__1::__fs::filesystem::path"* nonnull align 8 dereferenceable(24) %1, %"class.std::__1::error_code"* %2) local_unnamed_addr #7 personality i8* bitcast (i32 (...)* @__gxx_personality_v0 to i8*) {
  %4 = alloca %"class.std::__1::__fs::filesystem::path", align 8
  %5 = bitcast %"class.std::__1::__fs::filesystem::path"* %4 to i8*
  call void @llvm.lifetime.start.p0i8(i64 24, i8* nonnull %5) #13
  call void @_ZNSt3__14__fs10filesystem14__read_symlinkERKNS1_4pathEPNS_10error_codeE(%"class.std::__1::__fs::filesystem::path"* nonnull sret align 8 %4, %"class.std::__1::__fs::filesystem::path"* nonnull align 8 dereferenceable(24) %0, %"class.std::__1::error_code"* %2)
  %6 = icmp eq %"class.std::__1::error_code"* %2, null
  br i1 %6, label %11, label %7

7:                                                ; preds = %3
  %8 = getelementptr inbounds %"class.std::__1::error_code", %"class.std::__1::error_code"* %2, i64 0, i32 0
  %9 = load i32, i32* %8, align 8, !tbaa !22
  %10 = icmp eq i32 %9, 0
  br i1 %10, label %11, label %12

11:                                               ; preds = %7, %3
  invoke void @_ZNSt3__14__fs10filesystem16__create_symlinkERKNS1_4pathES4_PNS_10error_codeE(%"class.std::__1::__fs::filesystem::path"* nonnull align 8 dereferenceable(24) %4, %"class.std::__1::__fs::filesystem::path"* nonnull align 8 dereferenceable(24) %1, %"class.std::__1::error_code"* %2)
          to label %12 unwind label %20

12:                                               ; preds = %7, %11
  %13 = load i8, i8* %5, align 8, !tbaa !19
  %14 = and i8 %13, 1
  %15 = icmp eq i8 %14, 0
  br i1 %15, label %19, label %16

16:                                               ; preds = %12
  %17 = getelementptr inbounds %"class.std::__1::__fs::filesystem::path", %"class.std::__1::__fs::filesystem::path"* %4, i64 0, i32 0, i32 0, i32 0, i32 0, i32 0, i32 0, i32 2
  %18 = load i8*, i8** %17, align 8, !tbaa !19
  call void @_ZdlPv(i8* %18) #24
  br label %19

19:                                               ; preds = %12, %16
  call void @llvm.lifetime.end.p0i8(i64 24, i8* nonnull %5) #13
  ret void

20:                                               ; preds = %11
  %21 = landingpad { i8*, i32 }
          cleanup
  %22 = load i8, i8* %5, align 8, !tbaa !19
  %23 = and i8 %22, 1
  %24 = icmp eq i8 %23, 0
  br i1 %24, label %28, label %25

25:                                               ; preds = %20
  %26 = getelementptr inbounds %"class.std::__1::__fs::filesystem::path", %"class.std::__1::__fs::filesystem::path"* %4, i64 0, i32 0, i32 0, i32 0, i32 0, i32 0, i32 0, i32 2
  %27 = load i8*, i8** %26, align 8, !tbaa !19
  call void @_ZdlPv(i8* %27) #24
  br label %28

28:                                               ; preds = %20, %25
  call void @llvm.lifetime.end.p0i8(i64 24, i8* nonnull %5) #13
  resume { i8*, i32 } %21
}

; Function Attrs: uwtable
define void @_ZNSt3__14__fs10filesystem16__create_symlinkERKNS1_4pathES4_PNS_10error_codeE(%"class.std::__1::__fs::filesystem::path"* nonnull align 8 dereferenceable(24) %0, %"class.std::__1::__fs::filesystem::path"* nonnull align 8 dereferenceable(24) %1, %"class.std::__1::error_code"* %2) local_unnamed_addr #7 {
  %4 = alloca %"struct.std::__1::__fs::filesystem::detail::(anonymous namespace)::ErrorHandler.6", align 8
  %5 = alloca %"class.std::__1::error_code", align 8
  %6 = bitcast %"struct.std::__1::__fs::filesystem::detail::(anonymous namespace)::ErrorHandler.6"* %4 to i8*
  call void @llvm.lifetime.start.p0i8(i64 32, i8* nonnull %6) #13
  %7 = getelementptr inbounds %"struct.std::__1::__fs::filesystem::detail::(anonymous namespace)::ErrorHandler.6", %"struct.std::__1::__fs::filesystem::detail::(anonymous namespace)::ErrorHandler.6"* %4, i64 0, i32 0
  store i8* getelementptr inbounds ([15 x i8], [15 x i8]* @.str.9, i64 0, i64 0), i8** %7, align 8, !tbaa !47
  %8 = getelementptr inbounds %"struct.std::__1::__fs::filesystem::detail::(anonymous namespace)::ErrorHandler.6", %"struct.std::__1::__fs::filesystem::detail::(anonymous namespace)::ErrorHandler.6"* %4, i64 0, i32 1
  store %"class.std::__1::error_code"* %2, %"class.std::__1::error_code"** %8, align 8, !tbaa !49
  %9 = getelementptr inbounds %"struct.std::__1::__fs::filesystem::detail::(anonymous namespace)::ErrorHandler.6", %"struct.std::__1::__fs::filesystem::detail::(anonymous namespace)::ErrorHandler.6"* %4, i64 0, i32 2
  store %"class.std::__1::__fs::filesystem::path"* %0, %"class.std::__1::__fs::filesystem::path"** %9, align 8, !tbaa !50
  %10 = getelementptr inbounds %"struct.std::__1::__fs::filesystem::detail::(anonymous namespace)::ErrorHandler.6", %"struct.std::__1::__fs::filesystem::detail::(anonymous namespace)::ErrorHandler.6"* %4, i64 0, i32 3
  store %"class.std::__1::__fs::filesystem::path"* %1, %"class.std::__1::__fs::filesystem::path"** %10, align 8, !tbaa !51
  %11 = icmp eq %"class.std::__1::error_code"* %2, null
  br i1 %11, label %16, label %12

12:                                               ; preds = %3
  %13 = getelementptr inbounds %"class.std::__1::error_code", %"class.std::__1::error_code"* %2, i64 0, i32 0
  store i32 0, i32* %13, align 8, !tbaa !22
  %14 = tail call nonnull align 8 dereferenceable(8) %"class.std::__1::error_category"* @_ZNSt3__115system_categoryEv() #13
  %15 = getelementptr inbounds %"class.std::__1::error_code", %"class.std::__1::error_code"* %2, i64 0, i32 1
  store %"class.std::__1::error_category"* %14, %"class.std::__1::error_category"** %15, align 8, !tbaa !24
  br label %16

16:                                               ; preds = %3, %12
  %17 = bitcast %"class.std::__1::__fs::filesystem::path"* %0 to i8*
  %18 = load i8, i8* %17, align 8, !tbaa !19
  %19 = and i8 %18, 1
  %20 = icmp eq i8 %19, 0
  %21 = getelementptr inbounds %"class.std::__1::__fs::filesystem::path", %"class.std::__1::__fs::filesystem::path"* %0, i64 0, i32 0, i32 0, i32 0, i32 0, i32 0, i32 0, i32 2
  %22 = load i8*, i8** %21, align 8
  %23 = bitcast %"class.std::__1::__fs::filesystem::path"* %0 to %"struct.std::__1::basic_string<char, std::__1::char_traits<char>, std::__1::allocator<char>>::__short"*
  %24 = getelementptr inbounds %"struct.std::__1::basic_string<char, std::__1::char_traits<char>, std::__1::allocator<char>>::__short", %"struct.std::__1::basic_string<char, std::__1::char_traits<char>, std::__1::allocator<char>>::__short"* %23, i64 0, i32 1, i64 0
  %25 = select i1 %20, i8* %24, i8* %22
  %26 = bitcast %"class.std::__1::__fs::filesystem::path"* %1 to i8*
  %27 = load i8, i8* %26, align 8, !tbaa !19
  %28 = and i8 %27, 1
  %29 = icmp eq i8 %28, 0
  %30 = getelementptr inbounds %"class.std::__1::__fs::filesystem::path", %"class.std::__1::__fs::filesystem::path"* %1, i64 0, i32 0, i32 0, i32 0, i32 0, i32 0, i32 0, i32 2
  %31 = load i8*, i8** %30, align 8
  %32 = bitcast %"class.std::__1::__fs::filesystem::path"* %1 to %"struct.std::__1::basic_string<char, std::__1::char_traits<char>, std::__1::allocator<char>>::__short"*
  %33 = getelementptr inbounds %"struct.std::__1::basic_string<char, std::__1::char_traits<char>, std::__1::allocator<char>>::__short", %"struct.std::__1::basic_string<char, std::__1::char_traits<char>, std::__1::allocator<char>>::__short"* %32, i64 0, i32 1, i64 0
  %34 = select i1 %29, i8* %33, i8* %31
  %35 = tail call i32 @symlink(i8* %25, i8* %34) #13
  %36 = icmp eq i32 %35, -1
  br i1 %36, label %37, label %44

37:                                               ; preds = %16
  %38 = bitcast %"class.std::__1::error_code"* %5 to i8*
  call void @llvm.lifetime.start.p0i8(i64 16, i8* nonnull %38) #13
  %39 = tail call i32* @__errno_location() #21
  %40 = load i32, i32* %39, align 4, !tbaa !4
  %41 = tail call nonnull align 8 dereferenceable(8) %"class.std::__1::error_category"* @_ZNSt3__116generic_categoryEv() #13
  %42 = getelementptr inbounds %"class.std::__1::error_code", %"class.std::__1::error_code"* %5, i64 0, i32 0
  store i32 %40, i32* %42, align 8
  %43 = getelementptr inbounds %"class.std::__1::error_code", %"class.std::__1::error_code"* %5, i64 0, i32 1
  store %"class.std::__1::error_category"* %41, %"class.std::__1::error_category"** %43, align 8
  call fastcc void @_ZNKSt3__14__fs10filesystem6detail12_GLOBAL__N_112ErrorHandlerIvE6reportERKNS_10error_codeE(%"struct.std::__1::__fs::filesystem::detail::(anonymous namespace)::ErrorHandler.6"* nonnull %4, %"class.std::__1::error_code"* nonnull align 8 dereferenceable(16) %5)
  call void @llvm.lifetime.end.p0i8(i64 16, i8* nonnull %38) #13
  br label %44

44:                                               ; preds = %16, %37
  call void @llvm.lifetime.end.p0i8(i64 32, i8* nonnull %6) #13
  ret void
}

; Function Attrs: uwtable
define void @_ZNSt3__14__fs10filesystem18__create_hard_linkERKNS1_4pathES4_PNS_10error_codeE(%"class.std::__1::__fs::filesystem::path"* nonnull align 8 dereferenceable(24) %0, %"class.std::__1::__fs::filesystem::path"* nonnull align 8 dereferenceable(24) %1, %"class.std::__1::error_code"* %2) local_unnamed_addr #7 {
  %4 = alloca %"struct.std::__1::__fs::filesystem::detail::(anonymous namespace)::ErrorHandler.6", align 8
  %5 = alloca %"class.std::__1::error_code", align 8
  %6 = bitcast %"struct.std::__1::__fs::filesystem::detail::(anonymous namespace)::ErrorHandler.6"* %4 to i8*
  call void @llvm.lifetime.start.p0i8(i64 32, i8* nonnull %6) #13
  %7 = getelementptr inbounds %"struct.std::__1::__fs::filesystem::detail::(anonymous namespace)::ErrorHandler.6", %"struct.std::__1::__fs::filesystem::detail::(anonymous namespace)::ErrorHandler.6"* %4, i64 0, i32 0
  store i8* getelementptr inbounds ([17 x i8], [17 x i8]* @.str.8, i64 0, i64 0), i8** %7, align 8, !tbaa !47
  %8 = getelementptr inbounds %"struct.std::__1::__fs::filesystem::detail::(anonymous namespace)::ErrorHandler.6", %"struct.std::__1::__fs::filesystem::detail::(anonymous namespace)::ErrorHandler.6"* %4, i64 0, i32 1
  store %"class.std::__1::error_code"* %2, %"class.std::__1::error_code"** %8, align 8, !tbaa !49
  %9 = getelementptr inbounds %"struct.std::__1::__fs::filesystem::detail::(anonymous namespace)::ErrorHandler.6", %"struct.std::__1::__fs::filesystem::detail::(anonymous namespace)::ErrorHandler.6"* %4, i64 0, i32 2
  store %"class.std::__1::__fs::filesystem::path"* %0, %"class.std::__1::__fs::filesystem::path"** %9, align 8, !tbaa !50
  %10 = getelementptr inbounds %"struct.std::__1::__fs::filesystem::detail::(anonymous namespace)::ErrorHandler.6", %"struct.std::__1::__fs::filesystem::detail::(anonymous namespace)::ErrorHandler.6"* %4, i64 0, i32 3
  store %"class.std::__1::__fs::filesystem::path"* %1, %"class.std::__1::__fs::filesystem::path"** %10, align 8, !tbaa !51
  %11 = icmp eq %"class.std::__1::error_code"* %2, null
  br i1 %11, label %16, label %12

12:                                               ; preds = %3
  %13 = getelementptr inbounds %"class.std::__1::error_code", %"class.std::__1::error_code"* %2, i64 0, i32 0
  store i32 0, i32* %13, align 8, !tbaa !22
  %14 = tail call nonnull align 8 dereferenceable(8) %"class.std::__1::error_category"* @_ZNSt3__115system_categoryEv() #13
  %15 = getelementptr inbounds %"class.std::__1::error_code", %"class.std::__1::error_code"* %2, i64 0, i32 1
  store %"class.std::__1::error_category"* %14, %"class.std::__1::error_category"** %15, align 8, !tbaa !24
  br label %16

16:                                               ; preds = %3, %12
  %17 = bitcast %"class.std::__1::__fs::filesystem::path"* %0 to i8*
  %18 = load i8, i8* %17, align 8, !tbaa !19
  %19 = and i8 %18, 1
  %20 = icmp eq i8 %19, 0
  %21 = getelementptr inbounds %"class.std::__1::__fs::filesystem::path", %"class.std::__1::__fs::filesystem::path"* %0, i64 0, i32 0, i32 0, i32 0, i32 0, i32 0, i32 0, i32 2
  %22 = load i8*, i8** %21, align 8
  %23 = bitcast %"class.std::__1::__fs::filesystem::path"* %0 to %"struct.std::__1::basic_string<char, std::__1::char_traits<char>, std::__1::allocator<char>>::__short"*
  %24 = getelementptr inbounds %"struct.std::__1::basic_string<char, std::__1::char_traits<char>, std::__1::allocator<char>>::__short", %"struct.std::__1::basic_string<char, std::__1::char_traits<char>, std::__1::allocator<char>>::__short"* %23, i64 0, i32 1, i64 0
  %25 = select i1 %20, i8* %24, i8* %22
  %26 = bitcast %"class.std::__1::__fs::filesystem::path"* %1 to i8*
  %27 = load i8, i8* %26, align 8, !tbaa !19
  %28 = and i8 %27, 1
  %29 = icmp eq i8 %28, 0
  %30 = getelementptr inbounds %"class.std::__1::__fs::filesystem::path", %"class.std::__1::__fs::filesystem::path"* %1, i64 0, i32 0, i32 0, i32 0, i32 0, i32 0, i32 0, i32 2
  %31 = load i8*, i8** %30, align 8
  %32 = bitcast %"class.std::__1::__fs::filesystem::path"* %1 to %"struct.std::__1::basic_string<char, std::__1::char_traits<char>, std::__1::allocator<char>>::__short"*
  %33 = getelementptr inbounds %"struct.std::__1::basic_string<char, std::__1::char_traits<char>, std::__1::allocator<char>>::__short", %"struct.std::__1::basic_string<char, std::__1::char_traits<char>, std::__1::allocator<char>>::__short"* %32, i64 0, i32 1, i64 0
  %34 = select i1 %29, i8* %33, i8* %31
  %35 = tail call i32 @link(i8* %25, i8* %34) #13
  %36 = icmp eq i32 %35, -1
  br i1 %36, label %37, label %44

37:                                               ; preds = %16
  %38 = bitcast %"class.std::__1::error_code"* %5 to i8*
  call void @llvm.lifetime.start.p0i8(i64 16, i8* nonnull %38) #13
  %39 = tail call i32* @__errno_location() #21
  %40 = load i32, i32* %39, align 4, !tbaa !4
  %41 = tail call nonnull align 8 dereferenceable(8) %"class.std::__1::error_category"* @_ZNSt3__116generic_categoryEv() #13
  %42 = getelementptr inbounds %"class.std::__1::error_code", %"class.std::__1::error_code"* %5, i64 0, i32 0
  store i32 %40, i32* %42, align 8
  %43 = getelementptr inbounds %"class.std::__1::error_code", %"class.std::__1::error_code"* %5, i64 0, i32 1
  store %"class.std::__1::error_category"* %41, %"class.std::__1::error_category"** %43, align 8
  call fastcc void @_ZNKSt3__14__fs10filesystem6detail12_GLOBAL__N_112ErrorHandlerIvE6reportERKNS_10error_codeE(%"struct.std::__1::__fs::filesystem::detail::(anonymous namespace)::ErrorHandler.6"* nonnull %4, %"class.std::__1::error_code"* nonnull align 8 dereferenceable(16) %5)
  call void @llvm.lifetime.end.p0i8(i64 16, i8* nonnull %38) #13
  br label %44

44:                                               ; preds = %16, %37
  call void @llvm.lifetime.end.p0i8(i64 32, i8* nonnull %6) #13
  ret void
}

; Function Attrs: uwtable
define zeroext i1 @_ZNSt3__14__fs10filesystem11__copy_fileERKNS1_4pathES4_NS1_12copy_optionsEPNS_10error_codeE(%"class.std::__1::__fs::filesystem::path"* nonnull align 8 dereferenceable(24) %0, %"class.std::__1::__fs::filesystem::path"* nonnull align 8 dereferenceable(24) %1, i16 zeroext %2, %"class.std::__1::error_code"* %3) local_unnamed_addr #7 personality i8* bitcast (i32 (...)* @__gxx_personality_v0 to i8*) {
  %5 = alloca %"class.std::__1::error_code", align 8
  %6 = alloca %"class.std::__1::__fs::filesystem::file_status", align 4
  %7 = alloca %"class.std::__1::error_code", align 8
  %8 = alloca %"class.std::__1::error_code", align 8
  %9 = alloca %"class.std::__1::error_code", align 8
  %10 = alloca %"struct.std::__1::__fs::filesystem::detail::(anonymous namespace)::ErrorHandler.6", align 8
  %11 = alloca %"class.std::__1::error_code", align 8
  %12 = alloca %"class.std::__1::__fs::filesystem::file_status", align 4
  %13 = alloca %"struct.std::__1::__fs::filesystem::detail::(anonymous namespace)::ErrorHandler.8", align 8
  %14 = alloca %"class.std::__1::error_code", align 8
  %15 = alloca %"struct.std::__1::__fs::filesystem::detail::(anonymous namespace)::FileDescriptor", align 8
  %16 = alloca %struct.stat, align 8
  %17 = alloca %"struct.std::__1::__fs::filesystem::detail::(anonymous namespace)::FileDescriptor", align 8
  %18 = bitcast %"struct.std::__1::__fs::filesystem::detail::(anonymous namespace)::ErrorHandler.8"* %13 to i8*
  call void @llvm.lifetime.start.p0i8(i64 32, i8* nonnull %18) #13
  %19 = getelementptr inbounds %"struct.std::__1::__fs::filesystem::detail::(anonymous namespace)::ErrorHandler.8", %"struct.std::__1::__fs::filesystem::detail::(anonymous namespace)::ErrorHandler.8"* %13, i64 0, i32 0
  store i8* getelementptr inbounds ([10 x i8], [10 x i8]* @.str.3, i64 0, i64 0), i8** %19, align 8, !tbaa !98
  %20 = getelementptr inbounds %"struct.std::__1::__fs::filesystem::detail::(anonymous namespace)::ErrorHandler.8", %"struct.std::__1::__fs::filesystem::detail::(anonymous namespace)::ErrorHandler.8"* %13, i64 0, i32 1
  store %"class.std::__1::error_code"* %3, %"class.std::__1::error_code"** %20, align 8, !tbaa !100
  %21 = getelementptr inbounds %"struct.std::__1::__fs::filesystem::detail::(anonymous namespace)::ErrorHandler.8", %"struct.std::__1::__fs::filesystem::detail::(anonymous namespace)::ErrorHandler.8"* %13, i64 0, i32 2
  store %"class.std::__1::__fs::filesystem::path"* %1, %"class.std::__1::__fs::filesystem::path"** %21, align 8, !tbaa !101
  %22 = getelementptr inbounds %"struct.std::__1::__fs::filesystem::detail::(anonymous namespace)::ErrorHandler.8", %"struct.std::__1::__fs::filesystem::detail::(anonymous namespace)::ErrorHandler.8"* %13, i64 0, i32 3
  store %"class.std::__1::__fs::filesystem::path"* %0, %"class.std::__1::__fs::filesystem::path"** %22, align 8, !tbaa !102
  %23 = icmp eq %"class.std::__1::error_code"* %3, null
  br i1 %23, label %28, label %24

24:                                               ; preds = %4
  %25 = getelementptr inbounds %"class.std::__1::error_code", %"class.std::__1::error_code"* %3, i64 0, i32 0
  store i32 0, i32* %25, align 8, !tbaa !22
  %26 = tail call nonnull align 8 dereferenceable(8) %"class.std::__1::error_category"* @_ZNSt3__115system_categoryEv() #13
  %27 = getelementptr inbounds %"class.std::__1::error_code", %"class.std::__1::error_code"* %3, i64 0, i32 1
  store %"class.std::__1::error_category"* %26, %"class.std::__1::error_category"** %27, align 8, !tbaa !24
  br label %28

28:                                               ; preds = %4, %24
  %29 = bitcast %"class.std::__1::error_code"* %14 to i8*
  call void @llvm.lifetime.start.p0i8(i64 16, i8* nonnull %29) #13
  %30 = getelementptr inbounds %"class.std::__1::error_code", %"class.std::__1::error_code"* %14, i64 0, i32 0
  %31 = getelementptr inbounds %"class.std::__1::error_code", %"class.std::__1::error_code"* %14, i64 0, i32 1
  %32 = tail call nonnull align 8 dereferenceable(8) %"class.std::__1::error_category"* @_ZNSt3__115system_categoryEv() #13
  %33 = bitcast %"struct.std::__1::__fs::filesystem::detail::(anonymous namespace)::FileDescriptor"* %15 to i8*
  call void @llvm.lifetime.start.p0i8(i64 168, i8* nonnull %33) #13
  %34 = getelementptr inbounds %"class.std::__1::__fs::filesystem::file_status", %"class.std::__1::__fs::filesystem::file_status"* %12, i64 0, i32 0
  call void @llvm.lifetime.start.p0i8(i64 8, i8* nonnull %34)
  store i32 0, i32* %30, align 8, !tbaa !22, !noalias !103
  %35 = tail call nonnull align 8 dereferenceable(8) %"class.std::__1::error_category"* @_ZNSt3__115system_categoryEv() #13, !noalias !103
  store %"class.std::__1::error_category"* %35, %"class.std::__1::error_category"** %31, align 8, !tbaa !24, !noalias !103
  %36 = bitcast %"class.std::__1::__fs::filesystem::path"* %0 to i8*
  %37 = load i8, i8* %36, align 8, !tbaa !19, !noalias !103
  %38 = and i8 %37, 1
  %39 = icmp eq i8 %38, 0
  %40 = getelementptr inbounds %"class.std::__1::__fs::filesystem::path", %"class.std::__1::__fs::filesystem::path"* %0, i64 0, i32 0, i32 0, i32 0, i32 0, i32 0, i32 0, i32 2
  %41 = load i8*, i8** %40, align 8
  %42 = bitcast %"class.std::__1::__fs::filesystem::path"* %0 to %"struct.std::__1::basic_string<char, std::__1::char_traits<char>, std::__1::allocator<char>>::__short"*
  %43 = getelementptr inbounds %"struct.std::__1::basic_string<char, std::__1::char_traits<char>, std::__1::allocator<char>>::__short", %"struct.std::__1::basic_string<char, std::__1::char_traits<char>, std::__1::allocator<char>>::__short"* %42, i64 0, i32 1, i64 0
  %44 = select i1 %39, i8* %43, i8* %41
  %45 = tail call i32 (i8*, i32, ...) @open(i8* %44, i32 2048), !noalias !103
  %46 = icmp eq i32 %45, -1
  br i1 %46, label %47, label %51

47:                                               ; preds = %28
  %48 = tail call i32* @__errno_location() #21
  %49 = load i32, i32* %48, align 4, !tbaa !4, !noalias !108
  %50 = tail call nonnull align 8 dereferenceable(8) %"class.std::__1::error_category"* @_ZNSt3__116generic_categoryEv() #13, !noalias !108
  store i32 %49, i32* %30, align 8, !tbaa.struct !40, !noalias !103
  store %"class.std::__1::error_category"* %50, %"class.std::__1::error_category"** %31, align 8, !tbaa.struct !40, !noalias !103
  br label %51

51:                                               ; preds = %28, %47
  %52 = phi i32 [ %49, %47 ], [ 0, %28 ]
  %53 = getelementptr inbounds %"struct.std::__1::__fs::filesystem::detail::(anonymous namespace)::FileDescriptor", %"struct.std::__1::__fs::filesystem::detail::(anonymous namespace)::FileDescriptor"* %15, i64 0, i32 0
  store %"class.std::__1::__fs::filesystem::path"* %0, %"class.std::__1::__fs::filesystem::path"** %53, align 8, !alias.scope !103
  %54 = getelementptr inbounds %"struct.std::__1::__fs::filesystem::detail::(anonymous namespace)::FileDescriptor", %"struct.std::__1::__fs::filesystem::detail::(anonymous namespace)::FileDescriptor"* %15, i64 0, i32 1
  store i32 %45, i32* %54, align 8, !alias.scope !103
  %55 = getelementptr inbounds %"struct.std::__1::__fs::filesystem::detail::(anonymous namespace)::FileDescriptor", %"struct.std::__1::__fs::filesystem::detail::(anonymous namespace)::FileDescriptor"* %15, i64 0, i32 3, i32 0
  store i8 0, i8* %55, align 8, !alias.scope !103
  %56 = getelementptr inbounds %"struct.std::__1::__fs::filesystem::detail::(anonymous namespace)::FileDescriptor", %"struct.std::__1::__fs::filesystem::detail::(anonymous namespace)::FileDescriptor"* %15, i64 0, i32 3, i32 1
  store i32 65535, i32* %56, align 4, !alias.scope !103
  %57 = icmp eq i32 %52, 0
  br i1 %57, label %59, label %58

58:                                               ; preds = %51
  call void @llvm.lifetime.end.p0i8(i64 8, i8* nonnull %34)
  br label %73

59:                                               ; preds = %51
  invoke fastcc void @_ZNSt3__14__fs10filesystem6detail12_GLOBAL__N_114FileDescriptor14refresh_statusERNS_10error_codeE(%"class.std::__1::__fs::filesystem::file_status"* noalias nonnull align 4 %12, %"struct.std::__1::__fs::filesystem::detail::(anonymous namespace)::FileDescriptor"* nonnull %15, %"class.std::__1::error_code"* nonnull align 8 dereferenceable(16) %14)
          to label %70 unwind label %60

60:                                               ; preds = %59
  %61 = landingpad { i8*, i32 }
          cleanup
  %62 = load i32, i32* %54, align 8, !tbaa !109, !alias.scope !114
  %63 = icmp eq i32 %62, -1
  br i1 %63, label %69, label %64

64:                                               ; preds = %60
  %65 = invoke i32 @close(i32 %62)
          to label %69 unwind label %66

66:                                               ; preds = %64
  %67 = landingpad { i8*, i32 }
          catch i8* null
  %68 = extractvalue { i8*, i32 } %67, 0
  call void @__clang_call_terminate(i8* %68) #23
  unreachable

69:                                               ; preds = %64, %60
  resume { i8*, i32 } %61

70:                                               ; preds = %59
  %71 = load i32, i32* %30, align 8, !tbaa !22
  call void @llvm.lifetime.end.p0i8(i64 8, i8* nonnull %34)
  %72 = icmp eq i32 %71, 0
  br i1 %72, label %78, label %73

73:                                               ; preds = %58, %70
  invoke fastcc void @_ZNKSt3__14__fs10filesystem6detail12_GLOBAL__N_112ErrorHandlerIbE6reportERKNS_10error_codeE(%"struct.std::__1::__fs::filesystem::detail::(anonymous namespace)::ErrorHandler.8"* nonnull %13, %"class.std::__1::error_code"* nonnull align 8 dereferenceable(16) %14)
          to label %343 unwind label %74

74:                                               ; preds = %73
  %75 = landingpad { i8*, i32 }
          cleanup
  %76 = extractvalue { i8*, i32 } %75, 0
  %77 = extractvalue { i8*, i32 } %75, 1
  br label %353

78:                                               ; preds = %70
  %79 = bitcast i8* %55 to i64*
  %80 = load i64, i64* %79, align 8, !noalias !115
  %81 = trunc i64 %80 to i8
  %82 = icmp eq i8 %81, 1
  br i1 %82, label %89, label %87

83:                                               ; preds = %87
  %84 = landingpad { i8*, i32 }
          cleanup
  %85 = extractvalue { i8*, i32 } %84, 0
  %86 = extractvalue { i8*, i32 } %84, 1
  br label %353

87:                                               ; preds = %78
  %88 = call nonnull align 8 dereferenceable(8) %"class.std::__1::error_category"* @_ZNSt3__116generic_categoryEv() #13
  store i32 95, i32* %30, align 8, !tbaa.struct !40
  store %"class.std::__1::error_category"* %88, %"class.std::__1::error_category"** %31, align 8, !tbaa.struct !40
  invoke fastcc void @_ZNKSt3__14__fs10filesystem6detail12_GLOBAL__N_112ErrorHandlerIbE6reportERKNS_10error_codeE(%"struct.std::__1::__fs::filesystem::detail::(anonymous namespace)::ErrorHandler.8"* nonnull %13, %"class.std::__1::error_code"* nonnull align 8 dereferenceable(16) %14)
          to label %343 unwind label %83

89:                                               ; preds = %78
  %90 = and i16 %2, 1
  %91 = icmp eq i16 %90, 0
  %92 = bitcast %struct.stat* %16 to i8*
  call void @llvm.lifetime.start.p0i8(i64 144, i8* nonnull %92) #13
  %93 = bitcast %"class.std::__1::error_code"* %11 to i8*
  call void @llvm.lifetime.start.p0i8(i64 16, i8* nonnull %93) #13, !noalias !118
  %94 = getelementptr inbounds %"class.std::__1::error_code", %"class.std::__1::error_code"* %11, i64 0, i32 0
  store i32 0, i32* %94, align 8, !tbaa !22, !noalias !118
  %95 = getelementptr inbounds %"class.std::__1::error_code", %"class.std::__1::error_code"* %11, i64 0, i32 1
  %96 = call nonnull align 8 dereferenceable(8) %"class.std::__1::error_category"* @_ZNSt3__115system_categoryEv() #13, !noalias !118
  store %"class.std::__1::error_category"* %96, %"class.std::__1::error_category"** %95, align 8, !tbaa !24, !noalias !118
  %97 = bitcast %"class.std::__1::__fs::filesystem::path"* %1 to i8*
  %98 = load i8, i8* %97, align 8, !tbaa !19, !noalias !118
  %99 = and i8 %98, 1
  %100 = icmp eq i8 %99, 0
  %101 = getelementptr inbounds %"class.std::__1::__fs::filesystem::path", %"class.std::__1::__fs::filesystem::path"* %1, i64 0, i32 0, i32 0, i32 0, i32 0, i32 0, i32 0, i32 2
  %102 = load i8*, i8** %101, align 8, !noalias !118
  %103 = bitcast %"class.std::__1::__fs::filesystem::path"* %1 to %"struct.std::__1::basic_string<char, std::__1::char_traits<char>, std::__1::allocator<char>>::__short"*
  %104 = getelementptr inbounds %"struct.std::__1::basic_string<char, std::__1::char_traits<char>, std::__1::allocator<char>>::__short", %"struct.std::__1::basic_string<char, std::__1::char_traits<char>, std::__1::allocator<char>>::__short"* %103, i64 0, i32 1, i64 0
  %105 = select i1 %100, i8* %104, i8* %102
  %106 = call i32 @__xstat(i32 1, i8* nonnull %105, %struct.stat* nonnull %16) #13, !noalias !118
  %107 = icmp eq i32 %106, -1
  br i1 %107, label %108, label %112

108:                                              ; preds = %89
  %109 = tail call i32* @__errno_location() #21
  %110 = load i32, i32* %109, align 4, !tbaa !4, !noalias !118
  %111 = call nonnull align 8 dereferenceable(8) %"class.std::__1::error_category"* @_ZNSt3__116generic_categoryEv() #13, !noalias !118
  store i32 %110, i32* %94, align 8, !tbaa.struct !40, !noalias !118
  store %"class.std::__1::error_category"* %111, %"class.std::__1::error_category"** %95, align 8, !tbaa.struct !40, !noalias !118
  br label %114

112:                                              ; preds = %89
  %113 = load i32, i32* %94, align 8, !tbaa !22, !noalias !121
  br label %114

114:                                              ; preds = %112, %108
  %115 = phi i32 [ %113, %112 ], [ %110, %108 ]
  call void @llvm.memcpy.p0i8.p0i8.i64(i8* nonnull align 8 dereferenceable(16) %29, i8* nonnull align 8 dereferenceable(16) %93, i64 16, i1 false), !tbaa.struct !40, !noalias !121
  switch i32 %115, label %116 [
    i32 0, label %123
    i32 2, label %137
    i32 20, label %137
  ]

116:                                              ; preds = %114
  %117 = bitcast %"struct.std::__1::__fs::filesystem::detail::(anonymous namespace)::ErrorHandler.6"* %10 to i8*
  call void @llvm.lifetime.start.p0i8(i64 32, i8* nonnull %117) #13, !noalias !121
  %118 = getelementptr inbounds %"struct.std::__1::__fs::filesystem::detail::(anonymous namespace)::ErrorHandler.6", %"struct.std::__1::__fs::filesystem::detail::(anonymous namespace)::ErrorHandler.6"* %10, i64 0, i32 0
  store i8* getelementptr inbounds ([11 x i8], [11 x i8]* @.str.39, i64 0, i64 0), i8** %118, align 8, !tbaa !47, !noalias !121
  %119 = getelementptr inbounds %"struct.std::__1::__fs::filesystem::detail::(anonymous namespace)::ErrorHandler.6", %"struct.std::__1::__fs::filesystem::detail::(anonymous namespace)::ErrorHandler.6"* %10, i64 0, i32 1
  store %"class.std::__1::error_code"* %14, %"class.std::__1::error_code"** %119, align 8, !tbaa !49, !noalias !121
  %120 = getelementptr inbounds %"struct.std::__1::__fs::filesystem::detail::(anonymous namespace)::ErrorHandler.6", %"struct.std::__1::__fs::filesystem::detail::(anonymous namespace)::ErrorHandler.6"* %10, i64 0, i32 2
  store %"class.std::__1::__fs::filesystem::path"* %1, %"class.std::__1::__fs::filesystem::path"** %120, align 8, !tbaa !50, !noalias !121
  %121 = getelementptr inbounds %"struct.std::__1::__fs::filesystem::detail::(anonymous namespace)::ErrorHandler.6", %"struct.std::__1::__fs::filesystem::detail::(anonymous namespace)::ErrorHandler.6"* %10, i64 0, i32 3
  store %"class.std::__1::__fs::filesystem::path"* null, %"class.std::__1::__fs::filesystem::path"** %121, align 8, !tbaa !51, !noalias !121
  store i32 0, i32* %30, align 8, !tbaa !22, !noalias !121
  %122 = call nonnull align 8 dereferenceable(8) %"class.std::__1::error_category"* @_ZNSt3__115system_categoryEv() #13, !noalias !121
  store %"class.std::__1::error_category"* %122, %"class.std::__1::error_category"** %31, align 8, !tbaa !24, !noalias !121
  invoke void (%"struct.std::__1::__fs::filesystem::detail::(anonymous namespace)::ErrorHandler.6"*, %"class.std::__1::error_code"*, i8*, ...) @_ZNKSt3__14__fs10filesystem6detail12_GLOBAL__N_112ErrorHandlerIvE6reportERKNS_10error_codeEPKcz(%"struct.std::__1::__fs::filesystem::detail::(anonymous namespace)::ErrorHandler.6"* nonnull %10, %"class.std::__1::error_code"* nonnull align 8 dereferenceable(16) %11, i8* undef)
          to label %128 unwind label %129

123:                                              ; preds = %114
  %124 = getelementptr inbounds %struct.stat, %struct.stat* %16, i64 0, i32 3
  %125 = load i32, i32* %124, align 8, !tbaa !58, !noalias !121
  %126 = and i32 %125, 61440
  %127 = icmp eq i32 %126, 32768
  call void @llvm.lifetime.end.p0i8(i64 16, i8* nonnull %93) #13
  br i1 %127, label %148, label %138

128:                                              ; preds = %116
  call void @llvm.lifetime.end.p0i8(i64 32, i8* nonnull %117) #13, !noalias !121
  call void @llvm.lifetime.end.p0i8(i64 16, i8* nonnull %93) #13, !noalias !118
  invoke fastcc void @_ZNKSt3__14__fs10filesystem6detail12_GLOBAL__N_112ErrorHandlerIbE6reportERKNS_10error_codeE(%"struct.std::__1::__fs::filesystem::detail::(anonymous namespace)::ErrorHandler.8"* nonnull %13, %"class.std::__1::error_code"* nonnull align 8 dereferenceable(16) %14)
          to label %338 unwind label %133

129:                                              ; preds = %116
  %130 = landingpad { i8*, i32 }
          cleanup
  %131 = extractvalue { i8*, i32 } %130, 0
  %132 = extractvalue { i8*, i32 } %130, 1
  br label %340

133:                                              ; preds = %128
  %134 = landingpad { i8*, i32 }
          cleanup
  %135 = extractvalue { i8*, i32 } %134, 0
  %136 = extractvalue { i8*, i32 } %134, 1
  br label %340

137:                                              ; preds = %114, %114
  call void @llvm.lifetime.end.p0i8(i64 16, i8* nonnull %93) #13, !noalias !118
  br label %201

138:                                              ; preds = %123
  %139 = bitcast %"class.std::__1::error_code"* %9 to i8*
  call void @llvm.lifetime.start.p0i8(i64 16, i8* nonnull %139) #13
  %140 = call nonnull align 8 dereferenceable(8) %"class.std::__1::error_category"* @_ZNSt3__116generic_categoryEv() #13
  %141 = getelementptr inbounds %"class.std::__1::error_code", %"class.std::__1::error_code"* %9, i64 0, i32 0
  store i32 95, i32* %141, align 8
  %142 = getelementptr inbounds %"class.std::__1::error_code", %"class.std::__1::error_code"* %9, i64 0, i32 1
  store %"class.std::__1::error_category"* %140, %"class.std::__1::error_category"** %142, align 8
  invoke fastcc void @_ZNKSt3__14__fs10filesystem6detail12_GLOBAL__N_112ErrorHandlerIbE6reportERKNS_10error_codeE(%"struct.std::__1::__fs::filesystem::detail::(anonymous namespace)::ErrorHandler.8"* nonnull %13, %"class.std::__1::error_code"* nonnull align 8 dereferenceable(16) %9)
          to label %143 unwind label %144

143:                                              ; preds = %138
  call void @llvm.lifetime.end.p0i8(i64 16, i8* nonnull %139) #13
  br label %338

144:                                              ; preds = %138
  %145 = landingpad { i8*, i32 }
          cleanup
  %146 = extractvalue { i8*, i32 } %145, 0
  %147 = extractvalue { i8*, i32 } %145, 1
  br label %340

148:                                              ; preds = %123
  %149 = getelementptr inbounds %"struct.std::__1::__fs::filesystem::detail::(anonymous namespace)::FileDescriptor", %"struct.std::__1::__fs::filesystem::detail::(anonymous namespace)::FileDescriptor"* %15, i64 0, i32 2, i32 0
  %150 = load i64, i64* %149, align 8, !tbaa !79
  %151 = getelementptr inbounds %"struct.std::__1::__fs::filesystem::detail::(anonymous namespace)::FileDescriptor", %"struct.std::__1::__fs::filesystem::detail::(anonymous namespace)::FileDescriptor"* %15, i64 0, i32 2, i32 1
  %152 = load i64, i64* %151, align 8
  %153 = getelementptr inbounds %struct.stat, %struct.stat* %16, i64 0, i32 0
  %154 = load i64, i64* %153, align 8, !tbaa !79
  %155 = getelementptr inbounds %struct.stat, %struct.stat* %16, i64 0, i32 1
  %156 = load i64, i64* %155, align 8
  %157 = icmp eq i64 %150, %154
  %158 = icmp eq i64 %152, %156
  %159 = and i1 %157, %158
  br i1 %159, label %160, label %170

160:                                              ; preds = %148
  %161 = bitcast %"class.std::__1::error_code"* %8 to i8*
  call void @llvm.lifetime.start.p0i8(i64 16, i8* nonnull %161) #13
  %162 = call nonnull align 8 dereferenceable(8) %"class.std::__1::error_category"* @_ZNSt3__116generic_categoryEv() #13
  %163 = getelementptr inbounds %"class.std::__1::error_code", %"class.std::__1::error_code"* %8, i64 0, i32 0
  store i32 17, i32* %163, align 8
  %164 = getelementptr inbounds %"class.std::__1::error_code", %"class.std::__1::error_code"* %8, i64 0, i32 1
  store %"class.std::__1::error_category"* %162, %"class.std::__1::error_category"** %164, align 8
  invoke fastcc void @_ZNKSt3__14__fs10filesystem6detail12_GLOBAL__N_112ErrorHandlerIbE6reportERKNS_10error_codeE(%"struct.std::__1::__fs::filesystem::detail::(anonymous namespace)::ErrorHandler.8"* nonnull %13, %"class.std::__1::error_code"* nonnull align 8 dereferenceable(16) %8)
          to label %165 unwind label %166

165:                                              ; preds = %160
  call void @llvm.lifetime.end.p0i8(i64 16, i8* nonnull %161) #13
  br label %338

166:                                              ; preds = %160
  %167 = landingpad { i8*, i32 }
          cleanup
  %168 = extractvalue { i8*, i32 } %167, 0
  %169 = extractvalue { i8*, i32 } %167, 1
  br label %340

170:                                              ; preds = %148
  br i1 %91, label %171, label %338

171:                                              ; preds = %170
  %172 = and i16 %2, 4
  %173 = icmp eq i16 %172, 0
  br i1 %173, label %180, label %174

174:                                              ; preds = %171
  %175 = getelementptr inbounds %"struct.std::__1::__fs::filesystem::detail::(anonymous namespace)::FileDescriptor", %"struct.std::__1::__fs::filesystem::detail::(anonymous namespace)::FileDescriptor"* %15, i64 0, i32 2, i32 12, i32 0
  %176 = load i64, i64* %175, align 8, !tbaa.struct !124
  %177 = getelementptr inbounds %struct.stat, %struct.stat* %16, i64 0, i32 12, i32 0
  %178 = load i64, i64* %177, align 8, !tbaa.struct !124
  %179 = icmp slt i64 %176, %178
  br i1 %179, label %338, label %189

180:                                              ; preds = %171
  %181 = and i16 %2, 2
  %182 = icmp eq i16 %181, 0
  br i1 %182, label %183, label %201

183:                                              ; preds = %180
  %184 = bitcast %"class.std::__1::error_code"* %7 to i8*
  call void @llvm.lifetime.start.p0i8(i64 16, i8* nonnull %184) #13
  %185 = call nonnull align 8 dereferenceable(8) %"class.std::__1::error_category"* @_ZNSt3__116generic_categoryEv() #13
  %186 = getelementptr inbounds %"class.std::__1::error_code", %"class.std::__1::error_code"* %7, i64 0, i32 0
  store i32 17, i32* %186, align 8
  %187 = getelementptr inbounds %"class.std::__1::error_code", %"class.std::__1::error_code"* %7, i64 0, i32 1
  store %"class.std::__1::error_category"* %185, %"class.std::__1::error_category"** %187, align 8
  invoke fastcc void @_ZNKSt3__14__fs10filesystem6detail12_GLOBAL__N_112ErrorHandlerIbE6reportERKNS_10error_codeE(%"struct.std::__1::__fs::filesystem::detail::(anonymous namespace)::ErrorHandler.8"* nonnull %13, %"class.std::__1::error_code"* nonnull align 8 dereferenceable(16) %7)
          to label %188 unwind label %197

188:                                              ; preds = %183
  call void @llvm.lifetime.end.p0i8(i64 16, i8* nonnull %184) #13
  br label %338

189:                                              ; preds = %174
  %190 = getelementptr inbounds %struct.stat, %struct.stat* %16, i64 0, i32 12, i32 1
  %191 = load i64, i64* %190, align 8, !tbaa.struct !124
  %192 = getelementptr inbounds %"struct.std::__1::__fs::filesystem::detail::(anonymous namespace)::FileDescriptor", %"struct.std::__1::__fs::filesystem::detail::(anonymous namespace)::FileDescriptor"* %15, i64 0, i32 2, i32 12, i32 1
  %193 = load i64, i64* %192, align 8, !tbaa.struct !124
  %194 = icmp ne i64 %176, %178
  %195 = icmp sgt i64 %193, %191
  %196 = or i1 %194, %195
  br i1 %196, label %201, label %338

197:                                              ; preds = %183
  %198 = landingpad { i8*, i32 }
          cleanup
  %199 = extractvalue { i8*, i32 } %198, 0
  %200 = extractvalue { i8*, i32 } %198, 1
  br label %340

201:                                              ; preds = %137, %180, %189
  %202 = phi i1 [ false, %189 ], [ false, %180 ], [ true, %137 ]
  %203 = phi i32 [ 1, %189 ], [ 1, %180 ], [ 65, %137 ]
  %204 = bitcast %"struct.std::__1::__fs::filesystem::detail::(anonymous namespace)::FileDescriptor"* %17 to i8*
  call void @llvm.lifetime.start.p0i8(i64 168, i8* nonnull %204) #13
  %205 = getelementptr inbounds %"struct.std::__1::__fs::filesystem::detail::(anonymous namespace)::FileDescriptor", %"struct.std::__1::__fs::filesystem::detail::(anonymous namespace)::FileDescriptor"* %15, i64 0, i32 2, i32 3
  %206 = load i32, i32* %205, align 8, !tbaa !58
  %207 = getelementptr inbounds %"class.std::__1::__fs::filesystem::file_status", %"class.std::__1::__fs::filesystem::file_status"* %6, i64 0, i32 0
  call void @llvm.lifetime.start.p0i8(i64 8, i8* nonnull %207)
  store i32 0, i32* %30, align 8, !tbaa !22, !noalias !125
  %208 = call nonnull align 8 dereferenceable(8) %"class.std::__1::error_category"* @_ZNSt3__115system_categoryEv() #13, !noalias !125
  store %"class.std::__1::error_category"* %208, %"class.std::__1::error_category"** %31, align 8, !tbaa !24, !noalias !125
  %209 = load i8, i8* %97, align 8, !tbaa !19, !noalias !125
  %210 = and i8 %209, 1
  %211 = icmp eq i8 %210, 0
  %212 = load i8*, i8** %101, align 8
  %213 = select i1 %211, i8* %104, i8* %212
  %214 = invoke i32 (i8*, i32, ...) @open(i8* %213, i32 %203, i32 %206)
          to label %215 unwind label %246

215:                                              ; preds = %201
  %216 = icmp eq i32 %214, -1
  br i1 %216, label %219, label %217

217:                                              ; preds = %215
  %218 = load i32, i32* %30, align 8, !tbaa !22, !noalias !130
  br label %223

219:                                              ; preds = %215
  %220 = tail call i32* @__errno_location() #21
  %221 = load i32, i32* %220, align 4, !tbaa !4, !noalias !131
  %222 = call nonnull align 8 dereferenceable(8) %"class.std::__1::error_category"* @_ZNSt3__116generic_categoryEv() #13, !noalias !131
  store i32 %221, i32* %30, align 8, !tbaa.struct !40, !noalias !125
  store %"class.std::__1::error_category"* %222, %"class.std::__1::error_category"** %31, align 8, !tbaa.struct !40, !noalias !125
  br label %223

223:                                              ; preds = %219, %217
  %224 = phi i32 [ %218, %217 ], [ %221, %219 ]
  %225 = getelementptr inbounds %"struct.std::__1::__fs::filesystem::detail::(anonymous namespace)::FileDescriptor", %"struct.std::__1::__fs::filesystem::detail::(anonymous namespace)::FileDescriptor"* %17, i64 0, i32 0
  store %"class.std::__1::__fs::filesystem::path"* %1, %"class.std::__1::__fs::filesystem::path"** %225, align 8, !alias.scope !125
  %226 = getelementptr inbounds %"struct.std::__1::__fs::filesystem::detail::(anonymous namespace)::FileDescriptor", %"struct.std::__1::__fs::filesystem::detail::(anonymous namespace)::FileDescriptor"* %17, i64 0, i32 1
  store i32 %214, i32* %226, align 8, !alias.scope !125
  %227 = getelementptr inbounds %"struct.std::__1::__fs::filesystem::detail::(anonymous namespace)::FileDescriptor", %"struct.std::__1::__fs::filesystem::detail::(anonymous namespace)::FileDescriptor"* %17, i64 0, i32 3, i32 0
  store i8 0, i8* %227, align 8, !alias.scope !125
  %228 = getelementptr inbounds %"struct.std::__1::__fs::filesystem::detail::(anonymous namespace)::FileDescriptor", %"struct.std::__1::__fs::filesystem::detail::(anonymous namespace)::FileDescriptor"* %17, i64 0, i32 3, i32 1
  store i32 65535, i32* %228, align 4, !alias.scope !125
  %229 = icmp eq i32 %224, 0
  br i1 %229, label %231, label %230

230:                                              ; preds = %223
  call void @llvm.lifetime.end.p0i8(i64 8, i8* nonnull %207)
  br label %245

231:                                              ; preds = %223
  invoke fastcc void @_ZNSt3__14__fs10filesystem6detail12_GLOBAL__N_114FileDescriptor14refresh_statusERNS_10error_codeE(%"class.std::__1::__fs::filesystem::file_status"* noalias nonnull align 4 %6, %"struct.std::__1::__fs::filesystem::detail::(anonymous namespace)::FileDescriptor"* nonnull %17, %"class.std::__1::error_code"* nonnull align 8 dereferenceable(16) %14)
          to label %242 unwind label %232

232:                                              ; preds = %231
  %233 = landingpad { i8*, i32 }
          cleanup
  %234 = load i32, i32* %226, align 8, !tbaa !109, !alias.scope !130
  %235 = icmp eq i32 %234, -1
  br i1 %235, label %241, label %236

236:                                              ; preds = %232
  %237 = invoke i32 @close(i32 %234)
          to label %241 unwind label %238

238:                                              ; preds = %236
  %239 = landingpad { i8*, i32 }
          catch i8* null
  %240 = extractvalue { i8*, i32 } %239, 0
  call void @__clang_call_terminate(i8* %240) #23
  unreachable

241:                                              ; preds = %236, %232
  store i32 -1, i32* %226, align 8, !tbaa !109, !alias.scope !130
  br label %248

242:                                              ; preds = %231
  %243 = load i32, i32* %30, align 8, !tbaa !22
  call void @llvm.lifetime.end.p0i8(i64 8, i8* nonnull %207)
  %244 = icmp eq i32 %243, 0
  br i1 %244, label %254, label %245

245:                                              ; preds = %230, %242
  invoke fastcc void @_ZNKSt3__14__fs10filesystem6detail12_GLOBAL__N_112ErrorHandlerIbE6reportERKNS_10error_codeE(%"struct.std::__1::__fs::filesystem::detail::(anonymous namespace)::ErrorHandler.8"* nonnull %13, %"class.std::__1::error_code"* nonnull align 8 dereferenceable(16) %14)
          to label %313 unwind label %252

246:                                              ; preds = %201
  %247 = landingpad { i8*, i32 }
          cleanup
  br label %248

248:                                              ; preds = %241, %246
  %249 = phi { i8*, i32 } [ %247, %246 ], [ %233, %241 ]
  %250 = extractvalue { i8*, i32 } %249, 0
  %251 = extractvalue { i8*, i32 } %249, 1
  br label %335

252:                                              ; preds = %245, %280, %291, %309
  %253 = landingpad { i8*, i32 }
          cleanup
  br label %323

254:                                              ; preds = %242
  br i1 %202, label %295, label %255

255:                                              ; preds = %254
  %256 = getelementptr inbounds %struct.stat, %struct.stat* %16, i64 0, i32 0
  %257 = load i64, i64* %256, align 8, !tbaa !79
  %258 = getelementptr inbounds %struct.stat, %struct.stat* %16, i64 0, i32 1
  %259 = load i64, i64* %258, align 8
  %260 = getelementptr inbounds %"struct.std::__1::__fs::filesystem::detail::(anonymous namespace)::FileDescriptor", %"struct.std::__1::__fs::filesystem::detail::(anonymous namespace)::FileDescriptor"* %17, i64 0, i32 2, i32 0
  %261 = load i64, i64* %260, align 8, !tbaa !79
  %262 = getelementptr inbounds %"struct.std::__1::__fs::filesystem::detail::(anonymous namespace)::FileDescriptor", %"struct.std::__1::__fs::filesystem::detail::(anonymous namespace)::FileDescriptor"* %17, i64 0, i32 2, i32 1
  %263 = load i64, i64* %262, align 8
  %264 = icmp eq i64 %257, %261
  %265 = icmp eq i64 %259, %263
  %266 = and i1 %264, %265
  br i1 %266, label %275, label %267

267:                                              ; preds = %255
  %268 = bitcast %"class.std::__1::error_code"* %5 to i8*
  call void @llvm.lifetime.start.p0i8(i64 16, i8* nonnull %268) #13
  %269 = call nonnull align 8 dereferenceable(8) %"class.std::__1::error_category"* @_ZNSt3__116generic_categoryEv() #13
  %270 = getelementptr inbounds %"class.std::__1::error_code", %"class.std::__1::error_code"* %5, i64 0, i32 0
  store i32 9, i32* %270, align 8
  %271 = getelementptr inbounds %"class.std::__1::error_code", %"class.std::__1::error_code"* %5, i64 0, i32 1
  store %"class.std::__1::error_category"* %269, %"class.std::__1::error_category"** %271, align 8
  invoke fastcc void @_ZNKSt3__14__fs10filesystem6detail12_GLOBAL__N_112ErrorHandlerIbE6reportERKNS_10error_codeE(%"struct.std::__1::__fs::filesystem::detail::(anonymous namespace)::ErrorHandler.8"* nonnull %13, %"class.std::__1::error_code"* nonnull align 8 dereferenceable(16) %5)
          to label %272 unwind label %273

272:                                              ; preds = %267
  call void @llvm.lifetime.end.p0i8(i64 16, i8* nonnull %268) #13
  br label %313

273:                                              ; preds = %267
  %274 = landingpad { i8*, i32 }
          cleanup
  br label %323

275:                                              ; preds = %255
  %276 = load i32, i32* %226, align 8, !tbaa !109
  %277 = load i32, i32* %205, align 8, !tbaa !58
  %278 = call i32 @fchmod(i32 %276, i32 %277) #13
  %279 = icmp eq i32 %278, -1
  br i1 %279, label %280, label %284

280:                                              ; preds = %275
  %281 = tail call i32* @__errno_location() #21
  %282 = load i32, i32* %281, align 4, !tbaa !4
  %283 = call nonnull align 8 dereferenceable(8) %"class.std::__1::error_category"* @_ZNSt3__116generic_categoryEv() #13
  store i32 %282, i32* %30, align 8, !tbaa.struct !40
  store %"class.std::__1::error_category"* %283, %"class.std::__1::error_category"** %31, align 8
  invoke fastcc void @_ZNKSt3__14__fs10filesystem6detail12_GLOBAL__N_112ErrorHandlerIbE6reportERKNS_10error_codeE(%"struct.std::__1::__fs::filesystem::detail::(anonymous namespace)::ErrorHandler.8"* nonnull %13, %"class.std::__1::error_code"* nonnull align 8 dereferenceable(16) %14)
          to label %313 unwind label %252

284:                                              ; preds = %275
  store i32 0, i32* %30, align 8, !tbaa !22
  %285 = call nonnull align 8 dereferenceable(8) %"class.std::__1::error_category"* @_ZNSt3__115system_categoryEv() #13
  store %"class.std::__1::error_category"* %285, %"class.std::__1::error_category"** %31, align 8
  %286 = load i32, i32* %226, align 8, !tbaa !109
  %287 = call i32 @ftruncate(i32 %286, i64 0) #13
  %288 = icmp eq i32 %287, -1
  br i1 %288, label %291, label %289

289:                                              ; preds = %284
  store i32 0, i32* %30, align 8, !tbaa !22
  %290 = call nonnull align 8 dereferenceable(8) %"class.std::__1::error_category"* @_ZNSt3__115system_categoryEv() #13
  store %"class.std::__1::error_category"* %290, %"class.std::__1::error_category"** %31, align 8
  br label %295

291:                                              ; preds = %284
  %292 = tail call i32* @__errno_location() #21
  %293 = load i32, i32* %292, align 4, !tbaa !4
  %294 = call nonnull align 8 dereferenceable(8) %"class.std::__1::error_category"* @_ZNSt3__116generic_categoryEv() #13
  store i32 %293, i32* %30, align 8, !tbaa.struct !40
  store %"class.std::__1::error_category"* %294, %"class.std::__1::error_category"** %31, align 8
  invoke fastcc void @_ZNKSt3__14__fs10filesystem6detail12_GLOBAL__N_112ErrorHandlerIbE6reportERKNS_10error_codeE(%"struct.std::__1::__fs::filesystem::detail::(anonymous namespace)::ErrorHandler.8"* nonnull %13, %"class.std::__1::error_code"* nonnull align 8 dereferenceable(16) %14)
          to label %313 unwind label %252

295:                                              ; preds = %289, %254
  %296 = getelementptr inbounds %"struct.std::__1::__fs::filesystem::detail::(anonymous namespace)::FileDescriptor", %"struct.std::__1::__fs::filesystem::detail::(anonymous namespace)::FileDescriptor"* %15, i64 0, i32 2, i32 8
  %297 = load i64, i64* %296, align 8, !tbaa !132
  br label %298

298:                                              ; preds = %304, %295
  %299 = phi i64 [ %297, %295 ], [ %305, %304 ]
  %300 = load i32, i32* %226, align 8, !tbaa !109
  %301 = load i32, i32* %54, align 8, !tbaa !109
  %302 = call i64 @sendfile(i32 %300, i32 %301, i64* null, i64 %299) #13
  %303 = icmp eq i64 %302, -1
  br i1 %303, label %309, label %304

304:                                              ; preds = %298
  %305 = sub i64 %299, %302
  %306 = icmp eq i64 %305, 0
  br i1 %306, label %307, label %298

307:                                              ; preds = %304
  store i32 0, i32* %30, align 8, !tbaa !22
  %308 = call nonnull align 8 dereferenceable(8) %"class.std::__1::error_category"* @_ZNSt3__115system_categoryEv() #13
  store %"class.std::__1::error_category"* %308, %"class.std::__1::error_category"** %31, align 8, !tbaa !24
  br label %313

309:                                              ; preds = %298
  %310 = tail call i32* @__errno_location() #21
  %311 = load i32, i32* %310, align 4, !tbaa !4
  %312 = call nonnull align 8 dereferenceable(8) %"class.std::__1::error_category"* @_ZNSt3__116generic_categoryEv() #13
  store i32 %311, i32* %30, align 8, !tbaa.struct !40
  store %"class.std::__1::error_category"* %312, %"class.std::__1::error_category"** %31, align 8, !tbaa.struct !40
  invoke fastcc void @_ZNKSt3__14__fs10filesystem6detail12_GLOBAL__N_112ErrorHandlerIbE6reportERKNS_10error_codeE(%"struct.std::__1::__fs::filesystem::detail::(anonymous namespace)::ErrorHandler.8"* nonnull %13, %"class.std::__1::error_code"* nonnull align 8 dereferenceable(16) %14)
          to label %313 unwind label %252

313:                                              ; preds = %307, %309, %291, %280, %245, %272
  %314 = phi i1 [ false, %272 ], [ false, %245 ], [ false, %280 ], [ false, %291 ], [ false, %309 ], [ true, %307 ]
  %315 = load i32, i32* %226, align 8, !tbaa !109
  %316 = icmp eq i32 %315, -1
  br i1 %316, label %322, label %317

317:                                              ; preds = %313
  %318 = invoke i32 @close(i32 %315)
          to label %322 unwind label %319

319:                                              ; preds = %317
  %320 = landingpad { i8*, i32 }
          catch i8* null
  %321 = extractvalue { i8*, i32 } %320, 0
  call void @__clang_call_terminate(i8* %321) #23
  unreachable

322:                                              ; preds = %313, %317
  call void @llvm.lifetime.end.p0i8(i64 168, i8* nonnull %204) #13
  br label %338

323:                                              ; preds = %273, %252
  %324 = phi { i8*, i32 } [ %274, %273 ], [ %253, %252 ]
  %325 = extractvalue { i8*, i32 } %324, 0
  %326 = extractvalue { i8*, i32 } %324, 1
  %327 = load i32, i32* %226, align 8, !tbaa !109
  %328 = icmp eq i32 %327, -1
  br i1 %328, label %334, label %329

329:                                              ; preds = %323
  %330 = invoke i32 @close(i32 %327)
          to label %334 unwind label %331

331:                                              ; preds = %329
  %332 = landingpad { i8*, i32 }
          catch i8* null
  %333 = extractvalue { i8*, i32 } %332, 0
  call void @__clang_call_terminate(i8* %333) #23
  unreachable

334:                                              ; preds = %323, %329
  store i32 -1, i32* %226, align 8, !tbaa !109
  br label %335

335:                                              ; preds = %334, %248
  %336 = phi i32 [ %326, %334 ], [ %251, %248 ]
  %337 = phi i8* [ %325, %334 ], [ %250, %248 ]
  call void @llvm.lifetime.end.p0i8(i64 168, i8* nonnull %204) #13
  br label %340

338:                                              ; preds = %174, %188, %143, %165, %189, %322, %170, %128
  %339 = phi i1 [ false, %128 ], [ false, %143 ], [ false, %165 ], [ %314, %322 ], [ false, %189 ], [ false, %170 ], [ false, %188 ], [ false, %174 ]
  call void @llvm.lifetime.end.p0i8(i64 144, i8* nonnull %92) #13
  br label %343

340:                                              ; preds = %133, %197, %335, %166, %144, %129
  %341 = phi i32 [ %132, %129 ], [ %136, %133 ], [ %147, %144 ], [ %169, %166 ], [ %336, %335 ], [ %200, %197 ]
  %342 = phi i8* [ %131, %129 ], [ %135, %133 ], [ %146, %144 ], [ %168, %166 ], [ %337, %335 ], [ %199, %197 ]
  call void @llvm.lifetime.end.p0i8(i64 144, i8* nonnull %92) #13
  br label %353

343:                                              ; preds = %338, %87, %73
  %344 = phi i1 [ false, %73 ], [ %339, %338 ], [ false, %87 ]
  %345 = load i32, i32* %54, align 8, !tbaa !109
  %346 = icmp eq i32 %345, -1
  br i1 %346, label %352, label %347

347:                                              ; preds = %343
  %348 = invoke i32 @close(i32 %345)
          to label %352 unwind label %349

349:                                              ; preds = %347
  %350 = landingpad { i8*, i32 }
          catch i8* null
  %351 = extractvalue { i8*, i32 } %350, 0
  call void @__clang_call_terminate(i8* %351) #23
  unreachable

352:                                              ; preds = %343, %347
  call void @llvm.lifetime.end.p0i8(i64 168, i8* nonnull %33) #13
  call void @llvm.lifetime.end.p0i8(i64 16, i8* nonnull %29) #13
  call void @llvm.lifetime.end.p0i8(i64 32, i8* nonnull %18) #13
  ret i1 %344

353:                                              ; preds = %83, %340, %74
  %354 = phi i32 [ %77, %74 ], [ %86, %83 ], [ %341, %340 ]
  %355 = phi i8* [ %76, %74 ], [ %85, %83 ], [ %342, %340 ]
  %356 = load i32, i32* %54, align 8, !tbaa !109
  %357 = icmp eq i32 %356, -1
  br i1 %357, label %363, label %358

358:                                              ; preds = %353
  %359 = invoke i32 @close(i32 %356)
          to label %363 unwind label %360

360:                                              ; preds = %358
  %361 = landingpad { i8*, i32 }
          catch i8* null
  %362 = extractvalue { i8*, i32 } %361, 0
  call void @__clang_call_terminate(i8* %362) #23
  unreachable

363:                                              ; preds = %353, %358
  call void @llvm.lifetime.end.p0i8(i64 168, i8* nonnull %33) #13
  call void @llvm.lifetime.end.p0i8(i64 16, i8* nonnull %29) #13
  call void @llvm.lifetime.end.p0i8(i64 32, i8* nonnull %18) #13
  %364 = insertvalue { i8*, i32 } undef, i8* %355, 0
  %365 = insertvalue { i8*, i32 } %364, i32 %354, 1
  resume { i8*, i32 } %365
}

; Function Attrs: uwtable
define zeroext i1 @_ZNSt3__14__fs10filesystem18__create_directoryERKNS1_4pathES4_PNS_10error_codeE(%"class.std::__1::__fs::filesystem::path"* nonnull align 8 dereferenceable(24) %0, %"class.std::__1::__fs::filesystem::path"* nonnull align 8 dereferenceable(24) %1, %"class.std::__1::error_code"* %2) local_unnamed_addr #7 personality i8* bitcast (i32 (...)* @__gxx_personality_v0 to i8*) {
  %4 = alloca %"struct.std::__1::__fs::filesystem::detail::(anonymous namespace)::ErrorHandler.6", align 8
  %5 = alloca %"class.std::__1::error_code", align 8
  %6 = alloca %struct.stat, align 8
  %7 = alloca %"struct.std::__1::__fs::filesystem::detail::(anonymous namespace)::ErrorHandler.6", align 8
  %8 = alloca %"class.std::__1::error_code", align 8
  %9 = alloca %"struct.std::__1::__fs::filesystem::detail::(anonymous namespace)::ErrorHandler.8", align 8
  %10 = alloca %struct.stat, align 8
  %11 = alloca %"class.std::__1::error_code", align 8
  %12 = alloca i32, align 4
  %13 = alloca %"class.std::__1::error_code", align 8
  %14 = alloca %"class.std::__1::error_code", align 8
  %15 = bitcast %"struct.std::__1::__fs::filesystem::detail::(anonymous namespace)::ErrorHandler.8"* %9 to i8*
  call void @llvm.lifetime.start.p0i8(i64 32, i8* nonnull %15) #13
  %16 = getelementptr inbounds %"struct.std::__1::__fs::filesystem::detail::(anonymous namespace)::ErrorHandler.8", %"struct.std::__1::__fs::filesystem::detail::(anonymous namespace)::ErrorHandler.8"* %9, i64 0, i32 0
  store i8* getelementptr inbounds ([17 x i8], [17 x i8]* @.str.5, i64 0, i64 0), i8** %16, align 8, !tbaa !98
  %17 = getelementptr inbounds %"struct.std::__1::__fs::filesystem::detail::(anonymous namespace)::ErrorHandler.8", %"struct.std::__1::__fs::filesystem::detail::(anonymous namespace)::ErrorHandler.8"* %9, i64 0, i32 1
  store %"class.std::__1::error_code"* %2, %"class.std::__1::error_code"** %17, align 8, !tbaa !100
  %18 = getelementptr inbounds %"struct.std::__1::__fs::filesystem::detail::(anonymous namespace)::ErrorHandler.8", %"struct.std::__1::__fs::filesystem::detail::(anonymous namespace)::ErrorHandler.8"* %9, i64 0, i32 2
  store %"class.std::__1::__fs::filesystem::path"* %0, %"class.std::__1::__fs::filesystem::path"** %18, align 8, !tbaa !101
  %19 = getelementptr inbounds %"struct.std::__1::__fs::filesystem::detail::(anonymous namespace)::ErrorHandler.8", %"struct.std::__1::__fs::filesystem::detail::(anonymous namespace)::ErrorHandler.8"* %9, i64 0, i32 3
  store %"class.std::__1::__fs::filesystem::path"* %1, %"class.std::__1::__fs::filesystem::path"** %19, align 8, !tbaa !102
  %20 = icmp eq %"class.std::__1::error_code"* %2, null
  br i1 %20, label %25, label %21

21:                                               ; preds = %3
  %22 = getelementptr inbounds %"class.std::__1::error_code", %"class.std::__1::error_code"* %2, i64 0, i32 0
  store i32 0, i32* %22, align 8, !tbaa !22
  %23 = tail call nonnull align 8 dereferenceable(8) %"class.std::__1::error_category"* @_ZNSt3__115system_categoryEv() #13
  %24 = getelementptr inbounds %"class.std::__1::error_code", %"class.std::__1::error_code"* %2, i64 0, i32 1
  store %"class.std::__1::error_category"* %23, %"class.std::__1::error_category"** %24, align 8, !tbaa !24
  br label %25

25:                                               ; preds = %3, %21
  %26 = bitcast %struct.stat* %10 to i8*
  call void @llvm.lifetime.start.p0i8(i64 144, i8* nonnull %26) #13
  %27 = bitcast %"class.std::__1::error_code"* %11 to i8*
  call void @llvm.lifetime.start.p0i8(i64 16, i8* nonnull %27) #13
  %28 = getelementptr inbounds %"class.std::__1::error_code", %"class.std::__1::error_code"* %11, i64 0, i32 0
  store i32 0, i32* %28, align 8, !tbaa !22
  %29 = getelementptr inbounds %"class.std::__1::error_code", %"class.std::__1::error_code"* %11, i64 0, i32 1
  %30 = tail call nonnull align 8 dereferenceable(8) %"class.std::__1::error_category"* @_ZNSt3__115system_categoryEv() #13
  store %"class.std::__1::error_category"* %30, %"class.std::__1::error_category"** %29, align 8, !tbaa !24
  %31 = bitcast %"class.std::__1::error_code"* %8 to i8*
  call void @llvm.lifetime.start.p0i8(i64 16, i8* nonnull %31) #13, !noalias !133
  %32 = getelementptr inbounds %"class.std::__1::error_code", %"class.std::__1::error_code"* %8, i64 0, i32 0
  store i32 0, i32* %32, align 8, !tbaa !22, !noalias !133
  %33 = getelementptr inbounds %"class.std::__1::error_code", %"class.std::__1::error_code"* %8, i64 0, i32 1
  %34 = tail call nonnull align 8 dereferenceable(8) %"class.std::__1::error_category"* @_ZNSt3__115system_categoryEv() #13, !noalias !133
  store %"class.std::__1::error_category"* %34, %"class.std::__1::error_category"** %33, align 8, !tbaa !24, !noalias !133
  %35 = bitcast %"class.std::__1::__fs::filesystem::path"* %1 to i8*
  %36 = load i8, i8* %35, align 8, !tbaa !19, !noalias !133
  %37 = and i8 %36, 1
  %38 = icmp eq i8 %37, 0
  %39 = getelementptr inbounds %"class.std::__1::__fs::filesystem::path", %"class.std::__1::__fs::filesystem::path"* %1, i64 0, i32 0, i32 0, i32 0, i32 0, i32 0, i32 0, i32 2
  %40 = load i8*, i8** %39, align 8, !noalias !133
  %41 = bitcast %"class.std::__1::__fs::filesystem::path"* %1 to %"struct.std::__1::basic_string<char, std::__1::char_traits<char>, std::__1::allocator<char>>::__short"*
  %42 = getelementptr inbounds %"struct.std::__1::basic_string<char, std::__1::char_traits<char>, std::__1::allocator<char>>::__short", %"struct.std::__1::basic_string<char, std::__1::char_traits<char>, std::__1::allocator<char>>::__short"* %41, i64 0, i32 1, i64 0
  %43 = select i1 %38, i8* %42, i8* %40
  %44 = call i32 @__xstat(i32 1, i8* nonnull %43, %struct.stat* nonnull %10) #13, !noalias !133
  %45 = icmp eq i32 %44, -1
  br i1 %45, label %46, label %50

46:                                               ; preds = %25
  %47 = tail call i32* @__errno_location() #21
  %48 = load i32, i32* %47, align 4, !tbaa !4, !noalias !133
  %49 = call nonnull align 8 dereferenceable(8) %"class.std::__1::error_category"* @_ZNSt3__116generic_categoryEv() #13, !noalias !133
  store i32 %48, i32* %32, align 8, !tbaa.struct !40, !noalias !133
  store %"class.std::__1::error_category"* %49, %"class.std::__1::error_category"** %33, align 8, !tbaa.struct !40, !noalias !133
  br label %52

50:                                               ; preds = %25
  %51 = load i32, i32* %32, align 8, !tbaa !22, !noalias !136
  br label %52

52:                                               ; preds = %50, %46
  %53 = phi i32 [ %51, %50 ], [ %48, %46 ]
  call void @llvm.memcpy.p0i8.p0i8.i64(i8* nonnull align 8 dereferenceable(16) %27, i8* nonnull align 8 dereferenceable(16) %31, i64 16, i1 false), !tbaa.struct !40, !noalias !136
  switch i32 %53, label %59 [
    i32 0, label %54
    i32 2, label %70
    i32 20, label %70
  ]

54:                                               ; preds = %52
  %55 = getelementptr inbounds %struct.stat, %struct.stat* %10, i64 0, i32 3
  %56 = load i32, i32* %55, align 8, !tbaa !58, !noalias !136
  %57 = and i32 %56, 61440
  %58 = icmp eq i32 %57, 16384
  br i1 %58, label %77, label %70

59:                                               ; preds = %52
  %60 = bitcast %"struct.std::__1::__fs::filesystem::detail::(anonymous namespace)::ErrorHandler.6"* %7 to i8*
  call void @llvm.lifetime.start.p0i8(i64 32, i8* nonnull %60) #13, !noalias !136
  %61 = getelementptr inbounds %"struct.std::__1::__fs::filesystem::detail::(anonymous namespace)::ErrorHandler.6", %"struct.std::__1::__fs::filesystem::detail::(anonymous namespace)::ErrorHandler.6"* %7, i64 0, i32 0
  store i8* getelementptr inbounds ([11 x i8], [11 x i8]* @.str.39, i64 0, i64 0), i8** %61, align 8, !tbaa !47, !noalias !136
  %62 = getelementptr inbounds %"struct.std::__1::__fs::filesystem::detail::(anonymous namespace)::ErrorHandler.6", %"struct.std::__1::__fs::filesystem::detail::(anonymous namespace)::ErrorHandler.6"* %7, i64 0, i32 1
  store %"class.std::__1::error_code"* %11, %"class.std::__1::error_code"** %62, align 8, !tbaa !49, !noalias !136
  %63 = getelementptr inbounds %"struct.std::__1::__fs::filesystem::detail::(anonymous namespace)::ErrorHandler.6", %"struct.std::__1::__fs::filesystem::detail::(anonymous namespace)::ErrorHandler.6"* %7, i64 0, i32 2
  store %"class.std::__1::__fs::filesystem::path"* %1, %"class.std::__1::__fs::filesystem::path"** %63, align 8, !tbaa !50, !noalias !136
  %64 = getelementptr inbounds %"struct.std::__1::__fs::filesystem::detail::(anonymous namespace)::ErrorHandler.6", %"struct.std::__1::__fs::filesystem::detail::(anonymous namespace)::ErrorHandler.6"* %7, i64 0, i32 3
  store %"class.std::__1::__fs::filesystem::path"* null, %"class.std::__1::__fs::filesystem::path"** %64, align 8, !tbaa !51, !noalias !136
  store i32 0, i32* %28, align 8, !tbaa !22, !noalias !136
  %65 = call nonnull align 8 dereferenceable(8) %"class.std::__1::error_category"* @_ZNSt3__115system_categoryEv() #13, !noalias !136
  store %"class.std::__1::error_category"* %65, %"class.std::__1::error_category"** %29, align 8, !tbaa !24, !noalias !136
  call void (%"struct.std::__1::__fs::filesystem::detail::(anonymous namespace)::ErrorHandler.6"*, %"class.std::__1::error_code"*, i8*, ...) @_ZNKSt3__14__fs10filesystem6detail12_GLOBAL__N_112ErrorHandlerIvE6reportERKNS_10error_codeEPKcz(%"struct.std::__1::__fs::filesystem::detail::(anonymous namespace)::ErrorHandler.6"* nonnull %7, %"class.std::__1::error_code"* nonnull align 8 dereferenceable(16) %8, i8* undef), !noalias !136
  call void @llvm.lifetime.end.p0i8(i64 32, i8* nonnull %60) #13, !noalias !136
  call void @llvm.lifetime.end.p0i8(i64 16, i8* nonnull %31) #13, !noalias !133
  invoke fastcc void @_ZNKSt3__14__fs10filesystem6detail12_GLOBAL__N_112ErrorHandlerIbE6reportERKNS_10error_codeE(%"struct.std::__1::__fs::filesystem::detail::(anonymous namespace)::ErrorHandler.8"* nonnull %9, %"class.std::__1::error_code"* nonnull align 8 dereferenceable(16) %11)
          to label %150 unwind label %66

66:                                               ; preds = %59
  %67 = landingpad { i8*, i32 }
          cleanup
  %68 = extractvalue { i8*, i32 } %67, 0
  %69 = extractvalue { i8*, i32 } %67, 1
  br label %152

70:                                               ; preds = %54, %52, %52
  call void @llvm.lifetime.end.p0i8(i64 16, i8* nonnull %31) #13, !noalias !133
  %71 = bitcast i32* %12 to i8*
  call void @llvm.lifetime.start.p0i8(i64 4, i8* nonnull %71) #13
  store i32 20, i32* %12, align 4, !tbaa !139
  invoke void (%"struct.std::__1::__fs::filesystem::detail::(anonymous namespace)::ErrorHandler.8"*, i32*, i8*, ...) @_ZNKSt3__14__fs10filesystem6detail12_GLOBAL__N_112ErrorHandlerIbE6reportERKNS_4errcEPKcz(%"struct.std::__1::__fs::filesystem::detail::(anonymous namespace)::ErrorHandler.8"* nonnull %9, i32* nonnull align 4 dereferenceable(4) %12, i8* undef)
          to label %72 unwind label %73

72:                                               ; preds = %70
  call void @llvm.lifetime.end.p0i8(i64 4, i8* nonnull %71) #13
  br label %150

73:                                               ; preds = %70
  %74 = landingpad { i8*, i32 }
          cleanup
  %75 = extractvalue { i8*, i32 } %74, 0
  %76 = extractvalue { i8*, i32 } %74, 1
  call void @llvm.lifetime.end.p0i8(i64 4, i8* nonnull %71) #13
  br label %152

77:                                               ; preds = %54
  call void @llvm.lifetime.end.p0i8(i64 16, i8* nonnull %31) #13, !noalias !133
  %78 = bitcast %"class.std::__1::__fs::filesystem::path"* %0 to i8*
  %79 = load i8, i8* %78, align 8, !tbaa !19
  %80 = and i8 %79, 1
  %81 = icmp eq i8 %80, 0
  %82 = getelementptr inbounds %"class.std::__1::__fs::filesystem::path", %"class.std::__1::__fs::filesystem::path"* %0, i64 0, i32 0, i32 0, i32 0, i32 0, i32 0, i32 0, i32 2
  %83 = load i8*, i8** %82, align 8
  %84 = bitcast %"class.std::__1::__fs::filesystem::path"* %0 to %"struct.std::__1::basic_string<char, std::__1::char_traits<char>, std::__1::allocator<char>>::__short"*
  %85 = getelementptr inbounds %"struct.std::__1::basic_string<char, std::__1::char_traits<char>, std::__1::allocator<char>>::__short", %"struct.std::__1::basic_string<char, std::__1::char_traits<char>, std::__1::allocator<char>>::__short"* %84, i64 0, i32 1, i64 0
  %86 = select i1 %81, i8* %85, i8* %83
  %87 = getelementptr inbounds %struct.stat, %struct.stat* %10, i64 0, i32 3
  %88 = load i32, i32* %87, align 8, !tbaa !58
  %89 = call i32 @mkdir(i8* %86, i32 %88) #13
  %90 = icmp eq i32 %89, 0
  br i1 %90, label %150, label %91

91:                                               ; preds = %77
  %92 = tail call i32* @__errno_location() #21
  %93 = load i32, i32* %92, align 4, !tbaa !4
  %94 = icmp eq i32 %93, 17
  br i1 %94, label %105, label %95

95:                                               ; preds = %91
  %96 = bitcast %"class.std::__1::error_code"* %13 to i8*
  call void @llvm.lifetime.start.p0i8(i64 16, i8* nonnull %96) #13
  %97 = call nonnull align 8 dereferenceable(8) %"class.std::__1::error_category"* @_ZNSt3__116generic_categoryEv() #13
  %98 = getelementptr inbounds %"class.std::__1::error_code", %"class.std::__1::error_code"* %13, i64 0, i32 0
  store i32 %93, i32* %98, align 8
  %99 = getelementptr inbounds %"class.std::__1::error_code", %"class.std::__1::error_code"* %13, i64 0, i32 1
  store %"class.std::__1::error_category"* %97, %"class.std::__1::error_category"** %99, align 8
  invoke fastcc void @_ZNKSt3__14__fs10filesystem6detail12_GLOBAL__N_112ErrorHandlerIbE6reportERKNS_10error_codeE(%"struct.std::__1::__fs::filesystem::detail::(anonymous namespace)::ErrorHandler.8"* nonnull %9, %"class.std::__1::error_code"* nonnull align 8 dereferenceable(16) %13)
          to label %100 unwind label %101

100:                                              ; preds = %95
  call void @llvm.lifetime.end.p0i8(i64 16, i8* nonnull %96) #13
  br label %150

101:                                              ; preds = %95
  %102 = landingpad { i8*, i32 }
          cleanup
  %103 = extractvalue { i8*, i32 } %102, 0
  %104 = extractvalue { i8*, i32 } %102, 1
  call void @llvm.lifetime.end.p0i8(i64 16, i8* nonnull %96) #13
  br label %152

105:                                              ; preds = %91
  %106 = call nonnull align 8 dereferenceable(8) %"class.std::__1::error_category"* @_ZNSt3__116generic_categoryEv() #13
  store i32 17, i32* %28, align 8, !tbaa.struct !40
  store %"class.std::__1::error_category"* %106, %"class.std::__1::error_category"** %29, align 8, !tbaa.struct !40
  %107 = bitcast %"class.std::__1::error_code"* %14 to i8*
  call void @llvm.lifetime.start.p0i8(i64 16, i8* nonnull %107) #13
  %108 = getelementptr inbounds %"class.std::__1::error_code", %"class.std::__1::error_code"* %14, i64 0, i32 0
  store i32 0, i32* %108, align 8, !tbaa !22
  %109 = getelementptr inbounds %"class.std::__1::error_code", %"class.std::__1::error_code"* %14, i64 0, i32 1
  %110 = call nonnull align 8 dereferenceable(8) %"class.std::__1::error_category"* @_ZNSt3__115system_categoryEv() #13
  store %"class.std::__1::error_category"* %110, %"class.std::__1::error_category"** %109, align 8, !tbaa !24
  %111 = bitcast %struct.stat* %6 to i8*
  call void @llvm.lifetime.start.p0i8(i64 144, i8* nonnull %111) #13, !noalias !141
  %112 = bitcast %"class.std::__1::error_code"* %5 to i8*
  call void @llvm.lifetime.start.p0i8(i64 16, i8* nonnull %112) #13, !noalias !148
  %113 = getelementptr inbounds %"class.std::__1::error_code", %"class.std::__1::error_code"* %5, i64 0, i32 0
  store i32 0, i32* %113, align 8, !tbaa !22, !noalias !148
  %114 = getelementptr inbounds %"class.std::__1::error_code", %"class.std::__1::error_code"* %5, i64 0, i32 1
  %115 = call nonnull align 8 dereferenceable(8) %"class.std::__1::error_category"* @_ZNSt3__115system_categoryEv() #13, !noalias !148
  store %"class.std::__1::error_category"* %115, %"class.std::__1::error_category"** %114, align 8, !tbaa !24, !noalias !148
  %116 = load i8, i8* %78, align 8, !tbaa !19, !noalias !148
  %117 = and i8 %116, 1
  %118 = icmp eq i8 %117, 0
  %119 = load i8*, i8** %82, align 8, !noalias !148
  %120 = select i1 %118, i8* %85, i8* %119
  %121 = call i32 @__xstat(i32 1, i8* nonnull %120, %struct.stat* nonnull %6) #13, !noalias !148
  %122 = icmp eq i32 %121, -1
  br i1 %122, label %124, label %123

123:                                              ; preds = %105
  call void @llvm.memcpy.p0i8.p0i8.i64(i8* nonnull align 8 dereferenceable(16) %107, i8* nonnull align 8 dereferenceable(16) %112, i64 16, i1 false), !tbaa.struct !40, !noalias !151
  br label %135

124:                                              ; preds = %105
  %125 = load i32, i32* %92, align 4, !tbaa !4, !noalias !148
  %126 = call nonnull align 8 dereferenceable(8) %"class.std::__1::error_category"* @_ZNSt3__116generic_categoryEv() #13, !noalias !148
  store i32 %125, i32* %113, align 8, !tbaa.struct !40, !noalias !148
  store %"class.std::__1::error_category"* %126, %"class.std::__1::error_category"** %114, align 8, !tbaa.struct !40, !noalias !148
  call void @llvm.memcpy.p0i8.p0i8.i64(i8* nonnull align 8 dereferenceable(16) %107, i8* nonnull align 8 dereferenceable(16) %112, i64 16, i1 false), !tbaa.struct !40, !noalias !151
  switch i32 %125, label %127 [
    i32 0, label %135
    i32 2, label %144
    i32 20, label %144
  ]

127:                                              ; preds = %124
  %128 = bitcast %"struct.std::__1::__fs::filesystem::detail::(anonymous namespace)::ErrorHandler.6"* %4 to i8*
  call void @llvm.lifetime.start.p0i8(i64 32, i8* nonnull %128) #13, !noalias !151
  %129 = getelementptr inbounds %"struct.std::__1::__fs::filesystem::detail::(anonymous namespace)::ErrorHandler.6", %"struct.std::__1::__fs::filesystem::detail::(anonymous namespace)::ErrorHandler.6"* %4, i64 0, i32 0
  store i8* getelementptr inbounds ([11 x i8], [11 x i8]* @.str.39, i64 0, i64 0), i8** %129, align 8, !tbaa !47, !noalias !151
  %130 = getelementptr inbounds %"struct.std::__1::__fs::filesystem::detail::(anonymous namespace)::ErrorHandler.6", %"struct.std::__1::__fs::filesystem::detail::(anonymous namespace)::ErrorHandler.6"* %4, i64 0, i32 1
  store %"class.std::__1::error_code"* %14, %"class.std::__1::error_code"** %130, align 8, !tbaa !49, !noalias !151
  %131 = getelementptr inbounds %"struct.std::__1::__fs::filesystem::detail::(anonymous namespace)::ErrorHandler.6", %"struct.std::__1::__fs::filesystem::detail::(anonymous namespace)::ErrorHandler.6"* %4, i64 0, i32 2
  store %"class.std::__1::__fs::filesystem::path"* %0, %"class.std::__1::__fs::filesystem::path"** %131, align 8, !tbaa !50, !noalias !151
  %132 = getelementptr inbounds %"struct.std::__1::__fs::filesystem::detail::(anonymous namespace)::ErrorHandler.6", %"struct.std::__1::__fs::filesystem::detail::(anonymous namespace)::ErrorHandler.6"* %4, i64 0, i32 3
  store %"class.std::__1::__fs::filesystem::path"* null, %"class.std::__1::__fs::filesystem::path"** %132, align 8, !tbaa !51, !noalias !151
  store i32 0, i32* %108, align 8, !tbaa !22, !noalias !151
  %133 = call nonnull align 8 dereferenceable(8) %"class.std::__1::error_category"* @_ZNSt3__115system_categoryEv() #13, !noalias !151
  store %"class.std::__1::error_category"* %133, %"class.std::__1::error_category"** %109, align 8, !tbaa !24, !noalias !151
  invoke void (%"struct.std::__1::__fs::filesystem::detail::(anonymous namespace)::ErrorHandler.6"*, %"class.std::__1::error_code"*, i8*, ...) @_ZNKSt3__14__fs10filesystem6detail12_GLOBAL__N_112ErrorHandlerIvE6reportERKNS_10error_codeEPKcz(%"struct.std::__1::__fs::filesystem::detail::(anonymous namespace)::ErrorHandler.6"* nonnull %4, %"class.std::__1::error_code"* nonnull align 8 dereferenceable(16) %5, i8* undef)
          to label %134 unwind label %140

134:                                              ; preds = %127
  call void @llvm.lifetime.end.p0i8(i64 32, i8* nonnull %128) #13, !noalias !151
  br label %144

135:                                              ; preds = %123, %124
  %136 = getelementptr inbounds %struct.stat, %struct.stat* %6, i64 0, i32 3
  %137 = load i32, i32* %136, align 8, !tbaa !58, !noalias !151
  %138 = and i32 %137, 61440
  %139 = icmp eq i32 %138, 16384
  br i1 %139, label %143, label %144

140:                                              ; preds = %127
  %141 = landingpad { i8*, i32 }
          catch i8* null
  %142 = extractvalue { i8*, i32 } %141, 0
  call void @__clang_call_terminate(i8* %142) #23, !noalias !154
  unreachable

143:                                              ; preds = %135
  call void @llvm.lifetime.end.p0i8(i64 16, i8* nonnull %112) #13, !noalias !148
  call void @llvm.lifetime.end.p0i8(i64 144, i8* nonnull %111) #13, !noalias !141
  br label %149

144:                                              ; preds = %135, %134, %124, %124
  call void @llvm.lifetime.end.p0i8(i64 16, i8* nonnull %112) #13, !noalias !148
  call void @llvm.lifetime.end.p0i8(i64 144, i8* nonnull %111) #13, !noalias !141
  invoke fastcc void @_ZNKSt3__14__fs10filesystem6detail12_GLOBAL__N_112ErrorHandlerIbE6reportERKNS_10error_codeE(%"struct.std::__1::__fs::filesystem::detail::(anonymous namespace)::ErrorHandler.8"* nonnull %9, %"class.std::__1::error_code"* nonnull align 8 dereferenceable(16) %11)
          to label %149 unwind label %145

145:                                              ; preds = %144
  %146 = landingpad { i8*, i32 }
          cleanup
  %147 = extractvalue { i8*, i32 } %146, 0
  %148 = extractvalue { i8*, i32 } %146, 1
  call void @llvm.lifetime.end.p0i8(i64 16, i8* nonnull %107) #13
  br label %152

149:                                              ; preds = %143, %144
  call void @llvm.lifetime.end.p0i8(i64 16, i8* nonnull %107) #13
  br label %150

150:                                              ; preds = %77, %59, %149, %100, %72
  %151 = phi i1 [ false, %72 ], [ false, %100 ], [ false, %149 ], [ false, %59 ], [ true, %77 ]
  call void @llvm.lifetime.end.p0i8(i64 16, i8* nonnull %27) #13
  call void @llvm.lifetime.end.p0i8(i64 144, i8* nonnull %26) #13
  call void @llvm.lifetime.end.p0i8(i64 32, i8* nonnull %15) #13
  ret i1 %151

152:                                              ; preds = %145, %101, %73, %66
  %153 = phi i32 [ %69, %66 ], [ %76, %73 ], [ %104, %101 ], [ %148, %145 ]
  %154 = phi i8* [ %68, %66 ], [ %75, %73 ], [ %103, %101 ], [ %147, %145 ]
  call void @llvm.lifetime.end.p0i8(i64 16, i8* nonnull %27) #13
  call void @llvm.lifetime.end.p0i8(i64 144, i8* nonnull %26) #13
  call void @llvm.lifetime.end.p0i8(i64 32, i8* nonnull %15) #13
  %155 = insertvalue { i8*, i32 } undef, i8* %154, 0
  %156 = insertvalue { i8*, i32 } %155, i32 %153, 1
  resume { i8*, i32 } %156
}

; Function Attrs: uwtable
define internal fastcc void @_ZNKSt3__14__fs10filesystem6detail12_GLOBAL__N_112ErrorHandlerIbE6reportERKNS_10error_codeE(%"struct.std::__1::__fs::filesystem::detail::(anonymous namespace)::ErrorHandler.8"* nocapture readonly %0, %"class.std::__1::error_code"* nonnull align 8 dereferenceable(16) %1) unnamed_addr #7 align 2 personality i8* bitcast (i32 (...)* @__gxx_personality_v0 to i8*) {
  %3 = alloca %"class.std::__1::basic_string", align 8
  %4 = alloca %"class.std::__1::basic_string", align 8
  %5 = getelementptr inbounds %"struct.std::__1::__fs::filesystem::detail::(anonymous namespace)::ErrorHandler.8", %"struct.std::__1::__fs::filesystem::detail::(anonymous namespace)::ErrorHandler.8"* %0, i64 0, i32 1
  %6 = load %"class.std::__1::error_code"*, %"class.std::__1::error_code"** %5, align 8, !tbaa !100
  %7 = icmp eq %"class.std::__1::error_code"* %6, null
  br i1 %7, label %11, label %8

8:                                                ; preds = %2
  %9 = bitcast %"class.std::__1::error_code"* %6 to i8*
  %10 = bitcast %"class.std::__1::error_code"* %1 to i8*
  tail call void @llvm.memcpy.p0i8.p0i8.i64(i8* nonnull align 8 dereferenceable(16) %9, i8* nonnull align 8 dereferenceable(16) %10, i64 16, i1 false), !tbaa.struct !40
  ret void

11:                                               ; preds = %2
  %12 = bitcast %"class.std::__1::basic_string"* %3 to i8*
  call void @llvm.lifetime.start.p0i8(i64 24, i8* nonnull %12) #13
  %13 = bitcast %"class.std::__1::basic_string"* %4 to i8*
  call void @llvm.lifetime.start.p0i8(i64 24, i8* nonnull %13) #13
  store i8 6, i8* %13, align 8, !tbaa !19
  %14 = bitcast %"class.std::__1::basic_string"* %4 to %"struct.std::__1::basic_string<char, std::__1::char_traits<char>, std::__1::allocator<char>>::__short"*
  %15 = getelementptr inbounds %"struct.std::__1::basic_string<char, std::__1::char_traits<char>, std::__1::allocator<char>>::__short", %"struct.std::__1::basic_string<char, std::__1::char_traits<char>, std::__1::allocator<char>>::__short"* %14, i64 0, i32 1, i64 0
  call void @llvm.memcpy.p0i8.p0i8.i64(i8* nonnull align 1 dereferenceable(3) %15, i8* nonnull align 1 dereferenceable(3) getelementptr inbounds ([4 x i8], [4 x i8]* @.str.41, i64 0, i64 0), i64 3, i1 false) #13
  %16 = getelementptr inbounds %"struct.std::__1::basic_string<char, std::__1::char_traits<char>, std::__1::allocator<char>>::__short", %"struct.std::__1::basic_string<char, std::__1::char_traits<char>, std::__1::allocator<char>>::__short"* %14, i64 0, i32 1, i64 3
  store i8 0, i8* %16, align 1, !tbaa !19
  %17 = getelementptr inbounds %"struct.std::__1::__fs::filesystem::detail::(anonymous namespace)::ErrorHandler.8", %"struct.std::__1::__fs::filesystem::detail::(anonymous namespace)::ErrorHandler.8"* %0, i64 0, i32 0
  %18 = load i8*, i8** %17, align 8, !tbaa !98
  %19 = invoke nonnull align 8 dereferenceable(24) %"class.std::__1::basic_string"* @_ZNSt3__112basic_stringIcNS_11char_traitsIcEENS_9allocatorIcEEE6appendEPKc(%"class.std::__1::basic_string"* nonnull %4, i8* %18)
          to label %20 unwind label %38

20:                                               ; preds = %11
  %21 = bitcast %"class.std::__1::basic_string"* %19 to i8*
  call void @llvm.memcpy.p0i8.p0i8.i64(i8* nonnull align 8 dereferenceable(24) %12, i8* nonnull align 8 dereferenceable(24) %21, i64 24, i1 false) #13
  call void @llvm.memset.p0i8.i64(i8* nonnull align 8 dereferenceable(24) %21, i8 0, i64 24, i1 false) #13, !noalias !155
  %22 = load i8, i8* %13, align 8, !tbaa !19
  %23 = and i8 %22, 1
  %24 = icmp eq i8 %23, 0
  br i1 %24, label %28, label %25

25:                                               ; preds = %20
  %26 = getelementptr inbounds %"class.std::__1::basic_string", %"class.std::__1::basic_string"* %4, i64 0, i32 0, i32 0, i32 0, i32 0, i32 0, i32 2
  %27 = load i8*, i8** %26, align 8, !tbaa !19
  call void @_ZdlPv(i8* %27) #24
  br label %28

28:                                               ; preds = %20, %25
  call void @llvm.lifetime.end.p0i8(i64 24, i8* nonnull %13) #13
  %29 = getelementptr inbounds %"struct.std::__1::__fs::filesystem::detail::(anonymous namespace)::ErrorHandler.8", %"struct.std::__1::__fs::filesystem::detail::(anonymous namespace)::ErrorHandler.8"* %0, i64 0, i32 2
  %30 = load %"class.std::__1::__fs::filesystem::path"*, %"class.std::__1::__fs::filesystem::path"** %29, align 8, !tbaa !101
  %31 = icmp ne %"class.std::__1::__fs::filesystem::path"* %30, null
  %32 = zext i1 %31 to i32
  %33 = getelementptr inbounds %"struct.std::__1::__fs::filesystem::detail::(anonymous namespace)::ErrorHandler.8", %"struct.std::__1::__fs::filesystem::detail::(anonymous namespace)::ErrorHandler.8"* %0, i64 0, i32 3
  %34 = load %"class.std::__1::__fs::filesystem::path"*, %"class.std::__1::__fs::filesystem::path"** %33, align 8, !tbaa !102
  %35 = icmp ne %"class.std::__1::__fs::filesystem::path"* %34, null
  %36 = zext i1 %35 to i32
  %37 = add nuw nsw i32 %36, %32
  switch i32 %37, label %65 [
    i32 0, label %49
    i32 1, label %61
    i32 2, label %63
  ]

38:                                               ; preds = %11
  %39 = landingpad { i8*, i32 }
          cleanup
  %40 = extractvalue { i8*, i32 } %39, 0
  %41 = extractvalue { i8*, i32 } %39, 1
  %42 = load i8, i8* %13, align 8, !tbaa !19
  %43 = and i8 %42, 1
  %44 = icmp eq i8 %43, 0
  br i1 %44, label %48, label %45

45:                                               ; preds = %38
  %46 = getelementptr inbounds %"class.std::__1::basic_string", %"class.std::__1::basic_string"* %4, i64 0, i32 0, i32 0, i32 0, i32 0, i32 0, i32 2
  %47 = load i8*, i8** %46, align 8, !tbaa !19
  call void @_ZdlPv(i8* %47) #24
  br label %48

48:                                               ; preds = %38, %45
  call void @llvm.lifetime.end.p0i8(i64 24, i8* nonnull %13) #13
  br label %66

49:                                               ; preds = %28
  invoke void @_ZNSt3__14__fs10filesystem24__throw_filesystem_errorIJRNS_12basic_stringIcNS_11char_traitsIcEENS_9allocatorIcEEEERKNS_10error_codeEEEEvDpOT_(%"class.std::__1::basic_string"* nonnull align 8 dereferenceable(24) %3, %"class.std::__1::error_code"* nonnull align 8 dereferenceable(16) %1) #22
          to label %50 unwind label %51

50:                                               ; preds = %49
  unreachable

51:                                               ; preds = %63, %61, %49
  %52 = landingpad { i8*, i32 }
          cleanup
  %53 = extractvalue { i8*, i32 } %52, 0
  %54 = extractvalue { i8*, i32 } %52, 1
  %55 = load i8, i8* %12, align 8, !tbaa !19
  %56 = and i8 %55, 1
  %57 = icmp eq i8 %56, 0
  br i1 %57, label %66, label %58

58:                                               ; preds = %51
  %59 = getelementptr inbounds %"class.std::__1::basic_string", %"class.std::__1::basic_string"* %3, i64 0, i32 0, i32 0, i32 0, i32 0, i32 0, i32 2
  %60 = load i8*, i8** %59, align 8, !tbaa !19
  call void @_ZdlPv(i8* %60) #24
  br label %66

61:                                               ; preds = %28
  invoke void @_ZNSt3__14__fs10filesystem24__throw_filesystem_errorIJRNS_12basic_stringIcNS_11char_traitsIcEENS_9allocatorIcEEEERKNS1_4pathERKNS_10error_codeEEEEvDpOT_(%"class.std::__1::basic_string"* nonnull align 8 dereferenceable(24) %3, %"class.std::__1::__fs::filesystem::path"* nonnull align 8 dereferenceable(24) %30, %"class.std::__1::error_code"* nonnull align 8 dereferenceable(16) %1) #22
          to label %62 unwind label %51

62:                                               ; preds = %61
  unreachable

63:                                               ; preds = %28
  invoke void @_ZNSt3__14__fs10filesystem24__throw_filesystem_errorIJRNS_12basic_stringIcNS_11char_traitsIcEENS_9allocatorIcEEEERKNS1_4pathESC_RKNS_10error_codeEEEEvDpOT_(%"class.std::__1::basic_string"* nonnull align 8 dereferenceable(24) %3, %"class.std::__1::__fs::filesystem::path"* nonnull align 8 dereferenceable(24) %30, %"class.std::__1::__fs::filesystem::path"* nonnull align 8 dereferenceable(24) %34, %"class.std::__1::error_code"* nonnull align 8 dereferenceable(16) %1) #22
          to label %64 unwind label %51

64:                                               ; preds = %63
  unreachable

65:                                               ; preds = %28
  unreachable

66:                                               ; preds = %58, %51, %48
  %67 = phi i8* [ %40, %48 ], [ %53, %51 ], [ %53, %58 ]
  %68 = phi i32 [ %41, %48 ], [ %54, %51 ], [ %54, %58 ]
  call void @llvm.lifetime.end.p0i8(i64 24, i8* nonnull %12) #13
  %69 = insertvalue { i8*, i32 } undef, i8* %67, 0
  %70 = insertvalue { i8*, i32 } %69, i32 %68, 1
  resume { i8*, i32 } %70
}

; Function Attrs: uwtable
define void @_ZNSt3__14__fs10filesystem14__read_symlinkERKNS1_4pathEPNS_10error_codeE(%"class.std::__1::__fs::filesystem::path"* noalias sret align 8 %0, %"class.std::__1::__fs::filesystem::path"* nonnull align 8 dereferenceable(24) %1, %"class.std::__1::error_code"* %2) local_unnamed_addr #7 personality i8* bitcast (i32 (...)* @__gxx_personality_v0 to i8*) {
  %4 = alloca %"class.std::__1::error_code", align 8
  %5 = alloca %"struct.std::__1::__fs::filesystem::detail::(anonymous namespace)::ErrorHandler", align 8
  %6 = alloca [4097 x i8], align 16
  %7 = alloca %"class.std::__1::error_code", align 8
  %8 = bitcast %"struct.std::__1::__fs::filesystem::detail::(anonymous namespace)::ErrorHandler"* %5 to i8*
  call void @llvm.lifetime.start.p0i8(i64 32, i8* nonnull %8) #13
  %9 = getelementptr inbounds %"struct.std::__1::__fs::filesystem::detail::(anonymous namespace)::ErrorHandler", %"struct.std::__1::__fs::filesystem::detail::(anonymous namespace)::ErrorHandler"* %5, i64 0, i32 0
  store i8* getelementptr inbounds ([13 x i8], [13 x i8]* @.str.18, i64 0, i64 0), i8** %9, align 8, !tbaa !35
  %10 = getelementptr inbounds %"struct.std::__1::__fs::filesystem::detail::(anonymous namespace)::ErrorHandler", %"struct.std::__1::__fs::filesystem::detail::(anonymous namespace)::ErrorHandler"* %5, i64 0, i32 1
  store %"class.std::__1::error_code"* %2, %"class.std::__1::error_code"** %10, align 8, !tbaa !37
  %11 = getelementptr inbounds %"struct.std::__1::__fs::filesystem::detail::(anonymous namespace)::ErrorHandler", %"struct.std::__1::__fs::filesystem::detail::(anonymous namespace)::ErrorHandler"* %5, i64 0, i32 2
  store %"class.std::__1::__fs::filesystem::path"* %1, %"class.std::__1::__fs::filesystem::path"** %11, align 8, !tbaa !38
  %12 = getelementptr inbounds %"struct.std::__1::__fs::filesystem::detail::(anonymous namespace)::ErrorHandler", %"struct.std::__1::__fs::filesystem::detail::(anonymous namespace)::ErrorHandler"* %5, i64 0, i32 3
  store %"class.std::__1::__fs::filesystem::path"* null, %"class.std::__1::__fs::filesystem::path"** %12, align 8, !tbaa !39
  %13 = icmp eq %"class.std::__1::error_code"* %2, null
  br i1 %13, label %18, label %14

14:                                               ; preds = %3
  %15 = getelementptr inbounds %"class.std::__1::error_code", %"class.std::__1::error_code"* %2, i64 0, i32 0
  store i32 0, i32* %15, align 8, !tbaa !22
  %16 = tail call nonnull align 8 dereferenceable(8) %"class.std::__1::error_category"* @_ZNSt3__115system_categoryEv() #13
  %17 = getelementptr inbounds %"class.std::__1::error_code", %"class.std::__1::error_code"* %2, i64 0, i32 1
  store %"class.std::__1::error_category"* %16, %"class.std::__1::error_category"** %17, align 8, !tbaa !24
  br label %18

18:                                               ; preds = %3, %14
  %19 = getelementptr inbounds [4097 x i8], [4097 x i8]* %6, i64 0, i64 0
  call void @llvm.lifetime.start.p0i8(i64 4097, i8* nonnull %19) #13
  %20 = bitcast %"class.std::__1::__fs::filesystem::path"* %1 to i8*
  %21 = load i8, i8* %20, align 8, !tbaa !19
  %22 = and i8 %21, 1
  %23 = icmp eq i8 %22, 0
  %24 = getelementptr inbounds %"class.std::__1::__fs::filesystem::path", %"class.std::__1::__fs::filesystem::path"* %1, i64 0, i32 0, i32 0, i32 0, i32 0, i32 0, i32 0, i32 2
  %25 = load i8*, i8** %24, align 8
  %26 = bitcast %"class.std::__1::__fs::filesystem::path"* %1 to %"struct.std::__1::basic_string<char, std::__1::char_traits<char>, std::__1::allocator<char>>::__short"*
  %27 = getelementptr inbounds %"struct.std::__1::basic_string<char, std::__1::char_traits<char>, std::__1::allocator<char>>::__short", %"struct.std::__1::basic_string<char, std::__1::char_traits<char>, std::__1::allocator<char>>::__short"* %26, i64 0, i32 1, i64 0
  %28 = select i1 %23, i8* %27, i8* %25
  %29 = call i64 @readlink(i8* %28, i8* nonnull %19, i64 4097) #13
  %30 = icmp eq i64 %29, -1
  br i1 %30, label %31, label %43

31:                                               ; preds = %18
  %32 = bitcast %"class.std::__1::error_code"* %7 to i8*
  call void @llvm.lifetime.start.p0i8(i64 16, i8* nonnull %32) #13
  %33 = tail call i32* @__errno_location() #21
  %34 = load i32, i32* %33, align 4, !tbaa !4
  %35 = tail call nonnull align 8 dereferenceable(8) %"class.std::__1::error_category"* @_ZNSt3__116generic_categoryEv() #13
  %36 = getelementptr inbounds %"class.std::__1::error_code", %"class.std::__1::error_code"* %7, i64 0, i32 0
  store i32 %34, i32* %36, align 8
  %37 = getelementptr inbounds %"class.std::__1::error_code", %"class.std::__1::error_code"* %7, i64 0, i32 1
  store %"class.std::__1::error_category"* %35, %"class.std::__1::error_category"** %37, align 8
  invoke fastcc void @_ZNKSt3__14__fs10filesystem6detail12_GLOBAL__N_112ErrorHandlerINS1_4pathEE6reportERKNS_10error_codeE(%"class.std::__1::__fs::filesystem::path"* noalias align 8 %0, %"struct.std::__1::__fs::filesystem::detail::(anonymous namespace)::ErrorHandler"* nonnull %5, %"class.std::__1::error_code"* nonnull align 8 dereferenceable(16) %7)
          to label %38 unwind label %39

38:                                               ; preds = %31
  call void @llvm.lifetime.end.p0i8(i64 16, i8* nonnull %32) #13
  br label %77

39:                                               ; preds = %31
  %40 = landingpad { i8*, i32 }
          cleanup
  %41 = extractvalue { i8*, i32 } %40, 0
  %42 = extractvalue { i8*, i32 } %40, 1
  call void @llvm.lifetime.end.p0i8(i64 16, i8* nonnull %32) #13
  br label %78

43:                                               ; preds = %18
  %44 = icmp ugt i64 %29, 4096
  br i1 %44, label %45, label %55

45:                                               ; preds = %43
  %46 = bitcast %"class.std::__1::error_code"* %4 to i8*
  call void @llvm.lifetime.start.p0i8(i64 16, i8* nonnull %46) #13, !noalias !158
  %47 = tail call nonnull align 8 dereferenceable(8) %"class.std::__1::error_category"* @_ZNSt3__116generic_categoryEv() #13, !noalias !158
  %48 = getelementptr inbounds %"class.std::__1::error_code", %"class.std::__1::error_code"* %4, i64 0, i32 0
  store i32 75, i32* %48, align 8, !noalias !158
  %49 = getelementptr inbounds %"class.std::__1::error_code", %"class.std::__1::error_code"* %4, i64 0, i32 1
  store %"class.std::__1::error_category"* %47, %"class.std::__1::error_category"** %49, align 8, !noalias !158
  invoke fastcc void @_ZNKSt3__14__fs10filesystem6detail12_GLOBAL__N_112ErrorHandlerINS1_4pathEE6reportERKNS_10error_codeE(%"class.std::__1::__fs::filesystem::path"* noalias align 8 %0, %"struct.std::__1::__fs::filesystem::detail::(anonymous namespace)::ErrorHandler"* nonnull %5, %"class.std::__1::error_code"* nonnull align 8 dereferenceable(16) %4)
          to label %50 unwind label %51

50:                                               ; preds = %45
  call void @llvm.lifetime.end.p0i8(i64 16, i8* nonnull %46) #13, !noalias !158
  br label %77

51:                                               ; preds = %45
  %52 = landingpad { i8*, i32 }
          cleanup
  %53 = extractvalue { i8*, i32 } %52, 0
  %54 = extractvalue { i8*, i32 } %52, 1
  br label %78

