; ModuleID = 'll/.string.cpp.o.bc'
source_filename = "/home/misha/sweet/repos/libcxx-llvm-ir/llvm-project/libcxx/src/string.cpp"
target datalayout = "e-m:e-p270:32:32-p271:32:32-p272:64:64-i64:64-f80:128-n8:16:32:64-S128"
target triple = "x86_64-unknown-linux-gnu"

%"class.std::__1::basic_string" = type { %"class.std::__1::__compressed_pair" }
%"class.std::__1::__compressed_pair" = type { %"struct.std::__1::__compressed_pair_elem" }
%"struct.std::__1::__compressed_pair_elem" = type { %"struct.std::__1::basic_string<char, std::__1::char_traits<char>, std::__1::allocator<char>>::__rep" }
%"struct.std::__1::basic_string<char, std::__1::char_traits<char>, std::__1::allocator<char>>::__rep" = type { %union.anon }
%union.anon = type { %"struct.std::__1::basic_string<char, std::__1::char_traits<char>, std::__1::allocator<char>>::__long" }
%"struct.std::__1::basic_string<char, std::__1::char_traits<char>, std::__1::allocator<char>>::__long" = type { i64, i64, i8* }
%"class.std::__1::allocator" = type { i8 }
%"class.std::__1::basic_string.3" = type { %"class.std::__1::__compressed_pair.4" }
%"class.std::__1::__compressed_pair.4" = type { %"struct.std::__1::__compressed_pair_elem.5" }
%"struct.std::__1::__compressed_pair_elem.5" = type { %"struct.std::__1::basic_string<wchar_t, std::__1::char_traits<wchar_t>, std::__1::allocator<wchar_t>>::__rep" }
%"struct.std::__1::basic_string<wchar_t, std::__1::char_traits<wchar_t>, std::__1::allocator<wchar_t>>::__rep" = type { %union.anon.6 }
%union.anon.6 = type { %"struct.std::__1::basic_string<wchar_t, std::__1::char_traits<wchar_t>, std::__1::allocator<wchar_t>>::__long" }
%"struct.std::__1::basic_string<wchar_t, std::__1::char_traits<wchar_t>, std::__1::allocator<wchar_t>>::__long" = type { i64, i64, i32* }
%"class.std::__1::allocator.9" = type { i8 }
%"class.std::__1::__basic_string_common" = type { i8 }
%"class.std::length_error" = type { %"class.std::logic_error" }
%"class.std::logic_error" = type { %"class.std::exception", %"class.std::__1::__libcpp_refstring" }
%"class.std::exception" = type { i32 (...)** }
%"class.std::__1::__libcpp_refstring" = type { i8* }
%"class.std::out_of_range" = type { %"class.std::logic_error" }
%"struct.std::__1::basic_string<char, std::__1::char_traits<char>, std::__1::allocator<char>>::__short" = type { %union.anon.0, [23 x i8] }
%union.anon.0 = type { i8 }
%"struct.std::__1::basic_string<wchar_t, std::__1::char_traits<wchar_t>, std::__1::allocator<wchar_t>>::__short" = type { %union.anon.7, [5 x i32] }
%union.anon.7 = type { i32 }
%"class.std::invalid_argument" = type { %"class.std::logic_error" }

$_ZNKSt3__121__basic_string_commonILb1EE20__throw_length_errorEv = comdat any

$_ZNSt3__120__throw_length_errorEPKc = comdat any

$_ZNKSt3__121__basic_string_commonILb1EE20__throw_out_of_rangeEv = comdat any

$_ZNSt3__120__throw_out_of_rangeEPKc = comdat any

$_ZNSt3__112basic_stringIcNS_11char_traitsIcEENS_9allocatorIcEEE7replaceEmmPKcm = comdat any

$_ZNSt3__112basic_stringIcNS_11char_traitsIcEENS_9allocatorIcEEE21__grow_by_and_replaceEmmmmmmPKc = comdat any

$_ZNKSt3__112basic_stringIcNS_11char_traitsIcEENS_9allocatorIcEEE5rfindEPKcmm = comdat any

$_ZNSt3__112basic_stringIcNS_11char_traitsIcEENS_9allocatorIcEEE6__initEPKcmm = comdat any

$_ZNSt3__112basic_stringIcNS_11char_traitsIcEENS_9allocatorIcEEEC5ERKS5_ = comdat any

$_ZNSt3__112basic_stringIcNS_11char_traitsIcEENS_9allocatorIcEEE7replaceEmmPKc = comdat any

$_ZNSt3__112basic_stringIcNS_11char_traitsIcEENS_9allocatorIcEEEC5ERKS5_RKS4_ = comdat any

$_ZNKSt3__112basic_stringIcNS_11char_traitsIcEENS_9allocatorIcEEE16find_last_not_ofEPKcmm = comdat any

$_ZNSt3__112basic_stringIcNS_11char_traitsIcEENS_9allocatorIcEEED5Ev = comdat any

$_ZNKSt3__112basic_stringIcNS_11char_traitsIcEENS_9allocatorIcEEE17find_first_not_ofEPKcmm = comdat any

$_ZNSt3__112basic_stringIcNS_11char_traitsIcEENS_9allocatorIcEEE6insertEmmc = comdat any

$_ZNSt3__112basic_stringIcNS_11char_traitsIcEENS_9allocatorIcEEE9__grow_byEmmmmmm = comdat any

$_ZNSt3__112basic_stringIcNS_11char_traitsIcEENS_9allocatorIcEEEaSEc = comdat any

$_ZNSt3__112basic_stringIcNS_11char_traitsIcEENS_9allocatorIcEEE6__initEPKcm = comdat any

$_ZNKSt3__112basic_stringIcNS_11char_traitsIcEENS_9allocatorIcEEE2atEm = comdat any

$_ZNSt3__112basic_stringIcNS_11char_traitsIcEENS_9allocatorIcEEE6insertEmPKcm = comdat any

$_ZNKSt3__112basic_stringIcNS_11char_traitsIcEENS_9allocatorIcEEE13find_first_ofEPKcmm = comdat any

$_ZNSt3__112basic_stringIcNS_11char_traitsIcEENS_9allocatorIcEEE7replaceEmmmc = comdat any

$_ZNSt3__112basic_stringIcNS_11char_traitsIcEENS_9allocatorIcEEE6assignEPKcm = comdat any

$_ZNSt3__112basic_stringIcNS_11char_traitsIcEENS_9allocatorIcEEE17__assign_externalEPKcm = comdat any

$_ZNSt3__112basic_stringIcNS_11char_traitsIcEENS_9allocatorIcEEE7reserveEm = comdat any

$_ZNSt3__112basic_stringIcNS_11char_traitsIcEENS_9allocatorIcEEE18__shrink_or_extendEm = comdat any

$_ZNSt3__112basic_stringIcNS_11char_traitsIcEENS_9allocatorIcEEE6appendEPKcm = comdat any

$_ZNSt3__112basic_stringIcNS_11char_traitsIcEENS_9allocatorIcEEE6assignERKS5_mm = comdat any

$_ZNKSt3__112basic_stringIcNS_11char_traitsIcEENS_9allocatorIcEEE4copyEPcmm = comdat any

$_ZNSt3__112basic_stringIcNS_11char_traitsIcEENS_9allocatorIcEEEC5ERKS5_mmRKS4_ = comdat any

$_ZNKSt3__112basic_stringIcNS_11char_traitsIcEENS_9allocatorIcEEE4findEcm = comdat any

$_ZNSt3__112basic_stringIcNS_11char_traitsIcEENS_9allocatorIcEEE6__initEmc = comdat any

$_ZNSt3__112basic_stringIcNS_11char_traitsIcEENS_9allocatorIcEEE6insertEmPKc = comdat any

$_ZNKSt3__112basic_stringIcNS_11char_traitsIcEENS_9allocatorIcEEE12find_last_ofEPKcmm = comdat any

$_ZNSt3__112basic_stringIcNS_11char_traitsIcEENS_9allocatorIcEEE9push_backEc = comdat any

$_ZNSt3__112basic_stringIcNS_11char_traitsIcEENS_9allocatorIcEEE6appendEmc = comdat any

$_ZNKSt3__112basic_stringIcNS_11char_traitsIcEENS_9allocatorIcEEE5rfindEcm = comdat any

$_ZNSt3__112basic_stringIcNS_11char_traitsIcEENS_9allocatorIcEEE6assignEmc = comdat any

$_ZNSt3__112basic_stringIcNS_11char_traitsIcEENS_9allocatorIcEEE5eraseEmm = comdat any

$_ZNSt3__112basic_stringIcNS_11char_traitsIcEENS_9allocatorIcEEE6appendERKS5_mm = comdat any

$_ZNKSt3__112basic_stringIcNS_11char_traitsIcEENS_9allocatorIcEEE7compareEPKc = comdat any

$_ZNKSt3__112basic_stringIcNS_11char_traitsIcEENS_9allocatorIcEEE7compareEmmPKcm = comdat any

$__clang_call_terminate = comdat any

$_ZNKSt3__112basic_stringIcNS_11char_traitsIcEENS_9allocatorIcEEE7compareEmmPKc = comdat any

$_ZNSt3__112basic_stringIcNS_11char_traitsIcEENS_9allocatorIcEEE2atEm = comdat any

$_ZNSt3__112basic_stringIcNS_11char_traitsIcEENS_9allocatorIcEEE6assignEPKc = comdat any

$_ZNKSt3__112basic_stringIcNS_11char_traitsIcEENS_9allocatorIcEEE4findEPKcmm = comdat any

$_ZNKSt3__112basic_stringIcNS_11char_traitsIcEENS_9allocatorIcEEE7compareEmmRKS5_mm = comdat any

$_ZNSt3__112basic_stringIcNS_11char_traitsIcEENS_9allocatorIcEEEaSERKS5_ = comdat any

$_ZNSt3__112basic_stringIcNS_11char_traitsIcEENS_9allocatorIcEEE6appendEPKc = comdat any

$_ZNSt3__112basic_stringIcNS_11char_traitsIcEENS_9allocatorIcEEE7replaceEmmRKS5_mm = comdat any

$_ZNSt3__112basic_stringIcNS_11char_traitsIcEENS_9allocatorIcEEE6insertENS_11__wrap_iterIPKcEEc = comdat any

$_ZNSt3__112basic_stringIcNS_11char_traitsIcEENS_9allocatorIcEEE6resizeEmc = comdat any

$_ZNSt3__112basic_stringIcNS_11char_traitsIcEENS_9allocatorIcEEE6insertEmRKS5_mm = comdat any

$_ZNSt3__112basic_stringIwNS_11char_traitsIwEENS_9allocatorIwEEE7replaceEmmPKwm = comdat any

$_ZNSt3__112basic_stringIwNS_11char_traitsIwEENS_9allocatorIwEEE21__grow_by_and_replaceEmmmmmmPKw = comdat any

$_ZNKSt3__112basic_stringIwNS_11char_traitsIwEENS_9allocatorIwEEE5rfindEPKwmm = comdat any

$_ZNSt3__112basic_stringIwNS_11char_traitsIwEENS_9allocatorIwEEE6__initEPKwmm = comdat any

$_ZNSt3__112basic_stringIwNS_11char_traitsIwEENS_9allocatorIwEEEC5ERKS5_ = comdat any

$_ZNSt3__112basic_stringIwNS_11char_traitsIwEENS_9allocatorIwEEE7replaceEmmPKw = comdat any

$_ZNSt3__112basic_stringIwNS_11char_traitsIwEENS_9allocatorIwEEEC5ERKS5_RKS4_ = comdat any

$_ZNKSt3__112basic_stringIwNS_11char_traitsIwEENS_9allocatorIwEEE16find_last_not_ofEPKwmm = comdat any

$_ZNSt3__112basic_stringIwNS_11char_traitsIwEENS_9allocatorIwEEED5Ev = comdat any

$_ZNKSt3__112basic_stringIwNS_11char_traitsIwEENS_9allocatorIwEEE17find_first_not_ofEPKwmm = comdat any

$_ZNSt3__112basic_stringIwNS_11char_traitsIwEENS_9allocatorIwEEE6insertEmmw = comdat any

$_ZNSt3__112basic_stringIwNS_11char_traitsIwEENS_9allocatorIwEEE9__grow_byEmmmmmm = comdat any

$_ZNSt3__112basic_stringIwNS_11char_traitsIwEENS_9allocatorIwEEEaSEw = comdat any

$_ZNSt3__112basic_stringIwNS_11char_traitsIwEENS_9allocatorIwEEE6__initEPKwm = comdat any

$_ZNKSt3__112basic_stringIwNS_11char_traitsIwEENS_9allocatorIwEEE2atEm = comdat any

$_ZNSt3__112basic_stringIwNS_11char_traitsIwEENS_9allocatorIwEEE6insertEmPKwm = comdat any

$_ZNKSt3__112basic_stringIwNS_11char_traitsIwEENS_9allocatorIwEEE13find_first_ofEPKwmm = comdat any

$_ZNSt3__112basic_stringIwNS_11char_traitsIwEENS_9allocatorIwEEE7replaceEmmmw = comdat any

$_ZNSt3__112basic_stringIwNS_11char_traitsIwEENS_9allocatorIwEEE6assignEPKwm = comdat any

$_ZNSt3__112basic_stringIwNS_11char_traitsIwEENS_9allocatorIwEEE7reserveEm = comdat any

$_ZNSt3__112basic_stringIwNS_11char_traitsIwEENS_9allocatorIwEEE18__shrink_or_extendEm = comdat any

$_ZNSt3__112basic_stringIwNS_11char_traitsIwEENS_9allocatorIwEEE6appendEPKwm = comdat any

$_ZNSt3__112basic_stringIwNS_11char_traitsIwEENS_9allocatorIwEEE6assignERKS5_mm = comdat any

$_ZNKSt3__112basic_stringIwNS_11char_traitsIwEENS_9allocatorIwEEE4copyEPwmm = comdat any

$_ZNSt3__112basic_stringIwNS_11char_traitsIwEENS_9allocatorIwEEEC5ERKS5_mmRKS4_ = comdat any

$_ZNKSt3__112basic_stringIwNS_11char_traitsIwEENS_9allocatorIwEEE4findEwm = comdat any

$_ZNSt3__112basic_stringIwNS_11char_traitsIwEENS_9allocatorIwEEE6__initEmw = comdat any

$_ZNSt3__112basic_stringIwNS_11char_traitsIwEENS_9allocatorIwEEE6insertEmPKw = comdat any

$_ZNKSt3__112basic_stringIwNS_11char_traitsIwEENS_9allocatorIwEEE12find_last_ofEPKwmm = comdat any

$_ZNSt3__112basic_stringIwNS_11char_traitsIwEENS_9allocatorIwEEE9push_backEw = comdat any

$_ZNSt3__112basic_stringIwNS_11char_traitsIwEENS_9allocatorIwEEE6appendEmw = comdat any

$_ZNKSt3__112basic_stringIwNS_11char_traitsIwEENS_9allocatorIwEEE5rfindEwm = comdat any

$_ZNSt3__112basic_stringIwNS_11char_traitsIwEENS_9allocatorIwEEE6assignEmw = comdat any

$_ZNSt3__112basic_stringIwNS_11char_traitsIwEENS_9allocatorIwEEE5eraseEmm = comdat any

$_ZNSt3__112basic_stringIwNS_11char_traitsIwEENS_9allocatorIwEEE6appendERKS5_mm = comdat any

$_ZNKSt3__112basic_stringIwNS_11char_traitsIwEENS_9allocatorIwEEE7compareEPKw = comdat any

$_ZNKSt3__112basic_stringIwNS_11char_traitsIwEENS_9allocatorIwEEE7compareEmmPKwm = comdat any

$_ZNKSt3__112basic_stringIwNS_11char_traitsIwEENS_9allocatorIwEEE7compareEmmPKw = comdat any

$_ZNSt3__112basic_stringIwNS_11char_traitsIwEENS_9allocatorIwEEE2atEm = comdat any

$_ZNSt3__112basic_stringIwNS_11char_traitsIwEENS_9allocatorIwEEE6assignEPKw = comdat any

$_ZNKSt3__112basic_stringIwNS_11char_traitsIwEENS_9allocatorIwEEE4findEPKwmm = comdat any

$_ZNKSt3__112basic_stringIwNS_11char_traitsIwEENS_9allocatorIwEEE7compareEmmRKS5_mm = comdat any

$_ZNSt3__112basic_stringIwNS_11char_traitsIwEENS_9allocatorIwEEEaSERKS5_ = comdat any

$_ZNSt3__112basic_stringIwNS_11char_traitsIwEENS_9allocatorIwEEE6appendEPKw = comdat any

$_ZNSt3__112basic_stringIwNS_11char_traitsIwEENS_9allocatorIwEEE7replaceEmmRKS5_mm = comdat any

$_ZNSt3__112basic_stringIwNS_11char_traitsIwEENS_9allocatorIwEEE6insertENS_11__wrap_iterIPKwEEw = comdat any

$_ZNSt3__112basic_stringIwNS_11char_traitsIwEENS_9allocatorIwEEE6resizeEmw = comdat any

$_ZNSt3__112basic_stringIwNS_11char_traitsIwEENS_9allocatorIwEEE6insertEmRKS5_mm = comdat any

$_ZNSt3__1plIcNS_11char_traitsIcEENS_9allocatorIcEEEENS_12basic_stringIT_T0_T1_EEPKS6_RKS9_ = comdat any

$_ZNSt12length_errorC2EPKc = comdat any

$_ZNSt12out_of_rangeC2EPKc = comdat any

$_ZNSt3__1plIcNS_11char_traitsIcEENS_9allocatorIcEEEENS_12basic_stringIT_T0_T1_EERKS9_PKS6_ = comdat any

$_ZNSt3__112basic_stringIcNS_11char_traitsIcEENS_9allocatorIcEEE4nposE = comdat any

$_ZNSt3__112basic_stringIwNS_11char_traitsIwEENS_9allocatorIwEEE4nposE = comdat any

@.str = private unnamed_addr constant [13 x i8] c"basic_string\00", align 1
@_ZNSt3__112basic_stringIcNS_11char_traitsIcEENS_9allocatorIcEEE4nposE = weak_odr local_unnamed_addr constant i64 -1, comdat, align 8
@_ZNSt3__112basic_stringIwNS_11char_traitsIwEENS_9allocatorIwEEE4nposE = weak_odr local_unnamed_addr constant i64 -1, comdat, align 8
@.str.3 = private unnamed_addr constant [6 x i8] c"stoul\00", align 1
@.str.4 = private unnamed_addr constant [6 x i8] c"stoll\00", align 1
@.str.5 = private unnamed_addr constant [7 x i8] c"stoull\00", align 1
@.str.8 = private unnamed_addr constant [6 x i8] c"stold\00", align 1
@.str.9 = private unnamed_addr constant [3 x i8] c"%f\00", align 1
@.str.10 = private unnamed_addr constant [4 x i8] c"%Lf\00", align 1
@.str.11 = private unnamed_addr constant [3 x i32] [i32 37, i32 102, i32 0], align 4
@.str.12 = private unnamed_addr constant [4 x i32] [i32 37, i32 76, i32 102, i32 0], align 4
@_ZTISt12length_error = external constant i8*
@_ZTVSt12length_error = external unnamed_addr constant { [5 x i8*] }, align 8
@_ZTISt12out_of_range = external constant i8*
@_ZTVSt12out_of_range = external unnamed_addr constant { [5 x i8*] }, align 8
@.str.13 = private unnamed_addr constant [68 x i8] c"allocator<T>::allocate(size_t n) 'n' exceeds maximum supported size\00", align 1
@.str.14 = private unnamed_addr constant [16 x i8] c": no conversion\00", align 1
@_ZTISt16invalid_argument = external constant i8*
@_ZTVSt16invalid_argument = external unnamed_addr constant { [5 x i8*] }, align 8
@.str.15 = private unnamed_addr constant [15 x i8] c": out of range\00", align 1
@.str.16 = private unnamed_addr constant [20 x i8] c"string_view::substr\00", align 1
@_ZNSt3__16__itoaL10__pow10_32E = internal unnamed_addr constant [10 x i32] [i32 0, i32 10, i32 100, i32 1000, i32 10000, i32 100000, i32 1000000, i32 10000000, i32 100000000, i32 1000000000], align 16
@_ZNSt3__16__itoaL10__pow10_64E = internal unnamed_addr constant [20 x i64] [i64 0, i64 10, i64 100, i64 1000, i64 10000, i64 100000, i64 1000000, i64 10000000, i64 100000000, i64 1000000000, i64 10000000000, i64 100000000000, i64 1000000000000, i64 10000000000000, i64 100000000000000, i64 1000000000000000, i64 10000000000000000, i64 100000000000000000, i64 1000000000000000000, i64 -8446744073709551616], align 16

@_ZNSt3__112basic_stringIcNS_11char_traitsIcEENS_9allocatorIcEEEC1ERKS5_ = weak_odr unnamed_addr alias void (%"class.std::__1::basic_string"*, %"class.std::__1::basic_string"*), void (%"class.std::__1::basic_string"*, %"class.std::__1::basic_string"*)* @_ZNSt3__112basic_stringIcNS_11char_traitsIcEENS_9allocatorIcEEEC2ERKS5_
@_ZNSt3__112basic_stringIcNS_11char_traitsIcEENS_9allocatorIcEEEC1ERKS5_RKS4_ = weak_odr unnamed_addr alias void (%"class.std::__1::basic_string"*, %"class.std::__1::basic_string"*, %"class.std::__1::allocator"*), void (%"class.std::__1::basic_string"*, %"class.std::__1::basic_string"*, %"class.std::__1::allocator"*)* @_ZNSt3__112basic_stringIcNS_11char_traitsIcEENS_9allocatorIcEEEC2ERKS5_RKS4_
@_ZNSt3__112basic_stringIcNS_11char_traitsIcEENS_9allocatorIcEEED1Ev = weak_odr unnamed_addr alias void (%"class.std::__1::basic_string"*), void (%"class.std::__1::basic_string"*)* @_ZNSt3__112basic_stringIcNS_11char_traitsIcEENS_9allocatorIcEEED2Ev
@_ZNSt3__112basic_stringIcNS_11char_traitsIcEENS_9allocatorIcEEEC1ERKS5_mmRKS4_ = weak_odr unnamed_addr alias void (%"class.std::__1::basic_string"*, %"class.std::__1::basic_string"*, i64, i64, %"class.std::__1::allocator"*), void (%"class.std::__1::basic_string"*, %"class.std::__1::basic_string"*, i64, i64, %"class.std::__1::allocator"*)* @_ZNSt3__112basic_stringIcNS_11char_traitsIcEENS_9allocatorIcEEEC2ERKS5_mmRKS4_
@_ZNSt3__112basic_stringIwNS_11char_traitsIwEENS_9allocatorIwEEEC1ERKS5_ = weak_odr unnamed_addr alias void (%"class.std::__1::basic_string.3"*, %"class.std::__1::basic_string.3"*), void (%"class.std::__1::basic_string.3"*, %"class.std::__1::basic_string.3"*)* @_ZNSt3__112basic_stringIwNS_11char_traitsIwEENS_9allocatorIwEEEC2ERKS5_
@_ZNSt3__112basic_stringIwNS_11char_traitsIwEENS_9allocatorIwEEEC1ERKS5_RKS4_ = weak_odr unnamed_addr alias void (%"class.std::__1::basic_string.3"*, %"class.std::__1::basic_string.3"*, %"class.std::__1::allocator.9"*), void (%"class.std::__1::basic_string.3"*, %"class.std::__1::basic_string.3"*, %"class.std::__1::allocator.9"*)* @_ZNSt3__112basic_stringIwNS_11char_traitsIwEENS_9allocatorIwEEEC2ERKS5_RKS4_
@_ZNSt3__112basic_stringIwNS_11char_traitsIwEENS_9allocatorIwEEED1Ev = weak_odr unnamed_addr alias void (%"class.std::__1::basic_string.3"*), void (%"class.std::__1::basic_string.3"*)* @_ZNSt3__112basic_stringIwNS_11char_traitsIwEENS_9allocatorIwEEED2Ev
@_ZNSt3__112basic_stringIwNS_11char_traitsIwEENS_9allocatorIwEEEC1ERKS5_mmRKS4_ = weak_odr unnamed_addr alias void (%"class.std::__1::basic_string.3"*, %"class.std::__1::basic_string.3"*, i64, i64, %"class.std::__1::allocator.9"*), void (%"class.std::__1::basic_string.3"*, %"class.std::__1::basic_string.3"*, i64, i64, %"class.std::__1::allocator.9"*)* @_ZNSt3__112basic_stringIwNS_11char_traitsIwEENS_9allocatorIwEEEC2ERKS5_mmRKS4_

; Function Attrs: noreturn uwtable
define weak_odr void @_ZNKSt3__121__basic_string_commonILb1EE20__throw_length_errorEv(%"class.std::__1::__basic_string_common"* %0) local_unnamed_addr #0 comdat align 2 {
  tail call void @_ZNSt3__120__throw_length_errorEPKc(i8* getelementptr inbounds ([13 x i8], [13 x i8]* @.str, i64 0, i64 0)) #19
  unreachable
}

; Function Attrs: inlinehint noreturn uwtable
define linkonce_odr hidden void @_ZNSt3__120__throw_length_errorEPKc(i8* %0) local_unnamed_addr #1 comdat personality i8* bitcast (i32 (...)* @__gxx_personality_v0 to i8*) {
  %2 = tail call i8* @__cxa_allocate_exception(i64 16) #20
  %3 = bitcast i8* %2 to %"class.std::length_error"*
  invoke void @_ZNSt12length_errorC2EPKc(%"class.std::length_error"* %3, i8* %0)
          to label %4 unwind label %5

4:                                                ; preds = %1
  tail call void @__cxa_throw(i8* %2, i8* bitcast (i8** @_ZTISt12length_error to i8*), i8* bitcast (void (%"class.std::length_error"*)* @_ZNSt12length_errorD1Ev to i8*)) #19
  unreachable

5:                                                ; preds = %1
  %6 = landingpad { i8*, i32 }
          cleanup
  tail call void @__cxa_free_exception(i8* %2) #20
  resume { i8*, i32 } %6
}

; Function Attrs: noreturn uwtable
define weak_odr void @_ZNKSt3__121__basic_string_commonILb1EE20__throw_out_of_rangeEv(%"class.std::__1::__basic_string_common"* %0) local_unnamed_addr #0 comdat align 2 {
  tail call void @_ZNSt3__120__throw_out_of_rangeEPKc(i8* getelementptr inbounds ([13 x i8], [13 x i8]* @.str, i64 0, i64 0)) #19
  unreachable
}

; Function Attrs: inlinehint noreturn uwtable
define linkonce_odr hidden void @_ZNSt3__120__throw_out_of_rangeEPKc(i8* %0) local_unnamed_addr #1 comdat personality i8* bitcast (i32 (...)* @__gxx_personality_v0 to i8*) {
  %2 = tail call i8* @__cxa_allocate_exception(i64 16) #20
  %3 = bitcast i8* %2 to %"class.std::out_of_range"*
  invoke void @_ZNSt12out_of_rangeC2EPKc(%"class.std::out_of_range"* %3, i8* %0)
          to label %4 unwind label %5

4:                                                ; preds = %1
  tail call void @__cxa_throw(i8* %2, i8* bitcast (i8** @_ZTISt12out_of_range to i8*), i8* bitcast (void (%"class.std::out_of_range"*)* @_ZNSt12out_of_rangeD1Ev to i8*)) #19
  unreachable

5:                                                ; preds = %1
  %6 = landingpad { i8*, i32 }
          cleanup
  tail call void @__cxa_free_exception(i8* %2) #20
  resume { i8*, i32 } %6
}

; Function Attrs: uwtable
define weak_odr nonnull align 8 dereferenceable(24) %"class.std::__1::basic_string"* @_ZNSt3__112basic_stringIcNS_11char_traitsIcEENS_9allocatorIcEEE7replaceEmmPKcm(%"class.std::__1::basic_string"* %0, i64 %1, i64 %2, i8* %3, i64 %4) local_unnamed_addr #2 comdat align 2 personality i32 (...)* @__gxx_personality_v0 {
  %6 = bitcast %"class.std::__1::basic_string"* %0 to i8*
  %7 = load i8, i8* %6, align 8, !tbaa !3
  %8 = and i8 %7, 1
  %9 = icmp eq i8 %8, 0
  br i1 %9, label %10, label %14

10:                                               ; preds = %5
  %11 = lshr i8 %7, 1
  %12 = zext i8 %11 to i64
  %13 = icmp ult i64 %12, %1
  br i1 %13, label %18, label %20

14:                                               ; preds = %5
  %15 = getelementptr inbounds %"class.std::__1::basic_string", %"class.std::__1::basic_string"* %0, i64 0, i32 0, i32 0, i32 0, i32 0, i32 0, i32 1
  %16 = load i64, i64* %15, align 8, !tbaa !3
  %17 = icmp ult i64 %16, %1
  br i1 %17, label %18, label %27

18:                                               ; preds = %14, %10
  %19 = bitcast %"class.std::__1::basic_string"* %0 to %"class.std::__1::__basic_string_common"*
  tail call void @_ZNKSt3__121__basic_string_commonILb1EE20__throw_out_of_rangeEv(%"class.std::__1::__basic_string_common"* %19) #19
  unreachable

20:                                               ; preds = %10
  %21 = sub i64 %12, %1
  %22 = icmp ult i64 %21, %2
  %23 = select i1 %22, i64 %21, i64 %2
  %24 = sub nsw i64 22, %12
  %25 = add i64 %24, %23
  %26 = icmp ult i64 %25, %4
  br i1 %26, label %111, label %41

27:                                               ; preds = %14
  %28 = sub i64 %16, %1
  %29 = icmp ult i64 %28, %2
  %30 = select i1 %29, i64 %28, i64 %2
  %31 = getelementptr inbounds %"class.std::__1::basic_string", %"class.std::__1::basic_string"* %0, i64 0, i32 0, i32 0, i32 0, i32 0, i32 0, i32 0
  %32 = load i64, i64* %31, align 8, !tbaa !3
  %33 = and i64 %32, -2
  %34 = add i64 %33, -1
  %35 = sub i64 %30, %16
  %36 = add i64 %35, %34
  %37 = icmp ult i64 %36, %4
  br i1 %37, label %116, label %38

38:                                               ; preds = %27
  %39 = getelementptr inbounds %"class.std::__1::basic_string", %"class.std::__1::basic_string"* %0, i64 0, i32 0, i32 0, i32 0, i32 0, i32 0, i32 2
  %40 = load i8*, i8** %39, align 8, !tbaa !3
  br label %44

41:                                               ; preds = %20
  %42 = bitcast %"class.std::__1::basic_string"* %0 to %"struct.std::__1::basic_string<char, std::__1::char_traits<char>, std::__1::allocator<char>>::__short"*
  %43 = getelementptr inbounds %"struct.std::__1::basic_string<char, std::__1::char_traits<char>, std::__1::allocator<char>>::__short", %"struct.std::__1::basic_string<char, std::__1::char_traits<char>, std::__1::allocator<char>>::__short"* %42, i64 0, i32 1, i64 0
  br label %44

44:                                               ; preds = %38, %41
  %45 = phi i64 [ %30, %38 ], [ %23, %41 ]
  %46 = phi i64 [ %28, %38 ], [ %21, %41 ]
  %47 = phi i64 [ %16, %38 ], [ %12, %41 ]
  %48 = phi i8* [ %40, %38 ], [ %43, %41 ]
  %49 = icmp eq i64 %45, %4
  br i1 %49, label %88, label %50

50:                                               ; preds = %44
  %51 = sub i64 %46, %45
  %52 = icmp eq i64 %51, 0
  br i1 %52, label %88, label %53

53:                                               ; preds = %50
  %54 = icmp ugt i64 %45, %4
  %55 = getelementptr inbounds i8, i8* %48, i64 %1
  br i1 %54, label %56, label %59

56:                                               ; preds = %53
  %57 = icmp eq i64 %4, 0
  br i1 %57, label %85, label %58

58:                                               ; preds = %56
  tail call void @llvm.memmove.p0i8.p0i8.i64(i8* align 1 %55, i8* align 1 %3, i64 %4, i1 false) #20
  br label %85

59:                                               ; preds = %53
  %60 = icmp ult i8* %55, %3
  %61 = getelementptr inbounds i8, i8* %48, i64 %47
  %62 = icmp ugt i8* %61, %3
  %63 = and i1 %60, %62
  br i1 %63, label %64, label %77

64:                                               ; preds = %59
  %65 = getelementptr inbounds i8, i8* %55, i64 %45
  %66 = icmp ugt i8* %65, %3
  br i1 %66, label %70, label %67

67:                                               ; preds = %64
  %68 = sub i64 %4, %45
  %69 = getelementptr inbounds i8, i8* %3, i64 %68
  br label %77

70:                                               ; preds = %64
  %71 = icmp eq i64 %45, 0
  br i1 %71, label %73, label %72

72:                                               ; preds = %70
  tail call void @llvm.memmove.p0i8.p0i8.i64(i8* align 1 %55, i8* align 1 %3, i64 %45, i1 false) #20
  br label %73

73:                                               ; preds = %70, %72
  %74 = add i64 %45, %1
  %75 = getelementptr inbounds i8, i8* %3, i64 %4
  %76 = sub i64 %4, %45
  br label %77

77:                                               ; preds = %67, %73, %59
  %78 = phi i64 [ 0, %73 ], [ %45, %67 ], [ %45, %59 ]
  %79 = phi i64 [ %76, %73 ], [ %4, %67 ], [ %4, %59 ]
  %80 = phi i8* [ %75, %73 ], [ %69, %67 ], [ %3, %59 ]
  %81 = phi i64 [ %74, %73 ], [ %1, %67 ], [ %1, %59 ]
  %82 = getelementptr inbounds i8, i8* %48, i64 %81
  %83 = getelementptr inbounds i8, i8* %82, i64 %79
  %84 = getelementptr inbounds i8, i8* %82, i64 %78
  tail call void @llvm.memmove.p0i8.p0i8.i64(i8* align 1 %83, i8* align 1 %84, i64 %51, i1 false) #20
  br label %88

85:                                               ; preds = %58, %56
  %86 = getelementptr inbounds i8, i8* %55, i64 %4
  %87 = getelementptr inbounds i8, i8* %55, i64 %45
  tail call void @llvm.memmove.p0i8.p0i8.i64(i8* align 1 %86, i8* align 1 %87, i64 %51, i1 false) #20
  br label %96

88:                                               ; preds = %77, %50, %44
  %89 = phi i64 [ %4, %44 ], [ %78, %77 ], [ %45, %50 ]
  %90 = phi i64 [ %4, %44 ], [ %79, %77 ], [ %4, %50 ]
  %91 = phi i8* [ %3, %44 ], [ %80, %77 ], [ %3, %50 ]
  %92 = phi i64 [ %1, %44 ], [ %81, %77 ], [ %1, %50 ]
  %93 = icmp eq i64 %90, 0
  br i1 %93, label %96, label %94

94:                                               ; preds = %88
  %95 = getelementptr inbounds i8, i8* %48, i64 %92
  tail call void @llvm.memmove.p0i8.p0i8.i64(i8* align 1 %95, i8* align 1 %91, i64 %90, i1 false) #20
  br label %96

96:                                               ; preds = %94, %88, %85
  %97 = phi i64 [ %45, %85 ], [ %89, %88 ], [ %89, %94 ]
  %98 = phi i64 [ %4, %85 ], [ 0, %88 ], [ %90, %94 ]
  %99 = sub i64 %98, %97
  %100 = add i64 %99, %47
  %101 = load i8, i8* %6, align 8, !tbaa !3
  %102 = and i8 %101, 1
  %103 = icmp eq i8 %102, 0
  br i1 %103, label %106, label %104

104:                                              ; preds = %96
  %105 = getelementptr inbounds %"class.std::__1::basic_string", %"class.std::__1::basic_string"* %0, i64 0, i32 0, i32 0, i32 0, i32 0, i32 0, i32 1
  store i64 %100, i64* %105, align 8, !tbaa !3
  br label %109

106:                                              ; preds = %96
  %107 = trunc i64 %100 to i8
  %108 = shl i8 %107, 1
  store i8 %108, i8* %6, align 8, !tbaa !3
  br label %109

109:                                              ; preds = %104, %106
  %110 = getelementptr inbounds i8, i8* %48, i64 %100
  br label %173

111:                                              ; preds = %20
  %112 = add i64 %4, -22
  %113 = add i64 %112, %12
  %114 = sub i64 %113, %23
  %115 = icmp ugt i64 %114, -40
  br i1 %115, label %122, label %124

116:                                              ; preds = %27
  %117 = add i64 %16, %4
  %118 = sub i64 %117, %30
  %119 = sub i64 %118, %34
  %120 = sub i64 -17, %33
  %121 = icmp ult i64 %120, %119
  br i1 %121, label %122, label %127

122:                                              ; preds = %116, %111
  %123 = bitcast %"class.std::__1::basic_string"* %0 to %"class.std::__1::__basic_string_common"*
  tail call void @_ZNKSt3__121__basic_string_commonILb1EE20__throw_length_errorEv(%"class.std::__1::__basic_string_common"* %123) #19
  unreachable

124:                                              ; preds = %111
  %125 = bitcast %"class.std::__1::basic_string"* %0 to %"struct.std::__1::basic_string<char, std::__1::char_traits<char>, std::__1::allocator<char>>::__short"*
  %126 = getelementptr inbounds %"struct.std::__1::basic_string<char, std::__1::char_traits<char>, std::__1::allocator<char>>::__short", %"struct.std::__1::basic_string<char, std::__1::char_traits<char>, std::__1::allocator<char>>::__short"* %125, i64 0, i32 1, i64 0
  br label %131

127:                                              ; preds = %116
  %128 = getelementptr inbounds %"class.std::__1::basic_string", %"class.std::__1::basic_string"* %0, i64 0, i32 0, i32 0, i32 0, i32 0, i32 0, i32 2
  %129 = load i8*, i8** %128, align 8, !tbaa !3
  %130 = icmp ult i64 %34, 9223372036854775783
  br i1 %130, label %131, label %145

131:                                              ; preds = %124, %127
  %132 = phi i8* [ %126, %124 ], [ %129, %127 ]
  %133 = phi i64 [ %114, %124 ], [ %119, %127 ]
  %134 = phi i64 [ %23, %124 ], [ %30, %127 ]
  %135 = phi i64 [ %12, %124 ], [ %16, %127 ]
  %136 = phi i64 [ 22, %124 ], [ %34, %127 ]
  %137 = add i64 %136, %133
  %138 = shl nuw i64 %136, 1
  %139 = icmp ult i64 %137, %138
  %140 = select i1 %139, i64 %138, i64 %137
  %141 = add i64 %140, 16
  %142 = and i64 %141, -16
  %143 = icmp ult i64 %140, 23
  %144 = select i1 %143, i64 23, i64 %142
  br label %145

145:                                              ; preds = %131, %127
  %146 = phi i8* [ %132, %131 ], [ %129, %127 ]
  %147 = phi i64 [ %134, %131 ], [ %30, %127 ]
  %148 = phi i64 [ %135, %131 ], [ %16, %127 ]
  %149 = phi i64 [ %136, %131 ], [ %34, %127 ]
  %150 = phi i64 [ %144, %131 ], [ -17, %127 ]
  %151 = tail call noalias nonnull i8* @_Znwm(i64 %150) #21
  %152 = icmp eq i64 %1, 0
  br i1 %152, label %154, label %153

153:                                              ; preds = %145
  tail call void @llvm.memcpy.p0i8.p0i8.i64(i8* nonnull align 1 %151, i8* align 1 %146, i64 %1, i1 false) #20
  br label %154

154:                                              ; preds = %153, %145
  %155 = getelementptr inbounds i8, i8* %151, i64 %1
  tail call void @llvm.memcpy.p0i8.p0i8.i64(i8* nonnull align 1 %155, i8* align 1 %3, i64 %4, i1 false) #20
  %156 = sub i64 %148, %147
  %157 = sub i64 %156, %1
  %158 = icmp eq i64 %157, 0
  br i1 %158, label %163, label %159

159:                                              ; preds = %154
  %160 = getelementptr inbounds i8, i8* %155, i64 %4
  %161 = getelementptr inbounds i8, i8* %146, i64 %1
  %162 = getelementptr inbounds i8, i8* %161, i64 %147
  tail call void @llvm.memcpy.p0i8.p0i8.i64(i8* nonnull align 1 %160, i8* align 1 %162, i64 %157, i1 false) #20
  br label %163

163:                                              ; preds = %159, %154
  %164 = icmp eq i64 %149, 22
  br i1 %164, label %166, label %165

165:                                              ; preds = %163
  tail call void @_ZdlPv(i8* %146) #22
  br label %166

166:                                              ; preds = %163, %165
  %167 = getelementptr inbounds %"class.std::__1::basic_string", %"class.std::__1::basic_string"* %0, i64 0, i32 0, i32 0, i32 0, i32 0, i32 0, i32 2
  store i8* %151, i8** %167, align 8, !tbaa !3
  %168 = or i64 %150, 1
  %169 = getelementptr inbounds %"class.std::__1::basic_string", %"class.std::__1::basic_string"* %0, i64 0, i32 0, i32 0, i32 0, i32 0, i32 0, i32 0
  store i64 %168, i64* %169, align 8, !tbaa !3
  %170 = add i64 %156, %4
  %171 = getelementptr inbounds %"class.std::__1::basic_string", %"class.std::__1::basic_string"* %0, i64 0, i32 0, i32 0, i32 0, i32 0, i32 0, i32 1
  store i64 %170, i64* %171, align 8, !tbaa !3
  %172 = getelementptr inbounds i8, i8* %151, i64 %170
  br label %173

173:                                              ; preds = %166, %109
  %174 = phi i8* [ %172, %166 ], [ %110, %109 ]
  store i8 0, i8* %174, align 1, !tbaa !3
  ret %"class.std::__1::basic_string"* %0
}

; Function Attrs: argmemonly nounwind willreturn
declare void @llvm.lifetime.start.p0i8(i64 immarg, i8* nocapture) #3

; Function Attrs: argmemonly nounwind willreturn
declare void @llvm.lifetime.end.p0i8(i64 immarg, i8* nocapture) #3

; Function Attrs: uwtable
define weak_odr void @_ZNSt3__112basic_stringIcNS_11char_traitsIcEENS_9allocatorIcEEE21__grow_by_and_replaceEmmmmmmPKc(%"class.std::__1::basic_string"* %0, i64 %1, i64 %2, i64 %3, i64 %4, i64 %5, i64 %6, i8* %7) local_unnamed_addr #2 comdat align 2 personality i32 (...)* @__gxx_personality_v0 {
  %9 = sub i64 -18, %1
  %10 = icmp ult i64 %9, %2
  br i1 %10, label %11, label %13

11:                                               ; preds = %8
  %12 = bitcast %"class.std::__1::basic_string"* %0 to %"class.std::__1::__basic_string_common"*
  tail call void @_ZNKSt3__121__basic_string_commonILb1EE20__throw_length_errorEv(%"class.std::__1::__basic_string_common"* %12) #19
  unreachable

13:                                               ; preds = %8
  %14 = bitcast %"class.std::__1::basic_string"* %0 to i8*
  %15 = load i8, i8* %14, align 8, !tbaa !3
  %16 = and i8 %15, 1
  %17 = icmp eq i8 %16, 0
  br i1 %17, label %21, label %18

18:                                               ; preds = %13
  %19 = getelementptr inbounds %"class.std::__1::basic_string", %"class.std::__1::basic_string"* %0, i64 0, i32 0, i32 0, i32 0, i32 0, i32 0, i32 2
  %20 = load i8*, i8** %19, align 8, !tbaa !3
  br label %24

21:                                               ; preds = %13
  %22 = bitcast %"class.std::__1::basic_string"* %0 to %"struct.std::__1::basic_string<char, std::__1::char_traits<char>, std::__1::allocator<char>>::__short"*
  %23 = getelementptr inbounds %"struct.std::__1::basic_string<char, std::__1::char_traits<char>, std::__1::allocator<char>>::__short", %"struct.std::__1::basic_string<char, std::__1::char_traits<char>, std::__1::allocator<char>>::__short"* %22, i64 0, i32 1, i64 0
  br label %24

24:                                               ; preds = %18, %21
  %25 = phi i8* [ %20, %18 ], [ %23, %21 ]
  %26 = icmp ult i64 %1, 9223372036854775783
  br i1 %26, label %27, label %36

27:                                               ; preds = %24
  %28 = add i64 %2, %1
  %29 = shl nuw i64 %1, 1
  %30 = icmp ult i64 %28, %29
  %31 = select i1 %30, i64 %29, i64 %28
  %32 = add i64 %31, 16
  %33 = and i64 %32, -16
  %34 = icmp ult i64 %31, 23
  %35 = select i1 %34, i64 23, i64 %33
  br label %36

36:                                               ; preds = %24, %27
  %37 = phi i64 [ %35, %27 ], [ -17, %24 ]
  %38 = tail call noalias nonnull i8* @_Znwm(i64 %37) #21
  %39 = icmp eq i64 %4, 0
  br i1 %39, label %41, label %40

40:                                               ; preds = %36
  tail call void @llvm.memcpy.p0i8.p0i8.i64(i8* nonnull align 1 %38, i8* align 1 %25, i64 %4, i1 false) #20
  br label %41

41:                                               ; preds = %36, %40
  %42 = icmp eq i64 %6, 0
  br i1 %42, label %45, label %43

43:                                               ; preds = %41
  %44 = getelementptr inbounds i8, i8* %38, i64 %4
  tail call void @llvm.memcpy.p0i8.p0i8.i64(i8* nonnull align 1 %44, i8* align 1 %7, i64 %6, i1 false) #20
  br label %45

45:                                               ; preds = %41, %43
  %46 = sub i64 %3, %5
  %47 = sub i64 %46, %4
  %48 = icmp eq i64 %47, 0
  br i1 %48, label %54, label %49

49:                                               ; preds = %45
  %50 = getelementptr inbounds i8, i8* %38, i64 %4
  %51 = getelementptr inbounds i8, i8* %50, i64 %6
  %52 = getelementptr inbounds i8, i8* %25, i64 %4
  %53 = getelementptr inbounds i8, i8* %52, i64 %5
  tail call void @llvm.memcpy.p0i8.p0i8.i64(i8* nonnull align 1 %51, i8* align 1 %53, i64 %47, i1 false) #20
  br label %54

54:                                               ; preds = %45, %49
  %55 = icmp eq i64 %1, 22
  br i1 %55, label %57, label %56

56:                                               ; preds = %54
  tail call void @_ZdlPv(i8* %25) #22
  br label %57

57:                                               ; preds = %54, %56
  %58 = getelementptr inbounds %"class.std::__1::basic_string", %"class.std::__1::basic_string"* %0, i64 0, i32 0, i32 0, i32 0, i32 0, i32 0, i32 2
  store i8* %38, i8** %58, align 8, !tbaa !3
  %59 = or i64 %37, 1
  %60 = getelementptr inbounds %"class.std::__1::basic_string", %"class.std::__1::basic_string"* %0, i64 0, i32 0, i32 0, i32 0, i32 0, i32 0, i32 0
  store i64 %59, i64* %60, align 8, !tbaa !3
  %61 = add i64 %46, %6
  %62 = getelementptr inbounds %"class.std::__1::basic_string", %"class.std::__1::basic_string"* %0, i64 0, i32 0, i32 0, i32 0, i32 0, i32 0, i32 1
  store i64 %61, i64* %62, align 8, !tbaa !3
  %63 = getelementptr inbounds i8, i8* %38, i64 %61
  store i8 0, i8* %63, align 1, !tbaa !3
  ret void
}

; Function Attrs: nounwind uwtable
define weak_odr i64 @_ZNKSt3__112basic_stringIcNS_11char_traitsIcEENS_9allocatorIcEEE5rfindEPKcmm(%"class.std::__1::basic_string"* %0, i8* %1, i64 %2, i64 %3) local_unnamed_addr #4 comdat align 2 personality i32 (...)* @__gxx_personality_v0 {
  %5 = bitcast %"class.std::__1::basic_string"* %0 to i8*
  %6 = load i8, i8* %5, align 8, !tbaa !3
  %7 = and i8 %6, 1
  %8 = icmp eq i8 %7, 0
  br i1 %8, label %14, label %9

9:                                                ; preds = %4
  %10 = getelementptr inbounds %"class.std::__1::basic_string", %"class.std::__1::basic_string"* %0, i64 0, i32 0, i32 0, i32 0, i32 0, i32 0, i32 2
  %11 = load i8*, i8** %10, align 8, !tbaa !3
  %12 = getelementptr inbounds %"class.std::__1::basic_string", %"class.std::__1::basic_string"* %0, i64 0, i32 0, i32 0, i32 0, i32 0, i32 0, i32 1
  %13 = load i64, i64* %12, align 8, !tbaa !3
  br label %19

14:                                               ; preds = %4
  %15 = bitcast %"class.std::__1::basic_string"* %0 to %"struct.std::__1::basic_string<char, std::__1::char_traits<char>, std::__1::allocator<char>>::__short"*
  %16 = getelementptr inbounds %"struct.std::__1::basic_string<char, std::__1::char_traits<char>, std::__1::allocator<char>>::__short", %"struct.std::__1::basic_string<char, std::__1::char_traits<char>, std::__1::allocator<char>>::__short"* %15, i64 0, i32 1, i64 0
  %17 = lshr i8 %6, 1
  %18 = zext i8 %17 to i64
  br label %19

19:                                               ; preds = %9, %14
  %20 = phi i8* [ %11, %9 ], [ %16, %14 ]
  %21 = phi i64 [ %13, %9 ], [ %18, %14 ]
  %22 = icmp ult i64 %21, %2
  %23 = select i1 %22, i64 %21, i64 %2
  %24 = sub i64 %21, %23
  %25 = icmp ugt i64 %24, %3
  %26 = add i64 %23, %3
  %27 = select i1 %25, i64 %26, i64 %21
  %28 = getelementptr inbounds i8, i8* %20, i64 %27
  %29 = icmp eq i64 %3, 0
  %30 = icmp slt i64 %27, %3
  %31 = or i1 %29, %30
  br i1 %31, label %59, label %32

32:                                               ; preds = %19
  %33 = getelementptr inbounds i8, i8* %1, i64 %3
  %34 = add nsw i64 %3, -1
  %35 = getelementptr inbounds i8, i8* %20, i64 %34
  %36 = getelementptr inbounds i8, i8* %33, i64 -1
  %37 = sub i64 1, %3
  br label %38

38:                                               ; preds = %46, %32
  %39 = phi i8* [ %28, %32 ], [ %42, %46 ]
  %40 = icmp eq i8* %35, %39
  br i1 %40, label %59, label %41

41:                                               ; preds = %38
  %42 = getelementptr inbounds i8, i8* %39, i64 -1
  %43 = load i8, i8* %42, align 1, !tbaa !3
  %44 = load i8, i8* %36, align 1, !tbaa !3
  %45 = icmp eq i8 %43, %44
  br i1 %45, label %47, label %46

46:                                               ; preds = %51, %41
  br label %38

47:                                               ; preds = %41, %51
  %48 = phi i8* [ %52, %51 ], [ %42, %41 ]
  %49 = phi i8* [ %54, %51 ], [ %36, %41 ]
  %50 = icmp eq i8* %49, %1
  br i1 %50, label %57, label %51

51:                                               ; preds = %47
  %52 = getelementptr inbounds i8, i8* %48, i64 -1
  %53 = load i8, i8* %52, align 1, !tbaa !3
  %54 = getelementptr inbounds i8, i8* %49, i64 -1
  %55 = load i8, i8* %54, align 1, !tbaa !3
  %56 = icmp eq i8 %53, %55
  br i1 %56, label %47, label %46

57:                                               ; preds = %47
  %58 = getelementptr i8, i8* %42, i64 %37
  br label %59

59:                                               ; preds = %38, %19, %57
  %60 = phi i8* [ %28, %19 ], [ %58, %57 ], [ %28, %38 ]
  %61 = icmp ne i64 %3, 0
  %62 = icmp eq i8* %60, %28
  %63 = and i1 %61, %62
  %64 = ptrtoint i8* %60 to i64
  %65 = ptrtoint i8* %20 to i64
  %66 = sub i64 %64, %65
  %67 = select i1 %63, i64 -1, i64 %66
  ret i64 %67
}

; Function Attrs: inlinehint uwtable
define weak_odr void @_ZNSt3__112basic_stringIcNS_11char_traitsIcEENS_9allocatorIcEEE6__initEPKcmm(%"class.std::__1::basic_string"* %0, i8* %1, i64 %2, i64 %3) local_unnamed_addr #5 comdat align 2 {
  %5 = icmp ugt i64 %3, -17
  br i1 %5, label %6, label %8

6:                                                ; preds = %4
  %7 = bitcast %"class.std::__1::basic_string"* %0 to %"class.std::__1::__basic_string_common"*
  tail call void @_ZNKSt3__121__basic_string_commonILb1EE20__throw_length_errorEv(%"class.std::__1::__basic_string_common"* %7) #19
  unreachable

8:                                                ; preds = %4
  %9 = icmp ult i64 %3, 23
  br i1 %9, label %10, label %16

10:                                               ; preds = %8
  %11 = trunc i64 %2 to i8
  %12 = shl i8 %11, 1
  %13 = bitcast %"class.std::__1::basic_string"* %0 to i8*
  store i8 %12, i8* %13, align 8, !tbaa !3
  %14 = bitcast %"class.std::__1::basic_string"* %0 to %"struct.std::__1::basic_string<char, std::__1::char_traits<char>, std::__1::allocator<char>>::__short"*
  %15 = getelementptr inbounds %"struct.std::__1::basic_string<char, std::__1::char_traits<char>, std::__1::allocator<char>>::__short", %"struct.std::__1::basic_string<char, std::__1::char_traits<char>, std::__1::allocator<char>>::__short"* %14, i64 0, i32 1, i64 0
  br label %24

16:                                               ; preds = %8
  %17 = add nuw i64 %3, 16
  %18 = and i64 %17, -16
  %19 = tail call noalias nonnull i8* @_Znwm(i64 %18) #21
  %20 = getelementptr inbounds %"class.std::__1::basic_string", %"class.std::__1::basic_string"* %0, i64 0, i32 0, i32 0, i32 0, i32 0, i32 0, i32 2
  store i8* %19, i8** %20, align 8, !tbaa !3
  %21 = or i64 %18, 1
  %22 = getelementptr inbounds %"class.std::__1::basic_string", %"class.std::__1::basic_string"* %0, i64 0, i32 0, i32 0, i32 0, i32 0, i32 0, i32 0
  store i64 %21, i64* %22, align 8, !tbaa !3
  %23 = getelementptr inbounds %"class.std::__1::basic_string", %"class.std::__1::basic_string"* %0, i64 0, i32 0, i32 0, i32 0, i32 0, i32 0, i32 1
  store i64 %2, i64* %23, align 8, !tbaa !3
  br label %24

24:                                               ; preds = %16, %10
  %25 = phi i8* [ %15, %10 ], [ %19, %16 ]
  %26 = icmp eq i64 %2, 0
  br i1 %26, label %28, label %27

27:                                               ; preds = %24
  tail call void @llvm.memcpy.p0i8.p0i8.i64(i8* nonnull align 1 %25, i8* align 1 %1, i64 %2, i1 false) #20
  br label %28

28:                                               ; preds = %24, %27
  %29 = getelementptr inbounds i8, i8* %25, i64 %2
  store i8 0, i8* %29, align 1, !tbaa !3
  ret void
}

; Function Attrs: uwtable
define weak_odr void @_ZNSt3__112basic_stringIcNS_11char_traitsIcEENS_9allocatorIcEEEC2ERKS5_(%"class.std::__1::basic_string"* %0, %"class.std::__1::basic_string"* nonnull align 8 dereferenceable(24) %1) unnamed_addr #2 comdat($_ZNSt3__112basic_stringIcNS_11char_traitsIcEENS_9allocatorIcEEEC5ERKS5_) align 2 {
  %3 = bitcast %"class.std::__1::basic_string"* %1 to i8*
  %4 = load i8, i8* %3, align 8, !tbaa !3
  %5 = and i8 %4, 1
  %6 = icmp eq i8 %5, 0
  br i1 %6, label %7, label %9

7:                                                ; preds = %2
  %8 = bitcast %"class.std::__1::basic_string"* %0 to i8*
  tail call void @llvm.memcpy.p0i8.p0i8.i64(i8* nonnull align 8 dereferenceable(24) %8, i8* nonnull align 8 dereferenceable(24) %3, i64 24, i1 false), !tbaa.struct !6
  br label %36

9:                                                ; preds = %2
  %10 = getelementptr inbounds %"class.std::__1::basic_string", %"class.std::__1::basic_string"* %1, i64 0, i32 0, i32 0, i32 0, i32 0, i32 0, i32 2
  %11 = load i8*, i8** %10, align 8, !tbaa !3
  %12 = getelementptr inbounds %"class.std::__1::basic_string", %"class.std::__1::basic_string"* %1, i64 0, i32 0, i32 0, i32 0, i32 0, i32 0, i32 1
  %13 = load i64, i64* %12, align 8, !tbaa !3
  %14 = icmp ult i64 %13, 23
  br i1 %14, label %15, label %21

15:                                               ; preds = %9
  %16 = bitcast %"class.std::__1::basic_string"* %0 to %"struct.std::__1::basic_string<char, std::__1::char_traits<char>, std::__1::allocator<char>>::__short"*
  %17 = getelementptr inbounds %"struct.std::__1::basic_string<char, std::__1::char_traits<char>, std::__1::allocator<char>>::__short", %"struct.std::__1::basic_string<char, std::__1::char_traits<char>, std::__1::allocator<char>>::__short"* %16, i64 0, i32 1, i64 0
  %18 = trunc i64 %13 to i8
  %19 = shl nuw nsw i8 %18, 1
  %20 = bitcast %"class.std::__1::basic_string"* %0 to i8*
  store i8 %19, i8* %20, align 8, !tbaa !3
  br label %33

21:                                               ; preds = %9
  %22 = icmp ugt i64 %13, -17
  br i1 %22, label %23, label %25

23:                                               ; preds = %21
  %24 = bitcast %"class.std::__1::basic_string"* %0 to %"class.std::__1::__basic_string_common"*
  tail call void @_ZNKSt3__121__basic_string_commonILb1EE20__throw_length_errorEv(%"class.std::__1::__basic_string_common"* %24) #19
  unreachable

25:                                               ; preds = %21
  %26 = add nuw i64 %13, 16
  %27 = and i64 %26, -16
  %28 = tail call noalias nonnull i8* @_Znwm(i64 %27) #21
  %29 = getelementptr inbounds %"class.std::__1::basic_string", %"class.std::__1::basic_string"* %0, i64 0, i32 0, i32 0, i32 0, i32 0, i32 0, i32 2
  store i8* %28, i8** %29, align 8, !tbaa !3
  %30 = or i64 %27, 1
  %31 = getelementptr inbounds %"class.std::__1::basic_string", %"class.std::__1::basic_string"* %0, i64 0, i32 0, i32 0, i32 0, i32 0, i32 0, i32 0
  store i64 %30, i64* %31, align 8, !tbaa !3
  %32 = getelementptr inbounds %"class.std::__1::basic_string", %"class.std::__1::basic_string"* %0, i64 0, i32 0, i32 0, i32 0, i32 0, i32 0, i32 1
  store i64 %13, i64* %32, align 8, !tbaa !3
  br label %33

33:                                               ; preds = %15, %25
  %34 = phi i8* [ %17, %15 ], [ %28, %25 ]
  %35 = add nuw i64 %13, 1
  tail call void @llvm.memcpy.p0i8.p0i8.i64(i8* nonnull align 1 %34, i8* align 1 %11, i64 %35, i1 false) #20
  br label %36

36:                                               ; preds = %33, %7
  ret void
}

; Function Attrs: argmemonly nounwind willreturn
declare void @llvm.memcpy.p0i8.p0i8.i64(i8* noalias nocapture writeonly, i8* noalias nocapture readonly, i64, i1 immarg) #3

; Function Attrs: uwtable
define weak_odr nonnull align 8 dereferenceable(24) %"class.std::__1::basic_string"* @_ZNSt3__112basic_stringIcNS_11char_traitsIcEENS_9allocatorIcEEE7replaceEmmPKc(%"class.std::__1::basic_string"* %0, i64 %1, i64 %2, i8* %3) local_unnamed_addr #2 comdat align 2 {
  %5 = tail call i64 @strlen(i8* nonnull dereferenceable(1) %3) #20
  %6 = tail call nonnull align 8 dereferenceable(24) %"class.std::__1::basic_string"* @_ZNSt3__112basic_stringIcNS_11char_traitsIcEENS_9allocatorIcEEE7replaceEmmPKcm(%"class.std::__1::basic_string"* %0, i64 %1, i64 %2, i8* %3, i64 %5)
  ret %"class.std::__1::basic_string"* %6
}

; Function Attrs: uwtable
define weak_odr void @_ZNSt3__112basic_stringIcNS_11char_traitsIcEENS_9allocatorIcEEEC2ERKS5_RKS4_(%"class.std::__1::basic_string"* %0, %"class.std::__1::basic_string"* nonnull align 8 dereferenceable(24) %1, %"class.std::__1::allocator"* nonnull align 1 dereferenceable(1) %2) unnamed_addr #2 comdat($_ZNSt3__112basic_stringIcNS_11char_traitsIcEENS_9allocatorIcEEEC5ERKS5_RKS4_) align 2 {
  %4 = bitcast %"class.std::__1::basic_string"* %1 to i8*
  %5 = load i8, i8* %4, align 8, !tbaa !3
  %6 = and i8 %5, 1
  %7 = icmp eq i8 %6, 0
  br i1 %7, label %8, label %10

8:                                                ; preds = %3
  %9 = bitcast %"class.std::__1::basic_string"* %0 to i8*
  tail call void @llvm.memcpy.p0i8.p0i8.i64(i8* nonnull align 8 dereferenceable(24) %9, i8* nonnull align 8 dereferenceable(24) %4, i64 24, i1 false), !tbaa.struct !6
  br label %37

10:                                               ; preds = %3
  %11 = getelementptr inbounds %"class.std::__1::basic_string", %"class.std::__1::basic_string"* %1, i64 0, i32 0, i32 0, i32 0, i32 0, i32 0, i32 2
  %12 = load i8*, i8** %11, align 8, !tbaa !3
  %13 = getelementptr inbounds %"class.std::__1::basic_string", %"class.std::__1::basic_string"* %1, i64 0, i32 0, i32 0, i32 0, i32 0, i32 0, i32 1
  %14 = load i64, i64* %13, align 8, !tbaa !3
  %15 = icmp ult i64 %14, 23
  br i1 %15, label %16, label %22

16:                                               ; preds = %10
  %17 = bitcast %"class.std::__1::basic_string"* %0 to %"struct.std::__1::basic_string<char, std::__1::char_traits<char>, std::__1::allocator<char>>::__short"*
  %18 = getelementptr inbounds %"struct.std::__1::basic_string<char, std::__1::char_traits<char>, std::__1::allocator<char>>::__short", %"struct.std::__1::basic_string<char, std::__1::char_traits<char>, std::__1::allocator<char>>::__short"* %17, i64 0, i32 1, i64 0
  %19 = trunc i64 %14 to i8
  %20 = shl nuw nsw i8 %19, 1
  %21 = bitcast %"class.std::__1::basic_string"* %0 to i8*
  store i8 %20, i8* %21, align 8, !tbaa !3
  br label %34

22:                                               ; preds = %10
  %23 = icmp ugt i64 %14, -17
  br i1 %23, label %24, label %26

24:                                               ; preds = %22
  %25 = bitcast %"class.std::__1::basic_string"* %0 to %"class.std::__1::__basic_string_common"*
  tail call void @_ZNKSt3__121__basic_string_commonILb1EE20__throw_length_errorEv(%"class.std::__1::__basic_string_common"* %25) #19
  unreachable

26:                                               ; preds = %22
  %27 = add nuw i64 %14, 16
  %28 = and i64 %27, -16
  %29 = tail call noalias nonnull i8* @_Znwm(i64 %28) #21
  %30 = getelementptr inbounds %"class.std::__1::basic_string", %"class.std::__1::basic_string"* %0, i64 0, i32 0, i32 0, i32 0, i32 0, i32 0, i32 2
  store i8* %29, i8** %30, align 8, !tbaa !3
  %31 = or i64 %28, 1
  %32 = getelementptr inbounds %"class.std::__1::basic_string", %"class.std::__1::basic_string"* %0, i64 0, i32 0, i32 0, i32 0, i32 0, i32 0, i32 0
  store i64 %31, i64* %32, align 8, !tbaa !3
  %33 = getelementptr inbounds %"class.std::__1::basic_string", %"class.std::__1::basic_string"* %0, i64 0, i32 0, i32 0, i32 0, i32 0, i32 0, i32 1
  store i64 %14, i64* %33, align 8, !tbaa !3
  br label %34

34:                                               ; preds = %16, %26
  %35 = phi i8* [ %18, %16 ], [ %29, %26 ]
  %36 = add nuw i64 %14, 1
  tail call void @llvm.memcpy.p0i8.p0i8.i64(i8* nonnull align 1 %35, i8* align 1 %12, i64 %36, i1 false) #20
  br label %37

37:                                               ; preds = %34, %8
  ret void
}

; Function Attrs: nounwind uwtable
define weak_odr i64 @_ZNKSt3__112basic_stringIcNS_11char_traitsIcEENS_9allocatorIcEEE16find_last_not_ofEPKcmm(%"class.std::__1::basic_string"* %0, i8* %1, i64 %2, i64 %3) local_unnamed_addr #4 comdat align 2 {
  %5 = bitcast %"class.std::__1::basic_string"* %0 to i8*
  %6 = load i8, i8* %5, align 8, !tbaa !3
  %7 = and i8 %6, 1
  %8 = icmp eq i8 %7, 0
  br i1 %8, label %14, label %9

9:                                                ; preds = %4
  %10 = getelementptr inbounds %"class.std::__1::basic_string", %"class.std::__1::basic_string"* %0, i64 0, i32 0, i32 0, i32 0, i32 0, i32 0, i32 2
  %11 = load i8*, i8** %10, align 8, !tbaa !3
  %12 = getelementptr inbounds %"class.std::__1::basic_string", %"class.std::__1::basic_string"* %0, i64 0, i32 0, i32 0, i32 0, i32 0, i32 0, i32 1
  %13 = load i64, i64* %12, align 8, !tbaa !3
  br label %19

14:                                               ; preds = %4
  %15 = bitcast %"class.std::__1::basic_string"* %0 to %"struct.std::__1::basic_string<char, std::__1::char_traits<char>, std::__1::allocator<char>>::__short"*
  %16 = getelementptr inbounds %"struct.std::__1::basic_string<char, std::__1::char_traits<char>, std::__1::allocator<char>>::__short", %"struct.std::__1::basic_string<char, std::__1::char_traits<char>, std::__1::allocator<char>>::__short"* %15, i64 0, i32 1, i64 0
  %17 = lshr i8 %6, 1
  %18 = zext i8 %17 to i64
  br label %19

19:                                               ; preds = %9, %14
  %20 = phi i8* [ %11, %9 ], [ %16, %14 ]
  %21 = phi i64 [ %13, %9 ], [ %18, %14 ]
  %22 = icmp ugt i64 %21, %2
  %23 = add i64 %2, 1
  %24 = select i1 %22, i64 %23, i64 %21
  %25 = getelementptr inbounds i8, i8* %20, i64 %24
  %26 = icmp eq i64 %3, 0
  br i1 %26, label %27, label %31

27:                                               ; preds = %19
  %28 = icmp eq i64 %24, 0
  br i1 %28, label %45, label %29

29:                                               ; preds = %27
  %30 = getelementptr inbounds i8, i8* %25, i64 -1
  br label %40

31:                                               ; preds = %19, %34
  %32 = phi i8* [ %35, %34 ], [ %25, %19 ]
  %33 = icmp eq i8* %32, %20
  br i1 %33, label %45, label %34

34:                                               ; preds = %31
  %35 = getelementptr inbounds i8, i8* %32, i64 -1
  %36 = load i8, i8* %35, align 1, !tbaa !3
  %37 = zext i8 %36 to i32
  %38 = tail call i8* @memchr(i8* %1, i32 %37, i64 %3) #20
  %39 = icmp eq i8* %38, null
  br i1 %39, label %40, label %31

40:                                               ; preds = %34, %29
  %41 = phi i8* [ %30, %29 ], [ %35, %34 ]
  %42 = ptrtoint i8* %41 to i64
  %43 = ptrtoint i8* %20 to i64
  %44 = sub i64 %42, %43
  br label %45

45:                                               ; preds = %31, %27, %40
  %46 = phi i64 [ %44, %40 ], [ -1, %27 ], [ -1, %31 ]
  ret i64 %46
}

; Function Attrs: inlinehint nounwind uwtable
define weak_odr void @_ZNSt3__112basic_stringIcNS_11char_traitsIcEENS_9allocatorIcEEED2Ev(%"class.std::__1::basic_string"* %0) unnamed_addr #6 comdat($_ZNSt3__112basic_stringIcNS_11char_traitsIcEENS_9allocatorIcEEED5Ev) align 2 personality i32 (...)* @__gxx_personality_v0 {
  %2 = bitcast %"class.std::__1::basic_string"* %0 to i8*
  %3 = load i8, i8* %2, align 8, !tbaa !3
  %4 = and i8 %3, 1
  %5 = icmp eq i8 %4, 0
  br i1 %5, label %9, label %6

6:                                                ; preds = %1
  %7 = getelementptr inbounds %"class.std::__1::basic_string", %"class.std::__1::basic_string"* %0, i64 0, i32 0, i32 0, i32 0, i32 0, i32 0, i32 2
  %8 = load i8*, i8** %7, align 8, !tbaa !3
  tail call void @_ZdlPv(i8* %8) #22
  br label %9

9:                                                ; preds = %1, %6
  ret void
}

; Function Attrs: nounwind uwtable
define weak_odr i64 @_ZNKSt3__112basic_stringIcNS_11char_traitsIcEENS_9allocatorIcEEE17find_first_not_ofEPKcmm(%"class.std::__1::basic_string"* %0, i8* %1, i64 %2, i64 %3) local_unnamed_addr #4 comdat align 2 {
  %5 = bitcast %"class.std::__1::basic_string"* %0 to i8*
  %6 = load i8, i8* %5, align 8, !tbaa !3
  %7 = and i8 %6, 1
  %8 = icmp eq i8 %7, 0
  br i1 %8, label %14, label %9

9:                                                ; preds = %4
  %10 = getelementptr inbounds %"class.std::__1::basic_string", %"class.std::__1::basic_string"* %0, i64 0, i32 0, i32 0, i32 0, i32 0, i32 0, i32 2
  %11 = load i8*, i8** %10, align 8, !tbaa !3
  %12 = getelementptr inbounds %"class.std::__1::basic_string", %"class.std::__1::basic_string"* %0, i64 0, i32 0, i32 0, i32 0, i32 0, i32 0, i32 1
  %13 = load i64, i64* %12, align 8, !tbaa !3
  br label %19

14:                                               ; preds = %4
  %15 = bitcast %"class.std::__1::basic_string"* %0 to %"struct.std::__1::basic_string<char, std::__1::char_traits<char>, std::__1::allocator<char>>::__short"*
  %16 = getelementptr inbounds %"struct.std::__1::basic_string<char, std::__1::char_traits<char>, std::__1::allocator<char>>::__short", %"struct.std::__1::basic_string<char, std::__1::char_traits<char>, std::__1::allocator<char>>::__short"* %15, i64 0, i32 1, i64 0
  %17 = lshr i8 %6, 1
  %18 = zext i8 %17 to i64
  br label %19

19:                                               ; preds = %9, %14
  %20 = phi i8* [ %11, %9 ], [ %16, %14 ]
  %21 = phi i64 [ %13, %9 ], [ %18, %14 ]
  %22 = icmp ugt i64 %21, %2
  br i1 %22, label %23, label %41

23:                                               ; preds = %19
  %24 = getelementptr inbounds i8, i8* %20, i64 %21
  %25 = getelementptr inbounds i8, i8* %20, i64 %2
  %26 = icmp eq i64 %3, 0
  br i1 %26, label %36, label %27

27:                                               ; preds = %23, %33
  %28 = phi i8* [ %34, %33 ], [ %25, %23 ]
  %29 = load i8, i8* %28, align 1, !tbaa !3
  %30 = zext i8 %29 to i32
  %31 = tail call i8* @memchr(i8* %1, i32 %30, i64 %3) #20
  %32 = icmp eq i8* %31, null
  br i1 %32, label %36, label %33

33:                                               ; preds = %27
  %34 = getelementptr inbounds i8, i8* %28, i64 1
  %35 = icmp eq i8* %34, %24
  br i1 %35, label %41, label %27

36:                                               ; preds = %27, %23
  %37 = phi i8* [ %25, %23 ], [ %28, %27 ]
  %38 = ptrtoint i8* %37 to i64
  %39 = ptrtoint i8* %20 to i64
  %40 = sub i64 %38, %39
  br label %41

41:                                               ; preds = %33, %19, %36
  %42 = phi i64 [ %40, %36 ], [ -1, %19 ], [ -1, %33 ]
  ret i64 %42
}

; Function Attrs: uwtable
define weak_odr nonnull align 8 dereferenceable(24) %"class.std::__1::basic_string"* @_ZNSt3__112basic_stringIcNS_11char_traitsIcEENS_9allocatorIcEEE6insertEmmc(%"class.std::__1::basic_string"* %0, i64 %1, i64 %2, i8 signext %3) local_unnamed_addr #2 comdat align 2 personality i32 (...)* @__gxx_personality_v0 {
  %5 = bitcast %"class.std::__1::basic_string"* %0 to i8*
  %6 = load i8, i8* %5, align 8, !tbaa !3
  %7 = and i8 %6, 1
  %8 = icmp eq i8 %7, 0
  br i1 %8, label %12, label %9

9:                                                ; preds = %4
  %10 = getelementptr inbounds %"class.std::__1::basic_string", %"class.std::__1::basic_string"* %0, i64 0, i32 0, i32 0, i32 0, i32 0, i32 0, i32 1
  %11 = load i64, i64* %10, align 8, !tbaa !3
  br label %15

12:                                               ; preds = %4
  %13 = lshr i8 %6, 1
  %14 = zext i8 %13 to i64
  br label %15

15:                                               ; preds = %9, %12
  %16 = phi i64 [ %11, %9 ], [ %14, %12 ]
  %17 = icmp ult i64 %16, %1
  br i1 %17, label %18, label %20

18:                                               ; preds = %15
  %19 = bitcast %"class.std::__1::basic_string"* %0 to %"class.std::__1::__basic_string_common"*
  tail call void @_ZNKSt3__121__basic_string_commonILb1EE20__throw_out_of_rangeEv(%"class.std::__1::__basic_string_common"* %19) #19
  unreachable

20:                                               ; preds = %15
  %21 = icmp eq i64 %2, 0
  br i1 %21, label %110, label %22

22:                                               ; preds = %20
  br i1 %8, label %23, label %26

23:                                               ; preds = %22
  %24 = sub i64 22, %16
  %25 = icmp ult i64 %24, %2
  br i1 %25, label %46, label %36

26:                                               ; preds = %22
  %27 = getelementptr inbounds %"class.std::__1::basic_string", %"class.std::__1::basic_string"* %0, i64 0, i32 0, i32 0, i32 0, i32 0, i32 0, i32 0
  %28 = load i64, i64* %27, align 8, !tbaa !3
  %29 = and i64 %28, -2
  %30 = add i64 %29, -1
  %31 = sub i64 %30, %16
  %32 = icmp ult i64 %31, %2
  br i1 %32, label %50, label %33

33:                                               ; preds = %26
  %34 = getelementptr inbounds %"class.std::__1::basic_string", %"class.std::__1::basic_string"* %0, i64 0, i32 0, i32 0, i32 0, i32 0, i32 0, i32 2
  %35 = load i8*, i8** %34, align 8, !tbaa !3
  br label %39

36:                                               ; preds = %23
  %37 = bitcast %"class.std::__1::basic_string"* %0 to %"struct.std::__1::basic_string<char, std::__1::char_traits<char>, std::__1::allocator<char>>::__short"*
  %38 = getelementptr inbounds %"struct.std::__1::basic_string<char, std::__1::char_traits<char>, std::__1::allocator<char>>::__short", %"struct.std::__1::basic_string<char, std::__1::char_traits<char>, std::__1::allocator<char>>::__short"* %37, i64 0, i32 1, i64 0
  br label %39

39:                                               ; preds = %33, %36
  %40 = phi i8* [ %35, %33 ], [ %38, %36 ]
  %41 = sub i64 %16, %1
  %42 = icmp eq i64 %41, 0
  br i1 %42, label %96, label %43

43:                                               ; preds = %39
  %44 = getelementptr inbounds i8, i8* %40, i64 %1
  %45 = getelementptr inbounds i8, i8* %44, i64 %2
  tail call void @llvm.memmove.p0i8.p0i8.i64(i8* nonnull align 1 %45, i8* align 1 %44, i64 %41, i1 false) #20
  br label %96

46:                                               ; preds = %23
  %47 = add i64 %16, %2
  %48 = add i64 %47, -22
  %49 = icmp ugt i64 %48, -39
  br i1 %49, label %55, label %57

50:                                               ; preds = %26
  %51 = add i64 %16, %2
  %52 = sub i64 %51, %30
  %53 = sub i64 -16, %29
  %54 = icmp ult i64 %53, %52
  br i1 %54, label %55, label %60

55:                                               ; preds = %50, %46
  %56 = bitcast %"class.std::__1::basic_string"* %0 to %"class.std::__1::__basic_string_common"*
  tail call void @_ZNKSt3__121__basic_string_commonILb1EE20__throw_length_errorEv(%"class.std::__1::__basic_string_common"* %56) #19
  unreachable

57:                                               ; preds = %46
  %58 = bitcast %"class.std::__1::basic_string"* %0 to %"struct.std::__1::basic_string<char, std::__1::char_traits<char>, std::__1::allocator<char>>::__short"*
  %59 = getelementptr inbounds %"struct.std::__1::basic_string<char, std::__1::char_traits<char>, std::__1::allocator<char>>::__short", %"struct.std::__1::basic_string<char, std::__1::char_traits<char>, std::__1::allocator<char>>::__short"* %58, i64 0, i32 1, i64 0
  br label %64

60:                                               ; preds = %50
  %61 = getelementptr inbounds %"class.std::__1::basic_string", %"class.std::__1::basic_string"* %0, i64 0, i32 0, i32 0, i32 0, i32 0, i32 0, i32 2
  %62 = load i8*, i8** %61, align 8, !tbaa !3
  %63 = icmp ult i64 %30, 9223372036854775783
  br i1 %63, label %64, label %75

64:                                               ; preds = %57, %60
  %65 = phi i8* [ %59, %57 ], [ %62, %60 ]
  %66 = phi i64 [ %47, %57 ], [ %51, %60 ]
  %67 = phi i64 [ 22, %57 ], [ %30, %60 ]
  %68 = shl nuw i64 %67, 1
  %69 = icmp ult i64 %66, %68
  %70 = select i1 %69, i64 %68, i64 %66
  %71 = add i64 %70, 16
  %72 = and i64 %71, -16
  %73 = icmp ult i64 %70, 23
  %74 = select i1 %73, i64 23, i64 %72
  br label %75

75:                                               ; preds = %64, %60
  %76 = phi i8* [ %65, %64 ], [ %62, %60 ]
  %77 = phi i64 [ %67, %64 ], [ %30, %60 ]
  %78 = phi i64 [ %74, %64 ], [ -17, %60 ]
  %79 = tail call noalias nonnull i8* @_Znwm(i64 %78) #21
  %80 = icmp eq i64 %1, 0
  br i1 %80, label %82, label %81

81:                                               ; preds = %75
  tail call void @llvm.memcpy.p0i8.p0i8.i64(i8* nonnull align 1 %79, i8* align 1 %76, i64 %1, i1 false) #20
  br label %82

82:                                               ; preds = %81, %75
  %83 = sub i64 %16, %1
  %84 = icmp eq i64 %83, 0
  br i1 %84, label %89, label %85

85:                                               ; preds = %82
  %86 = getelementptr inbounds i8, i8* %79, i64 %1
  %87 = getelementptr inbounds i8, i8* %86, i64 %2
  %88 = getelementptr inbounds i8, i8* %76, i64 %1
  tail call void @llvm.memcpy.p0i8.p0i8.i64(i8* nonnull align 1 %87, i8* align 1 %88, i64 %83, i1 false) #20
  br label %89

89:                                               ; preds = %85, %82
  %90 = icmp eq i64 %77, 22
  br i1 %90, label %92, label %91

91:                                               ; preds = %89
  tail call void @_ZdlPv(i8* %76) #22
  br label %92

92:                                               ; preds = %89, %91
  %93 = getelementptr inbounds %"class.std::__1::basic_string", %"class.std::__1::basic_string"* %0, i64 0, i32 0, i32 0, i32 0, i32 0, i32 0, i32 2
  store i8* %79, i8** %93, align 8, !tbaa !3
  %94 = or i64 %78, 1
  %95 = getelementptr inbounds %"class.std::__1::basic_string", %"class.std::__1::basic_string"* %0, i64 0, i32 0, i32 0, i32 0, i32 0, i32 0, i32 0
  store i64 %94, i64* %95, align 8, !tbaa !3
  br label %96

96:                                               ; preds = %43, %39, %92
  %97 = phi i8* [ %79, %92 ], [ %40, %39 ], [ %40, %43 ]
  %98 = getelementptr inbounds i8, i8* %97, i64 %1
  tail call void @llvm.memset.p0i8.i64(i8* align 1 %98, i8 %3, i64 %2, i1 false) #20
  %99 = add i64 %16, %2
  %100 = load i8, i8* %5, align 8, !tbaa !3
  %101 = and i8 %100, 1
  %102 = icmp eq i8 %101, 0
  br i1 %102, label %105, label %103

103:                                              ; preds = %96
  %104 = getelementptr inbounds %"class.std::__1::basic_string", %"class.std::__1::basic_string"* %0, i64 0, i32 0, i32 0, i32 0, i32 0, i32 0, i32 1
  store i64 %99, i64* %104, align 8, !tbaa !3
  br label %108

105:                                              ; preds = %96
  %106 = trunc i64 %99 to i8
  %107 = shl i8 %106, 1
  store i8 %107, i8* %5, align 8, !tbaa !3
  br label %108

108:                                              ; preds = %103, %105
  %109 = getelementptr inbounds i8, i8* %97, i64 %99
  store i8 0, i8* %109, align 1, !tbaa !3
  br label %110

110:                                              ; preds = %20, %108
  ret %"class.std::__1::basic_string"* %0
}

; Function Attrs: uwtable
define weak_odr void @_ZNSt3__112basic_stringIcNS_11char_traitsIcEENS_9allocatorIcEEE9__grow_byEmmmmmm(%"class.std::__1::basic_string"* %0, i64 %1, i64 %2, i64 %3, i64 %4, i64 %5, i64 %6) local_unnamed_addr #2 comdat align 2 personality i32 (...)* @__gxx_personality_v0 {
  %8 = sub i64 -17, %1
  %9 = icmp ult i64 %8, %2
  br i1 %9, label %10, label %12

10:                                               ; preds = %7
  %11 = bitcast %"class.std::__1::basic_string"* %0 to %"class.std::__1::__basic_string_common"*
  tail call void @_ZNKSt3__121__basic_string_commonILb1EE20__throw_length_errorEv(%"class.std::__1::__basic_string_common"* %11) #19
  unreachable

12:                                               ; preds = %7
  %13 = bitcast %"class.std::__1::basic_string"* %0 to i8*
  %14 = load i8, i8* %13, align 8, !tbaa !3
  %15 = and i8 %14, 1
  %16 = icmp eq i8 %15, 0
  br i1 %16, label %20, label %17

17:                                               ; preds = %12
  %18 = getelementptr inbounds %"class.std::__1::basic_string", %"class.std::__1::basic_string"* %0, i64 0, i32 0, i32 0, i32 0, i32 0, i32 0, i32 2
  %19 = load i8*, i8** %18, align 8, !tbaa !3
  br label %23

20:                                               ; preds = %12
  %21 = bitcast %"class.std::__1::basic_string"* %0 to %"struct.std::__1::basic_string<char, std::__1::char_traits<char>, std::__1::allocator<char>>::__short"*
  %22 = getelementptr inbounds %"struct.std::__1::basic_string<char, std::__1::char_traits<char>, std::__1::allocator<char>>::__short", %"struct.std::__1::basic_string<char, std::__1::char_traits<char>, std::__1::allocator<char>>::__short"* %21, i64 0, i32 1, i64 0
  br label %23

23:                                               ; preds = %17, %20
  %24 = phi i8* [ %19, %17 ], [ %22, %20 ]
  %25 = icmp ult i64 %1, 9223372036854775783
  br i1 %25, label %26, label %35

26:                                               ; preds = %23
  %27 = add i64 %2, %1
  %28 = shl nuw i64 %1, 1
  %29 = icmp ult i64 %27, %28
  %30 = select i1 %29, i64 %28, i64 %27
  %31 = add i64 %30, 16
  %32 = and i64 %31, -16
  %33 = icmp ult i64 %30, 23
  %34 = select i1 %33, i64 23, i64 %32
  br label %35

35:                                               ; preds = %23, %26
  %36 = phi i64 [ %34, %26 ], [ -17, %23 ]
  %37 = tail call noalias nonnull i8* @_Znwm(i64 %36) #21
  %38 = icmp eq i64 %4, 0
  br i1 %38, label %40, label %39

39:                                               ; preds = %35
  tail call void @llvm.memcpy.p0i8.p0i8.i64(i8* nonnull align 1 %37, i8* align 1 %24, i64 %4, i1 false) #20
  br label %40

40:                                               ; preds = %35, %39
  %41 = sub i64 %3, %5
  %42 = sub i64 %41, %4
  %43 = icmp eq i64 %42, 0
  br i1 %43, label %49, label %44

44:                                               ; preds = %40
  %45 = getelementptr inbounds i8, i8* %37, i64 %4
  %46 = getelementptr inbounds i8, i8* %45, i64 %6
  %47 = getelementptr inbounds i8, i8* %24, i64 %4
  %48 = getelementptr inbounds i8, i8* %47, i64 %5
  tail call void @llvm.memcpy.p0i8.p0i8.i64(i8* nonnull align 1 %46, i8* align 1 %48, i64 %42, i1 false) #20
  br label %49

49:                                               ; preds = %40, %44
  %50 = icmp eq i64 %1, 22
  br i1 %50, label %52, label %51

51:                                               ; preds = %49
  tail call void @_ZdlPv(i8* %24) #22
  br label %52

52:                                               ; preds = %49, %51
  %53 = getelementptr inbounds %"class.std::__1::basic_string", %"class.std::__1::basic_string"* %0, i64 0, i32 0, i32 0, i32 0, i32 0, i32 0, i32 2
  store i8* %37, i8** %53, align 8, !tbaa !3
  %54 = or i64 %36, 1
  %55 = getelementptr inbounds %"class.std::__1::basic_string", %"class.std::__1::basic_string"* %0, i64 0, i32 0, i32 0, i32 0, i32 0, i32 0, i32 0
  store i64 %54, i64* %55, align 8, !tbaa !3
  ret void
}

; Function Attrs: uwtable
define weak_odr nonnull align 8 dereferenceable(24) %"class.std::__1::basic_string"* @_ZNSt3__112basic_stringIcNS_11char_traitsIcEENS_9allocatorIcEEEaSEc(%"class.std::__1::basic_string"* %0, i8 signext %1) local_unnamed_addr #2 comdat align 2 {
  %3 = bitcast %"class.std::__1::basic_string"* %0 to i8*
  %4 = load i8, i8* %3, align 8, !tbaa !3
  %5 = and i8 %4, 1
  %6 = icmp eq i8 %5, 0
  br i1 %6, label %11, label %7

7:                                                ; preds = %2
  %8 = getelementptr inbounds %"class.std::__1::basic_string", %"class.std::__1::basic_string"* %0, i64 0, i32 0, i32 0, i32 0, i32 0, i32 0, i32 2
  %9 = load i8*, i8** %8, align 8, !tbaa !3
  %10 = getelementptr inbounds %"class.std::__1::basic_string", %"class.std::__1::basic_string"* %0, i64 0, i32 0, i32 0, i32 0, i32 0, i32 0, i32 1
  store i64 1, i64* %10, align 8, !tbaa !3
  br label %14

11:                                               ; preds = %2
  %12 = bitcast %"class.std::__1::basic_string"* %0 to %"struct.std::__1::basic_string<char, std::__1::char_traits<char>, std::__1::allocator<char>>::__short"*
  %13 = getelementptr inbounds %"struct.std::__1::basic_string<char, std::__1::char_traits<char>, std::__1::allocator<char>>::__short", %"struct.std::__1::basic_string<char, std::__1::char_traits<char>, std::__1::allocator<char>>::__short"* %12, i64 0, i32 1, i64 0
  store i8 2, i8* %3, align 8, !tbaa !3
  br label %14

14:                                               ; preds = %11, %7
  %15 = phi i8* [ %9, %7 ], [ %13, %11 ]
  store i8 %1, i8* %15, align 1, !tbaa !3
  %16 = getelementptr inbounds i8, i8* %15, i64 1
  store i8 0, i8* %16, align 1, !tbaa !3
  ret %"class.std::__1::basic_string"* %0
}

; Function Attrs: inlinehint uwtable
define weak_odr void @_ZNSt3__112basic_stringIcNS_11char_traitsIcEENS_9allocatorIcEEE6__initEPKcm(%"class.std::__1::basic_string"* %0, i8* %1, i64 %2) local_unnamed_addr #5 comdat align 2 {
  %4 = icmp ugt i64 %2, -17
  br i1 %4, label %5, label %7

5:                                                ; preds = %3
  %6 = bitcast %"class.std::__1::basic_string"* %0 to %"class.std::__1::__basic_string_common"*
  tail call void @_ZNKSt3__121__basic_string_commonILb1EE20__throw_length_errorEv(%"class.std::__1::__basic_string_common"* %6) #19
  unreachable

7:                                                ; preds = %3
  %8 = icmp ult i64 %2, 23
  br i1 %8, label %17, label %9

9:                                                ; preds = %7
  %10 = add nuw i64 %2, 16
  %11 = and i64 %10, -16
  %12 = tail call noalias nonnull i8* @_Znwm(i64 %11) #21
  %13 = getelementptr inbounds %"class.std::__1::basic_string", %"class.std::__1::basic_string"* %0, i64 0, i32 0, i32 0, i32 0, i32 0, i32 0, i32 2
  store i8* %12, i8** %13, align 8, !tbaa !3
  %14 = or i64 %11, 1
  %15 = getelementptr inbounds %"class.std::__1::basic_string", %"class.std::__1::basic_string"* %0, i64 0, i32 0, i32 0, i32 0, i32 0, i32 0, i32 0
  store i64 %14, i64* %15, align 8, !tbaa !3
  %16 = getelementptr inbounds %"class.std::__1::basic_string", %"class.std::__1::basic_string"* %0, i64 0, i32 0, i32 0, i32 0, i32 0, i32 0, i32 1
  store i64 %2, i64* %16, align 8, !tbaa !3
  br label %24

17:                                               ; preds = %7
  %18 = trunc i64 %2 to i8
  %19 = shl nuw nsw i8 %18, 1
  %20 = bitcast %"class.std::__1::basic_string"* %0 to i8*
  store i8 %19, i8* %20, align 8, !tbaa !3
  %21 = bitcast %"class.std::__1::basic_string"* %0 to %"struct.std::__1::basic_string<char, std::__1::char_traits<char>, std::__1::allocator<char>>::__short"*
  %22 = getelementptr inbounds %"struct.std::__1::basic_string<char, std::__1::char_traits<char>, std::__1::allocator<char>>::__short", %"struct.std::__1::basic_string<char, std::__1::char_traits<char>, std::__1::allocator<char>>::__short"* %21, i64 0, i32 1, i64 0
  %23 = icmp eq i64 %2, 0
  br i1 %23, label %26, label %24

24:                                               ; preds = %9, %17
  %25 = phi i8* [ %12, %9 ], [ %22, %17 ]
  tail call void @llvm.memcpy.p0i8.p0i8.i64(i8* nonnull align 1 %25, i8* align 1 %1, i64 %2, i1 false) #20
  br label %26

26:                                               ; preds = %17, %24
  %27 = phi i8* [ %22, %17 ], [ %25, %24 ]
  %28 = getelementptr inbounds i8, i8* %27, i64 %2
  store i8 0, i8* %28, align 1, !tbaa !3
  ret void
}

; Function Attrs: uwtable
define weak_odr nonnull align 1 dereferenceable(1) i8* @_ZNKSt3__112basic_stringIcNS_11char_traitsIcEENS_9allocatorIcEEE2atEm(%"class.std::__1::basic_string"* %0, i64 %1) local_unnamed_addr #2 comdat align 2 {
  %3 = bitcast %"class.std::__1::basic_string"* %0 to i8*
  %4 = load i8, i8* %3, align 8, !tbaa !3
  %5 = and i8 %4, 1
  %6 = icmp eq i8 %5, 0
  br i1 %6, label %7, label %11

7:                                                ; preds = %2
  %8 = lshr i8 %4, 1
  %9 = zext i8 %8 to i64
  %10 = icmp ugt i64 %9, %1
  br i1 %10, label %20, label %15

11:                                               ; preds = %2
  %12 = getelementptr inbounds %"class.std::__1::basic_string", %"class.std::__1::basic_string"* %0, i64 0, i32 0, i32 0, i32 0, i32 0, i32 0, i32 1
  %13 = load i64, i64* %12, align 8, !tbaa !3
  %14 = icmp ugt i64 %13, %1
  br i1 %14, label %17, label %15

15:                                               ; preds = %11, %7
  %16 = bitcast %"class.std::__1::basic_string"* %0 to %"class.std::__1::__basic_string_common"*
  tail call void @_ZNKSt3__121__basic_string_commonILb1EE20__throw_out_of_rangeEv(%"class.std::__1::__basic_string_common"* %16) #19
  unreachable

17:                                               ; preds = %11
  %18 = getelementptr inbounds %"class.std::__1::basic_string", %"class.std::__1::basic_string"* %0, i64 0, i32 0, i32 0, i32 0, i32 0, i32 0, i32 2
  %19 = load i8*, i8** %18, align 8, !tbaa !3
  br label %23

20:                                               ; preds = %7
  %21 = bitcast %"class.std::__1::basic_string"* %0 to %"struct.std::__1::basic_string<char, std::__1::char_traits<char>, std::__1::allocator<char>>::__short"*
  %22 = getelementptr inbounds %"struct.std::__1::basic_string<char, std::__1::char_traits<char>, std::__1::allocator<char>>::__short", %"struct.std::__1::basic_string<char, std::__1::char_traits<char>, std::__1::allocator<char>>::__short"* %21, i64 0, i32 1, i64 0
  br label %23

23:                                               ; preds = %17, %20
  %24 = phi i8* [ %19, %17 ], [ %22, %20 ]
  %25 = getelementptr inbounds i8, i8* %24, i64 %1
  ret i8* %25
}

; Function Attrs: uwtable
define weak_odr nonnull align 8 dereferenceable(24) %"class.std::__1::basic_string"* @_ZNSt3__112basic_stringIcNS_11char_traitsIcEENS_9allocatorIcEEE6insertEmPKcm(%"class.std::__1::basic_string"* %0, i64 %1, i8* %2, i64 %3) local_unnamed_addr #2 comdat align 2 personality i32 (...)* @__gxx_personality_v0 {
  %5 = bitcast %"class.std::__1::basic_string"* %0 to i8*
  %6 = load i8, i8* %5, align 8, !tbaa !3
  %7 = and i8 %6, 1
  %8 = icmp eq i8 %7, 0
  br i1 %8, label %9, label %13

9:                                                ; preds = %4
  %10 = lshr i8 %6, 1
  %11 = zext i8 %10 to i64
  %12 = icmp ult i64 %11, %1
  br i1 %12, label %17, label %24

13:                                               ; preds = %4
  %14 = getelementptr inbounds %"class.std::__1::basic_string", %"class.std::__1::basic_string"* %0, i64 0, i32 0, i32 0, i32 0, i32 0, i32 0, i32 1
  %15 = load i64, i64* %14, align 8, !tbaa !3
  %16 = icmp ult i64 %15, %1
  br i1 %16, label %17, label %19

17:                                               ; preds = %13, %9
  %18 = bitcast %"class.std::__1::basic_string"* %0 to %"class.std::__1::__basic_string_common"*
  tail call void @_ZNKSt3__121__basic_string_commonILb1EE20__throw_out_of_rangeEv(%"class.std::__1::__basic_string_common"* %18) #19
  unreachable

19:                                               ; preds = %13
  %20 = getelementptr inbounds %"class.std::__1::basic_string", %"class.std::__1::basic_string"* %0, i64 0, i32 0, i32 0, i32 0, i32 0, i32 0, i32 0
  %21 = load i64, i64* %20, align 8, !tbaa !3
  %22 = and i64 %21, -2
  %23 = add i64 %22, -1
  br label %24

24:                                               ; preds = %9, %19
  %25 = phi i64 [ %15, %19 ], [ %11, %9 ]
  %26 = phi i64 [ %23, %19 ], [ 22, %9 ]
  %27 = sub i64 %26, %25
  %28 = icmp ult i64 %27, %3
  br i1 %28, label %65, label %29

29:                                               ; preds = %24
  %30 = icmp eq i64 %3, 0
  br i1 %30, label %113, label %31

31:                                               ; preds = %29
  br i1 %8, label %35, label %32

32:                                               ; preds = %31
  %33 = getelementptr inbounds %"class.std::__1::basic_string", %"class.std::__1::basic_string"* %0, i64 0, i32 0, i32 0, i32 0, i32 0, i32 0, i32 2
  %34 = load i8*, i8** %33, align 8, !tbaa !3
  br label %38

35:                                               ; preds = %31
  %36 = bitcast %"class.std::__1::basic_string"* %0 to %"struct.std::__1::basic_string<char, std::__1::char_traits<char>, std::__1::allocator<char>>::__short"*
  %37 = getelementptr inbounds %"struct.std::__1::basic_string<char, std::__1::char_traits<char>, std::__1::allocator<char>>::__short", %"struct.std::__1::basic_string<char, std::__1::char_traits<char>, std::__1::allocator<char>>::__short"* %36, i64 0, i32 1, i64 0
  br label %38

38:                                               ; preds = %32, %35
  %39 = phi i8* [ %34, %32 ], [ %37, %35 ]
  %40 = sub i64 %25, %1
  %41 = icmp eq i64 %40, 0
  br i1 %41, label %51, label %42

42:                                               ; preds = %38
  %43 = getelementptr inbounds i8, i8* %39, i64 %1
  %44 = icmp ule i8* %43, %2
  %45 = getelementptr inbounds i8, i8* %39, i64 %25
  %46 = icmp ugt i8* %45, %2
  %47 = and i1 %44, %46
  %48 = getelementptr inbounds i8, i8* %2, i64 %3
  %49 = select i1 %47, i8* %48, i8* %2
  %50 = getelementptr inbounds i8, i8* %43, i64 %3
  tail call void @llvm.memmove.p0i8.p0i8.i64(i8* nonnull align 1 %50, i8* align 1 %43, i64 %40, i1 false) #20
  br label %51

51:                                               ; preds = %38, %42
  %52 = phi i8* [ %49, %42 ], [ %2, %38 ]
  %53 = getelementptr inbounds i8, i8* %39, i64 %1
  tail call void @llvm.memmove.p0i8.p0i8.i64(i8* align 1 %53, i8* align 1 %52, i64 %3, i1 false) #20
  %54 = add i64 %25, %3
  %55 = load i8, i8* %5, align 8, !tbaa !3
  %56 = and i8 %55, 1
  %57 = icmp eq i8 %56, 0
  br i1 %57, label %60, label %58

58:                                               ; preds = %51
  %59 = getelementptr inbounds %"class.std::__1::basic_string", %"class.std::__1::basic_string"* %0, i64 0, i32 0, i32 0, i32 0, i32 0, i32 0, i32 1
  store i64 %54, i64* %59, align 8, !tbaa !3
  br label %63

60:                                               ; preds = %51
  %61 = trunc i64 %54 to i8
  %62 = shl i8 %61, 1
  store i8 %62, i8* %5, align 8, !tbaa !3
  br label %63

63:                                               ; preds = %58, %60
  %64 = getelementptr inbounds i8, i8* %39, i64 %54
  br label %111

65:                                               ; preds = %24
  %66 = add i64 %25, %3
  %67 = sub i64 %66, %26
  %68 = sub i64 -18, %26
  %69 = icmp ult i64 %68, %67
  br i1 %69, label %70, label %72

70:                                               ; preds = %65
  %71 = bitcast %"class.std::__1::basic_string"* %0 to %"class.std::__1::__basic_string_common"*
  tail call void @_ZNKSt3__121__basic_string_commonILb1EE20__throw_length_errorEv(%"class.std::__1::__basic_string_common"* %71) #19
  unreachable

72:                                               ; preds = %65
  br i1 %8, label %76, label %73

73:                                               ; preds = %72
  %74 = getelementptr inbounds %"class.std::__1::basic_string", %"class.std::__1::basic_string"* %0, i64 0, i32 0, i32 0, i32 0, i32 0, i32 0, i32 2
  %75 = load i8*, i8** %74, align 8, !tbaa !3
  br label %79

76:                                               ; preds = %72
  %77 = bitcast %"class.std::__1::basic_string"* %0 to %"struct.std::__1::basic_string<char, std::__1::char_traits<char>, std::__1::allocator<char>>::__short"*
  %78 = getelementptr inbounds %"struct.std::__1::basic_string<char, std::__1::char_traits<char>, std::__1::allocator<char>>::__short", %"struct.std::__1::basic_string<char, std::__1::char_traits<char>, std::__1::allocator<char>>::__short"* %77, i64 0, i32 1, i64 0
  br label %79

79:                                               ; preds = %76, %73
  %80 = phi i8* [ %75, %73 ], [ %78, %76 ]
  %81 = icmp ult i64 %26, 9223372036854775783
  br i1 %81, label %82, label %90

82:                                               ; preds = %79
  %83 = shl nuw i64 %26, 1
  %84 = icmp ult i64 %66, %83
  %85 = select i1 %84, i64 %83, i64 %66
  %86 = add i64 %85, 16
  %87 = and i64 %86, -16
  %88 = icmp ult i64 %85, 23
  %89 = select i1 %88, i64 23, i64 %87
  br label %90

90:                                               ; preds = %82, %79
  %91 = phi i64 [ %89, %82 ], [ -17, %79 ]
  %92 = tail call noalias nonnull i8* @_Znwm(i64 %91) #21
  %93 = icmp eq i64 %1, 0
  br i1 %93, label %95, label %94

94:                                               ; preds = %90
  tail call void @llvm.memcpy.p0i8.p0i8.i64(i8* nonnull align 1 %92, i8* align 1 %80, i64 %1, i1 false) #20
  br label %95

95:                                               ; preds = %94, %90
  %96 = getelementptr inbounds i8, i8* %92, i64 %1
  tail call void @llvm.memcpy.p0i8.p0i8.i64(i8* nonnull align 1 %96, i8* align 1 %2, i64 %3, i1 false) #20
  %97 = sub i64 %25, %1
  %98 = icmp eq i64 %97, 0
  br i1 %98, label %102, label %99

99:                                               ; preds = %95
  %100 = getelementptr inbounds i8, i8* %96, i64 %3
  %101 = getelementptr inbounds i8, i8* %80, i64 %1
  tail call void @llvm.memcpy.p0i8.p0i8.i64(i8* nonnull align 1 %100, i8* align 1 %101, i64 %97, i1 false) #20
  br label %102

102:                                              ; preds = %99, %95
  %103 = icmp eq i64 %26, 22
  br i1 %103, label %105, label %104

104:                                              ; preds = %102
  tail call void @_ZdlPv(i8* %80) #22
  br label %105

105:                                              ; preds = %102, %104
  %106 = getelementptr inbounds %"class.std::__1::basic_string", %"class.std::__1::basic_string"* %0, i64 0, i32 0, i32 0, i32 0, i32 0, i32 0, i32 2
  store i8* %92, i8** %106, align 8, !tbaa !3
  %107 = or i64 %91, 1
  %108 = getelementptr inbounds %"class.std::__1::basic_string", %"class.std::__1::basic_string"* %0, i64 0, i32 0, i32 0, i32 0, i32 0, i32 0, i32 0
  store i64 %107, i64* %108, align 8, !tbaa !3
  %109 = getelementptr inbounds %"class.std::__1::basic_string", %"class.std::__1::basic_string"* %0, i64 0, i32 0, i32 0, i32 0, i32 0, i32 0, i32 1
  store i64 %66, i64* %109, align 8, !tbaa !3
  %110 = getelementptr inbounds i8, i8* %92, i64 %66
  br label %111

111:                                              ; preds = %105, %63
  %112 = phi i8* [ %64, %63 ], [ %110, %105 ]
  store i8 0, i8* %112, align 1, !tbaa !3
  br label %113

113:                                              ; preds = %111, %29
  ret %"class.std::__1::basic_string"* %0
}

; Function Attrs: nounwind uwtable
define weak_odr i64 @_ZNKSt3__112basic_stringIcNS_11char_traitsIcEENS_9allocatorIcEEE13find_first_ofEPKcmm(%"class.std::__1::basic_string"* %0, i8* %1, i64 %2, i64 %3) local_unnamed_addr #4 comdat align 2 personality i32 (...)* @__gxx_personality_v0 {
  %5 = bitcast %"class.std::__1::basic_string"* %0 to i8*
  %6 = load i8, i8* %5, align 8, !tbaa !3
  %7 = and i8 %6, 1
  %8 = icmp eq i8 %7, 0
  br i1 %8, label %14, label %9

9:                                                ; preds = %4
  %10 = getelementptr inbounds %"class.std::__1::basic_string", %"class.std::__1::basic_string"* %0, i64 0, i32 0, i32 0, i32 0, i32 0, i32 0, i32 2
  %11 = load i8*, i8** %10, align 8, !tbaa !3
  %12 = getelementptr inbounds %"class.std::__1::basic_string", %"class.std::__1::basic_string"* %0, i64 0, i32 0, i32 0, i32 0, i32 0, i32 0, i32 1
  %13 = load i64, i64* %12, align 8, !tbaa !3
  br label %19

14:                                               ; preds = %4
  %15 = bitcast %"class.std::__1::basic_string"* %0 to %"struct.std::__1::basic_string<char, std::__1::char_traits<char>, std::__1::allocator<char>>::__short"*
  %16 = getelementptr inbounds %"struct.std::__1::basic_string<char, std::__1::char_traits<char>, std::__1::allocator<char>>::__short", %"struct.std::__1::basic_string<char, std::__1::char_traits<char>, std::__1::allocator<char>>::__short"* %15, i64 0, i32 1, i64 0
  %17 = lshr i8 %6, 1
  %18 = zext i8 %17 to i64
  br label %19

19:                                               ; preds = %9, %14
  %20 = phi i8* [ %11, %9 ], [ %16, %14 ]
  %21 = phi i64 [ %13, %9 ], [ %18, %14 ]
  %22 = icmp ule i64 %21, %2
  %23 = icmp eq i64 %3, 0
  %24 = or i1 %23, %22
  br i1 %24, label %49, label %25

25:                                               ; preds = %19
  %26 = getelementptr inbounds i8, i8* %20, i64 %2
  %27 = getelementptr inbounds i8, i8* %20, i64 %21
  %28 = getelementptr inbounds i8, i8* %1, i64 %3
  br label %29

29:                                               ; preds = %39, %25
  %30 = phi i8* [ %40, %39 ], [ %26, %25 ]
  %31 = load i8, i8* %30, align 1, !tbaa !3
  br label %34

32:                                               ; preds = %34
  %33 = icmp eq i8* %38, %28
  br i1 %33, label %39, label %34

34:                                               ; preds = %32, %29
  %35 = phi i8* [ %1, %29 ], [ %38, %32 ]
  %36 = load i8, i8* %35, align 1, !tbaa !3
  %37 = icmp eq i8 %31, %36
  %38 = getelementptr inbounds i8, i8* %35, i64 1
  br i1 %37, label %42, label %32

39:                                               ; preds = %32
  %40 = getelementptr inbounds i8, i8* %30, i64 1
  %41 = icmp eq i8* %40, %27
  br i1 %41, label %42, label %29

42:                                               ; preds = %39, %34
  %43 = phi i8* [ %30, %34 ], [ %27, %39 ]
  %44 = icmp eq i8* %43, %27
  %45 = ptrtoint i8* %43 to i64
  %46 = ptrtoint i8* %20 to i64
  %47 = sub i64 %45, %46
  %48 = select i1 %44, i64 -1, i64 %47
  br label %49

49:                                               ; preds = %19, %42
  %50 = phi i64 [ -1, %19 ], [ %48, %42 ]
  ret i64 %50
}

; Function Attrs: uwtable
define weak_odr nonnull align 8 dereferenceable(24) %"class.std::__1::basic_string"* @_ZNSt3__112basic_stringIcNS_11char_traitsIcEENS_9allocatorIcEEE7replaceEmmmc(%"class.std::__1::basic_string"* %0, i64 %1, i64 %2, i64 %3, i8 signext %4) local_unnamed_addr #2 comdat align 2 personality i32 (...)* @__gxx_personality_v0 {
  %6 = bitcast %"class.std::__1::basic_string"* %0 to i8*
  %7 = load i8, i8* %6, align 8, !tbaa !3
  %8 = and i8 %7, 1
  %9 = icmp eq i8 %8, 0
  br i1 %9, label %10, label %14

10:                                               ; preds = %5
  %11 = lshr i8 %7, 1
  %12 = zext i8 %11 to i64
  %13 = icmp ult i64 %12, %1
  br i1 %13, label %18, label %20

14:                                               ; preds = %5
  %15 = getelementptr inbounds %"class.std::__1::basic_string", %"class.std::__1::basic_string"* %0, i64 0, i32 0, i32 0, i32 0, i32 0, i32 0, i32 1
  %16 = load i64, i64* %15, align 8, !tbaa !3
  %17 = icmp ult i64 %16, %1
  br i1 %17, label %18, label %27

18:                                               ; preds = %14, %10
  %19 = bitcast %"class.std::__1::basic_string"* %0 to %"class.std::__1::__basic_string_common"*
  tail call void @_ZNKSt3__121__basic_string_commonILb1EE20__throw_out_of_rangeEv(%"class.std::__1::__basic_string_common"* %19) #19
  unreachable

20:                                               ; preds = %10
  %21 = sub i64 %12, %1
  %22 = icmp ult i64 %21, %2
  %23 = select i1 %22, i64 %21, i64 %2
  %24 = sub nsw i64 22, %12
  %25 = add i64 %24, %23
  %26 = icmp ult i64 %25, %3
  br i1 %26, label %57, label %41

27:                                               ; preds = %14
  %28 = sub i64 %16, %1
  %29 = icmp ult i64 %28, %2
  %30 = select i1 %29, i64 %28, i64 %2
  %31 = getelementptr inbounds %"class.std::__1::basic_string", %"class.std::__1::basic_string"* %0, i64 0, i32 0, i32 0, i32 0, i32 0, i32 0, i32 0
  %32 = load i64, i64* %31, align 8, !tbaa !3
  %33 = and i64 %32, -2
  %34 = add i64 %33, -1
  %35 = sub i64 %30, %16
  %36 = add i64 %35, %34
  %37 = icmp ult i64 %36, %3
  br i1 %37, label %62, label %38

38:                                               ; preds = %27
  %39 = getelementptr inbounds %"class.std::__1::basic_string", %"class.std::__1::basic_string"* %0, i64 0, i32 0, i32 0, i32 0, i32 0, i32 0, i32 2
  %40 = load i8*, i8** %39, align 8, !tbaa !3
  br label %44

41:                                               ; preds = %20
  %42 = bitcast %"class.std::__1::basic_string"* %0 to %"struct.std::__1::basic_string<char, std::__1::char_traits<char>, std::__1::allocator<char>>::__short"*
  %43 = getelementptr inbounds %"struct.std::__1::basic_string<char, std::__1::char_traits<char>, std::__1::allocator<char>>::__short", %"struct.std::__1::basic_string<char, std::__1::char_traits<char>, std::__1::allocator<char>>::__short"* %42, i64 0, i32 1, i64 0
  br label %44

44:                                               ; preds = %38, %41
  %45 = phi i64 [ %30, %38 ], [ %23, %41 ]
  %46 = phi i64 [ %28, %38 ], [ %21, %41 ]
  %47 = phi i64 [ %16, %38 ], [ %12, %41 ]
  %48 = phi i8* [ %40, %38 ], [ %43, %41 ]
  %49 = icmp eq i64 %45, %3
  br i1 %49, label %116, label %50

50:                                               ; preds = %44
  %51 = sub i64 %46, %45
  %52 = icmp eq i64 %51, 0
  br i1 %52, label %116, label %53

53:                                               ; preds = %50
  %54 = getelementptr inbounds i8, i8* %48, i64 %1
  %55 = getelementptr inbounds i8, i8* %54, i64 %3
  %56 = getelementptr inbounds i8, i8* %54, i64 %45
  tail call void @llvm.memmove.p0i8.p0i8.i64(i8* align 1 %55, i8* align 1 %56, i64 %51, i1 false) #20
  br label %116

57:                                               ; preds = %20
  %58 = add i64 %3, -22
  %59 = add i64 %58, %12
  %60 = sub i64 %59, %23
  %61 = icmp ugt i64 %60, -39
  br i1 %61, label %68, label %70

62:                                               ; preds = %27
  %63 = add i64 %16, %3
  %64 = sub i64 %63, %30
  %65 = sub i64 %64, %34
  %66 = sub i64 -16, %33
  %67 = icmp ult i64 %66, %65
  br i1 %67, label %68, label %73

68:                                               ; preds = %62, %57
  %69 = bitcast %"class.std::__1::basic_string"* %0 to %"class.std::__1::__basic_string_common"*
  tail call void @_ZNKSt3__121__basic_string_commonILb1EE20__throw_length_errorEv(%"class.std::__1::__basic_string_common"* %69) #19
  unreachable

70:                                               ; preds = %57
  %71 = bitcast %"class.std::__1::basic_string"* %0 to %"struct.std::__1::basic_string<char, std::__1::char_traits<char>, std::__1::allocator<char>>::__short"*
  %72 = getelementptr inbounds %"struct.std::__1::basic_string<char, std::__1::char_traits<char>, std::__1::allocator<char>>::__short", %"struct.std::__1::basic_string<char, std::__1::char_traits<char>, std::__1::allocator<char>>::__short"* %71, i64 0, i32 1, i64 0
  br label %77

73:                                               ; preds = %62
  %74 = getelementptr inbounds %"class.std::__1::basic_string", %"class.std::__1::basic_string"* %0, i64 0, i32 0, i32 0, i32 0, i32 0, i32 0, i32 2
  %75 = load i8*, i8** %74, align 8, !tbaa !3
  %76 = icmp ult i64 %34, 9223372036854775783
  br i1 %76, label %77, label %91

77:                                               ; preds = %70, %73
  %78 = phi i8* [ %72, %70 ], [ %75, %73 ]
  %79 = phi i64 [ %60, %70 ], [ %65, %73 ]
  %80 = phi i64 [ %23, %70 ], [ %30, %73 ]
  %81 = phi i64 [ %12, %70 ], [ %16, %73 ]
  %82 = phi i64 [ 22, %70 ], [ %34, %73 ]
  %83 = add i64 %82, %79
  %84 = shl nuw i64 %82, 1
  %85 = icmp ult i64 %83, %84
  %86 = select i1 %85, i64 %84, i64 %83
  %87 = add i64 %86, 16
  %88 = and i64 %87, -16
  %89 = icmp ult i64 %86, 23
  %90 = select i1 %89, i64 23, i64 %88
  br label %91

91:                                               ; preds = %77, %73
  %92 = phi i8* [ %78, %77 ], [ %75, %73 ]
  %93 = phi i64 [ %80, %77 ], [ %30, %73 ]
  %94 = phi i64 [ %81, %77 ], [ %16, %73 ]
  %95 = phi i64 [ %82, %77 ], [ %34, %73 ]
  %96 = phi i64 [ %90, %77 ], [ -17, %73 ]
  %97 = tail call noalias nonnull i8* @_Znwm(i64 %96) #21
  %98 = icmp eq i64 %1, 0
  br i1 %98, label %100, label %99

99:                                               ; preds = %91
  tail call void @llvm.memcpy.p0i8.p0i8.i64(i8* nonnull align 1 %97, i8* align 1 %92, i64 %1, i1 false) #20
  br label %100

100:                                              ; preds = %99, %91
  %101 = sub i64 %94, %93
  %102 = sub i64 %101, %1
  %103 = icmp eq i64 %102, 0
  br i1 %103, label %109, label %104

104:                                              ; preds = %100
  %105 = getelementptr inbounds i8, i8* %97, i64 %1
  %106 = getelementptr inbounds i8, i8* %105, i64 %3
  %107 = getelementptr inbounds i8, i8* %92, i64 %1
  %108 = getelementptr inbounds i8, i8* %107, i64 %93
  tail call void @llvm.memcpy.p0i8.p0i8.i64(i8* nonnull align 1 %106, i8* align 1 %108, i64 %102, i1 false) #20
  br label %109

109:                                              ; preds = %104, %100
  %110 = icmp eq i64 %95, 22
  br i1 %110, label %112, label %111

111:                                              ; preds = %109
  tail call void @_ZdlPv(i8* %92) #22
  br label %112

112:                                              ; preds = %111, %109
  %113 = getelementptr inbounds %"class.std::__1::basic_string", %"class.std::__1::basic_string"* %0, i64 0, i32 0, i32 0, i32 0, i32 0, i32 0, i32 2
  store i8* %97, i8** %113, align 8, !tbaa !3
  %114 = or i64 %96, 1
  %115 = getelementptr inbounds %"class.std::__1::basic_string", %"class.std::__1::basic_string"* %0, i64 0, i32 0, i32 0, i32 0, i32 0, i32 0, i32 0
  store i64 %114, i64* %115, align 8, !tbaa !3
  br label %118

116:                                              ; preds = %53, %50, %44
  %117 = icmp eq i64 %3, 0
  br i1 %117, label %123, label %118

118:                                              ; preds = %112, %116
  %119 = phi i8* [ %97, %112 ], [ %48, %116 ]
  %120 = phi i64 [ %94, %112 ], [ %47, %116 ]
  %121 = phi i64 [ %93, %112 ], [ %45, %116 ]
  %122 = getelementptr inbounds i8, i8* %119, i64 %1
  tail call void @llvm.memset.p0i8.i64(i8* align 1 %122, i8 %4, i64 %3, i1 false) #20
  br label %123

123:                                              ; preds = %116, %118
  %124 = phi i8* [ %48, %116 ], [ %119, %118 ]
  %125 = phi i64 [ %47, %116 ], [ %120, %118 ]
  %126 = phi i64 [ %45, %116 ], [ %121, %118 ]
  %127 = sub i64 %3, %126
  %128 = add i64 %127, %125
  %129 = load i8, i8* %6, align 8, !tbaa !3
  %130 = and i8 %129, 1
  %131 = icmp eq i8 %130, 0
  br i1 %131, label %134, label %132

132:                                              ; preds = %123
  %133 = getelementptr inbounds %"class.std::__1::basic_string", %"class.std::__1::basic_string"* %0, i64 0, i32 0, i32 0, i32 0, i32 0, i32 0, i32 1
  store i64 %128, i64* %133, align 8, !tbaa !3
  br label %137

134:                                              ; preds = %123
  %135 = trunc i64 %128 to i8
  %136 = shl i8 %135, 1
  store i8 %136, i8* %6, align 8, !tbaa !3
  br label %137

137:                                              ; preds = %132, %134
  %138 = getelementptr inbounds i8, i8* %124, i64 %128
  store i8 0, i8* %138, align 1, !tbaa !3
  ret %"class.std::__1::basic_string"* %0
}

; Function Attrs: uwtable
define weak_odr nonnull align 8 dereferenceable(24) %"class.std::__1::basic_string"* @_ZNSt3__112basic_stringIcNS_11char_traitsIcEENS_9allocatorIcEEE6assignEPKcm(%"class.std::__1::basic_string"* %0, i8* %1, i64 %2) local_unnamed_addr #2 comdat align 2 {
  %4 = tail call nonnull align 8 dereferenceable(24) %"class.std::__1::basic_string"* @_ZNSt3__112basic_stringIcNS_11char_traitsIcEENS_9allocatorIcEEE17__assign_externalEPKcm(%"class.std::__1::basic_string"* %0, i8* %1, i64 %2)
  ret %"class.std::__1::basic_string"* %4
}

; Function Attrs: uwtable
define linkonce_odr hidden nonnull align 8 dereferenceable(24) %"class.std::__1::basic_string"* @_ZNSt3__112basic_stringIcNS_11char_traitsIcEENS_9allocatorIcEEE17__assign_externalEPKcm(%"class.std::__1::basic_string"* %0, i8* %1, i64 %2) local_unnamed_addr #2 comdat align 2 personality i32 (...)* @__gxx_personality_v0 {
  %4 = bitcast %"class.std::__1::basic_string"* %0 to i8*
  %5 = load i8, i8* %4, align 8, !tbaa !3
  %6 = and i8 %5, 1
  %7 = icmp eq i8 %6, 0
  br i1 %7, label %8, label %10

8:                                                ; preds = %3
  %9 = icmp ugt i64 %2, 22
  br i1 %9, label %36, label %19

10:                                               ; preds = %3
  %11 = getelementptr inbounds %"class.std::__1::basic_string", %"class.std::__1::basic_string"* %0, i64 0, i32 0, i32 0, i32 0, i32 0, i32 0, i32 0
  %12 = load i64, i64* %11, align 8, !tbaa !3
  %13 = and i64 %12, -2
  %14 = add i64 %13, -1
  %15 = icmp ult i64 %14, %2
  br i1 %15, label %39, label %16

16:                                               ; preds = %10
  %17 = getelementptr inbounds %"class.std::__1::basic_string", %"class.std::__1::basic_string"* %0, i64 0, i32 0, i32 0, i32 0, i32 0, i32 0, i32 2
  %18 = load i8*, i8** %17, align 8, !tbaa !3
  br label %22

19:                                               ; preds = %8
  %20 = bitcast %"class.std::__1::basic_string"* %0 to %"struct.std::__1::basic_string<char, std::__1::char_traits<char>, std::__1::allocator<char>>::__short"*
  %21 = getelementptr inbounds %"struct.std::__1::basic_string<char, std::__1::char_traits<char>, std::__1::allocator<char>>::__short", %"struct.std::__1::basic_string<char, std::__1::char_traits<char>, std::__1::allocator<char>>::__short"* %20, i64 0, i32 1, i64 0
  br label %22

22:                                               ; preds = %16, %19
  %23 = phi i8* [ %18, %16 ], [ %21, %19 ]
  %24 = icmp eq i64 %2, 0
  br i1 %24, label %26, label %25

25:                                               ; preds = %22
  tail call void @llvm.memmove.p0i8.p0i8.i64(i8* align 1 %23, i8* align 1 %1, i64 %2, i1 false) #20
  br label %26

26:                                               ; preds = %22, %25
  %27 = getelementptr inbounds i8, i8* %23, i64 %2
  store i8 0, i8* %27, align 1, !tbaa !3
  %28 = load i8, i8* %4, align 8, !tbaa !3
  %29 = and i8 %28, 1
  %30 = icmp eq i8 %29, 0
  br i1 %30, label %33, label %31

31:                                               ; preds = %26
  %32 = getelementptr inbounds %"class.std::__1::basic_string", %"class.std::__1::basic_string"* %0, i64 0, i32 0, i32 0, i32 0, i32 0, i32 0, i32 1
  store i64 %2, i64* %32, align 8, !tbaa !3
  br label %75

33:                                               ; preds = %26
  %34 = trunc i64 %2 to i8
  %35 = shl i8 %34, 1
  store i8 %35, i8* %4, align 8, !tbaa !3
  br label %75

36:                                               ; preds = %8
  %37 = add i64 %2, -22
  %38 = icmp ugt i64 %37, -40
  br i1 %38, label %43, label %45

39:                                               ; preds = %10
  %40 = sub i64 %2, %14
  %41 = sub i64 -17, %13
  %42 = icmp ult i64 %41, %40
  br i1 %42, label %43, label %48

43:                                               ; preds = %39, %36
  %44 = bitcast %"class.std::__1::basic_string"* %0 to %"class.std::__1::__basic_string_common"*
  tail call void @_ZNKSt3__121__basic_string_commonILb1EE20__throw_length_errorEv(%"class.std::__1::__basic_string_common"* %44) #19
  unreachable

45:                                               ; preds = %36
  %46 = bitcast %"class.std::__1::basic_string"* %0 to %"struct.std::__1::basic_string<char, std::__1::char_traits<char>, std::__1::allocator<char>>::__short"*
  %47 = getelementptr inbounds %"struct.std::__1::basic_string<char, std::__1::char_traits<char>, std::__1::allocator<char>>::__short", %"struct.std::__1::basic_string<char, std::__1::char_traits<char>, std::__1::allocator<char>>::__short"* %46, i64 0, i32 1, i64 0
  br label %52

48:                                               ; preds = %39
  %49 = getelementptr inbounds %"class.std::__1::basic_string", %"class.std::__1::basic_string"* %0, i64 0, i32 0, i32 0, i32 0, i32 0, i32 0, i32 2
  %50 = load i8*, i8** %49, align 8, !tbaa !3
  %51 = icmp ult i64 %14, 9223372036854775783
  br i1 %51, label %52, label %62

52:                                               ; preds = %45, %48
  %53 = phi i8* [ %47, %45 ], [ %50, %48 ]
  %54 = phi i64 [ 22, %45 ], [ %14, %48 ]
  %55 = shl nuw i64 %54, 1
  %56 = icmp ugt i64 %55, %2
  %57 = select i1 %56, i64 %55, i64 %2
  %58 = add i64 %57, 16
  %59 = and i64 %58, -16
  %60 = icmp ult i64 %57, 23
  %61 = select i1 %60, i64 23, i64 %59
  br label %62

62:                                               ; preds = %52, %48
  %63 = phi i8* [ %53, %52 ], [ %50, %48 ]
  %64 = phi i64 [ %54, %52 ], [ %14, %48 ]
  %65 = phi i64 [ %61, %52 ], [ -17, %48 ]
  %66 = tail call noalias nonnull i8* @_Znwm(i64 %65) #21
  tail call void @llvm.memcpy.p0i8.p0i8.i64(i8* nonnull align 1 %66, i8* align 1 %1, i64 %2, i1 false) #20
  %67 = icmp eq i64 %64, 22
  br i1 %67, label %69, label %68

68:                                               ; preds = %62
  tail call void @_ZdlPv(i8* %63) #22
  br label %69

69:                                               ; preds = %62, %68
  %70 = getelementptr inbounds %"class.std::__1::basic_string", %"class.std::__1::basic_string"* %0, i64 0, i32 0, i32 0, i32 0, i32 0, i32 0, i32 2
  store i8* %66, i8** %70, align 8, !tbaa !3
  %71 = or i64 %65, 1
  %72 = getelementptr inbounds %"class.std::__1::basic_string", %"class.std::__1::basic_string"* %0, i64 0, i32 0, i32 0, i32 0, i32 0, i32 0, i32 0
  store i64 %71, i64* %72, align 8, !tbaa !3
  %73 = getelementptr inbounds %"class.std::__1::basic_string", %"class.std::__1::basic_string"* %0, i64 0, i32 0, i32 0, i32 0, i32 0, i32 0, i32 1
  store i64 %2, i64* %73, align 8, !tbaa !3
  %74 = getelementptr inbounds i8, i8* %66, i64 %2
  store i8 0, i8* %74, align 1, !tbaa !3
  br label %75

75:                                               ; preds = %33, %31, %69
  ret %"class.std::__1::basic_string"* %0
}

; Function Attrs: uwtable
define weak_odr void @_ZNSt3__112basic_stringIcNS_11char_traitsIcEENS_9allocatorIcEEE7reserveEm(%"class.std::__1::basic_string"* %0, i64 %1) local_unnamed_addr #2 comdat align 2 {
  %3 = icmp ugt i64 %1, -17
  br i1 %3, label %4, label %6

4:                                                ; preds = %2
  %5 = bitcast %"class.std::__1::basic_string"* %0 to %"class.std::__1::__basic_string_common"*
  tail call void @_ZNKSt3__121__basic_string_commonILb1EE20__throw_length_errorEv(%"class.std::__1::__basic_string_common"* %5) #19
  unreachable

6:                                                ; preds = %2
  %7 = bitcast %"class.std::__1::basic_string"* %0 to i8*
  %8 = load i8, i8* %7, align 8, !tbaa !3
  %9 = and i8 %8, 1
  %10 = icmp eq i8 %9, 0
  br i1 %10, label %11, label %13

11:                                               ; preds = %6
  %12 = icmp ugt i64 %1, 22
  br i1 %12, label %22, label %43

13:                                               ; preds = %6
  %14 = getelementptr inbounds %"class.std::__1::basic_string", %"class.std::__1::basic_string"* %0, i64 0, i32 0, i32 0, i32 0, i32 0, i32 0, i32 0
  %15 = load i64, i64* %14, align 8, !tbaa !3
  %16 = and i64 %15, -2
  %17 = add i64 %16, -1
  %18 = icmp ult i64 %17, %1
  br i1 %18, label %19, label %43

19:                                               ; preds = %13
  %20 = getelementptr inbounds %"class.std::__1::basic_string", %"class.std::__1::basic_string"* %0, i64 0, i32 0, i32 0, i32 0, i32 0, i32 0, i32 1
  %21 = load i64, i64* %20, align 8, !tbaa !3
  br label %25

22:                                               ; preds = %11
  %23 = lshr i8 %8, 1
  %24 = zext i8 %23 to i64
  br label %25

25:                                               ; preds = %19, %22
  %26 = phi i64 [ %21, %19 ], [ %24, %22 ]
  %27 = icmp ugt i64 %26, %1
  %28 = select i1 %27, i64 %26, i64 %1
  %29 = add i64 %28, 16
  %30 = and i64 %29, -16
  %31 = add i64 %30, -1
  %32 = icmp ugt i64 %28, 22
  %33 = select i1 %32, i64 %31, i64 22
  br i1 %10, label %39, label %34

34:                                               ; preds = %25
  %35 = getelementptr inbounds %"class.std::__1::basic_string", %"class.std::__1::basic_string"* %0, i64 0, i32 0, i32 0, i32 0, i32 0, i32 0, i32 0
  %36 = load i64, i64* %35, align 8, !tbaa !3
  %37 = and i64 %36, -2
  %38 = add i64 %37, -1
  br label %39

39:                                               ; preds = %25, %34
  %40 = phi i64 [ %38, %34 ], [ 22, %25 ]
  %41 = icmp eq i64 %33, %40
  br i1 %41, label %43, label %42

42:                                               ; preds = %39
  tail call void @_ZNSt3__112basic_stringIcNS_11char_traitsIcEENS_9allocatorIcEEE18__shrink_or_extendEm(%"class.std::__1::basic_string"* nonnull %0, i64 %33)
  br label %43

43:                                               ; preds = %13, %42, %39, %11
  ret void
}

; Function Attrs: uwtable
define linkonce_odr hidden void @_ZNSt3__112basic_stringIcNS_11char_traitsIcEENS_9allocatorIcEEE18__shrink_or_extendEm(%"class.std::__1::basic_string"* %0, i64 %1) local_unnamed_addr #2 comdat align 2 personality i8* bitcast (i32 (...)* @__gxx_personality_v0 to i8*) {
  %3 = bitcast %"class.std::__1::basic_string"* %0 to i8*
  %4 = load i8, i8* %3, align 8, !tbaa !3
  %5 = and i8 %4, 1
  %6 = icmp eq i8 %5, 0
  br i1 %6, label %7, label %11

7:                                                ; preds = %2
  %8 = lshr i8 %4, 1
  %9 = zext i8 %8 to i64
  %10 = icmp eq i64 %1, 22
  br i1 %10, label %45, label %22

11:                                               ; preds = %2
  %12 = getelementptr inbounds %"class.std::__1::basic_string", %"class.std::__1::basic_string"* %0, i64 0, i32 0, i32 0, i32 0, i32 0, i32 0, i32 0
  %13 = load i64, i64* %12, align 8, !tbaa !3
  %14 = and i64 %13, -2
  %15 = add i64 %14, -1
  %16 = getelementptr inbounds %"class.std::__1::basic_string", %"class.std::__1::basic_string"* %0, i64 0, i32 0, i32 0, i32 0, i32 0, i32 0, i32 1
  %17 = load i64, i64* %16, align 8, !tbaa !3
  %18 = icmp eq i64 %1, 22
  br i1 %18, label %19, label %22

19:                                               ; preds = %11
  %20 = bitcast %"class.std::__1::basic_string"* %0 to %"struct.std::__1::basic_string<char, std::__1::char_traits<char>, std::__1::allocator<char>>::__short"*
  %21 = getelementptr inbounds %"struct.std::__1::basic_string<char, std::__1::char_traits<char>, std::__1::allocator<char>>::__short", %"struct.std::__1::basic_string<char, std::__1::char_traits<char>, std::__1::allocator<char>>::__short"* %20, i64 0, i32 1, i64 0
  br label %50

22:                                               ; preds = %11, %7
  %23 = phi i64 [ %17, %11 ], [ %9, %7 ]
  %24 = phi i64 [ %15, %11 ], [ 22, %7 ]
  %25 = icmp ult i64 %24, %1
  %26 = add i64 %1, 1
  br i1 %25, label %27, label %29

27:                                               ; preds = %22
  %28 = tail call noalias nonnull i8* @_Znwm(i64 %26) #21
  br label %35

29:                                               ; preds = %22
  %30 = invoke noalias nonnull i8* @_Znwm(i64 %26) #21
          to label %35 unwind label %31

31:                                               ; preds = %29
  %32 = landingpad { i8*, i32 }
          catch i8* null
  %33 = extractvalue { i8*, i32 } %32, 0
  %34 = tail call i8* @__cxa_begin_catch(i8* %33) #20
  tail call void @__cxa_end_catch()
  br label %79

35:                                               ; preds = %29, %27
  %36 = phi i8* [ %28, %27 ], [ %30, %29 ]
  br i1 %6, label %40, label %37

37:                                               ; preds = %35
  %38 = getelementptr inbounds %"class.std::__1::basic_string", %"class.std::__1::basic_string"* %0, i64 0, i32 0, i32 0, i32 0, i32 0, i32 0, i32 1
  %39 = load i64, i64* %38, align 8, !tbaa !3
  br label %50

40:                                               ; preds = %35
  %41 = bitcast %"class.std::__1::basic_string"* %0 to %"struct.std::__1::basic_string<char, std::__1::char_traits<char>, std::__1::allocator<char>>::__short"*
  %42 = getelementptr inbounds %"struct.std::__1::basic_string<char, std::__1::char_traits<char>, std::__1::allocator<char>>::__short", %"struct.std::__1::basic_string<char, std::__1::char_traits<char>, std::__1::allocator<char>>::__short"* %41, i64 0, i32 1, i64 0
  %43 = lshr i8 %4, 1
  %44 = zext i8 %43 to i64
  br label %57

45:                                               ; preds = %7
  %46 = bitcast %"class.std::__1::basic_string"* %0 to %"struct.std::__1::basic_string<char, std::__1::char_traits<char>, std::__1::allocator<char>>::__short"*
  %47 = getelementptr inbounds %"struct.std::__1::basic_string<char, std::__1::char_traits<char>, std::__1::allocator<char>>::__short", %"struct.std::__1::basic_string<char, std::__1::char_traits<char>, std::__1::allocator<char>>::__short"* %46, i64 0, i32 1, i64 0
  %48 = getelementptr inbounds %"class.std::__1::basic_string", %"class.std::__1::basic_string"* %0, i64 0, i32 0, i32 0, i32 0, i32 0, i32 0, i32 2
  %49 = load i8*, i8** %48, align 8, !tbaa !3
  br label %57

50:                                               ; preds = %37, %19
  %51 = phi i64 [ %17, %19 ], [ %39, %37 ]
  %52 = phi i64 [ %17, %19 ], [ %23, %37 ]
  %53 = phi i8* [ %21, %19 ], [ %36, %37 ]
  %54 = phi i1 [ false, %19 ], [ true, %37 ]
  %55 = getelementptr inbounds %"class.std::__1::basic_string", %"class.std::__1::basic_string"* %0, i64 0, i32 0, i32 0, i32 0, i32 0, i32 0, i32 2
  %56 = load i8*, i8** %55, align 8, !tbaa !3
  br label %57

57:                                               ; preds = %40, %45, %50
  %58 = phi i64 [ %52, %50 ], [ %9, %45 ], [ %23, %40 ]
  %59 = phi i8* [ %53, %50 ], [ %47, %45 ], [ %36, %40 ]
  %60 = phi i8* [ %56, %50 ], [ %49, %45 ], [ %42, %40 ]
  %61 = phi i1 [ %54, %50 ], [ false, %45 ], [ true, %40 ]
  %62 = phi i1 [ true, %50 ], [ true, %45 ], [ false, %40 ]
  %63 = phi i64 [ %51, %50 ], [ %9, %45 ], [ %44, %40 ]
  %64 = add i64 %63, 1
  %65 = icmp eq i64 %64, 0
  br i1 %65, label %67, label %66

66:                                               ; preds = %57
  tail call void @llvm.memcpy.p0i8.p0i8.i64(i8* nonnull align 1 %59, i8* align 1 %60, i64 %64, i1 false) #20
  br label %67

67:                                               ; preds = %57, %66
  br i1 %62, label %68, label %69

68:                                               ; preds = %67
  tail call void @_ZdlPv(i8* %60) #22
  br label %69

69:                                               ; preds = %68, %67
  br i1 %61, label %70, label %76

70:                                               ; preds = %69
  %71 = add i64 %1, 1
  %72 = or i64 %71, 1
  %73 = getelementptr inbounds %"class.std::__1::basic_string", %"class.std::__1::basic_string"* %0, i64 0, i32 0, i32 0, i32 0, i32 0, i32 0, i32 0
  store i64 %72, i64* %73, align 8, !tbaa !3
  %74 = getelementptr inbounds %"class.std::__1::basic_string", %"class.std::__1::basic_string"* %0, i64 0, i32 0, i32 0, i32 0, i32 0, i32 0, i32 1
  store i64 %58, i64* %74, align 8, !tbaa !3
  %75 = getelementptr inbounds %"class.std::__1::basic_string", %"class.std::__1::basic_string"* %0, i64 0, i32 0, i32 0, i32 0, i32 0, i32 0, i32 2
  store i8* %59, i8** %75, align 8, !tbaa !3
  br label %79

76:                                               ; preds = %69
  %77 = trunc i64 %58 to i8
  %78 = shl i8 %77, 1
  store i8 %78, i8* %3, align 8, !tbaa !3
  br label %79

79:                                               ; preds = %70, %76, %31
  ret void
}

; Function Attrs: uwtable
define weak_odr nonnull align 8 dereferenceable(24) %"class.std::__1::basic_string"* @_ZNSt3__112basic_stringIcNS_11char_traitsIcEENS_9allocatorIcEEE6appendEPKcm(%"class.std::__1::basic_string"* %0, i8* %1, i64 %2) local_unnamed_addr #2 comdat align 2 personality i32 (...)* @__gxx_personality_v0 {
  %4 = bitcast %"class.std::__1::basic_string"* %0 to i8*
  %5 = load i8, i8* %4, align 8, !tbaa !3
  %6 = and i8 %5, 1
  %7 = icmp eq i8 %6, 0
  br i1 %7, label %15, label %8

8:                                                ; preds = %3
  %9 = getelementptr inbounds %"class.std::__1::basic_string", %"class.std::__1::basic_string"* %0, i64 0, i32 0, i32 0, i32 0, i32 0, i32 0, i32 0
  %10 = load i64, i64* %9, align 8, !tbaa !3
  %11 = and i64 %10, -2
  %12 = add i64 %11, -1
  %13 = getelementptr inbounds %"class.std::__1::basic_string", %"class.std::__1::basic_string"* %0, i64 0, i32 0, i32 0, i32 0, i32 0, i32 0, i32 1
  %14 = load i64, i64* %13, align 8, !tbaa !3
  br label %18

15:                                               ; preds = %3
  %16 = lshr i8 %5, 1
  %17 = zext i8 %16 to i64
  br label %18

18:                                               ; preds = %8, %15
  %19 = phi i64 [ %12, %8 ], [ 22, %15 ]
  %20 = phi i64 [ %14, %8 ], [ %17, %15 ]
  %21 = sub i64 %19, %20
  %22 = icmp ult i64 %21, %2
  br i1 %22, label %46, label %23

23:                                               ; preds = %18
  %24 = icmp eq i64 %2, 0
  br i1 %24, label %88, label %25

25:                                               ; preds = %23
  br i1 %7, label %29, label %26

26:                                               ; preds = %25
  %27 = getelementptr inbounds %"class.std::__1::basic_string", %"class.std::__1::basic_string"* %0, i64 0, i32 0, i32 0, i32 0, i32 0, i32 0, i32 2
  %28 = load i8*, i8** %27, align 8, !tbaa !3
  br label %32

29:                                               ; preds = %25
  %30 = bitcast %"class.std::__1::basic_string"* %0 to %"struct.std::__1::basic_string<char, std::__1::char_traits<char>, std::__1::allocator<char>>::__short"*
  %31 = getelementptr inbounds %"struct.std::__1::basic_string<char, std::__1::char_traits<char>, std::__1::allocator<char>>::__short", %"struct.std::__1::basic_string<char, std::__1::char_traits<char>, std::__1::allocator<char>>::__short"* %30, i64 0, i32 1, i64 0
  br label %32

32:                                               ; preds = %26, %29
  %33 = phi i8* [ %28, %26 ], [ %31, %29 ]
  %34 = getelementptr inbounds i8, i8* %33, i64 %20
  tail call void @llvm.memcpy.p0i8.p0i8.i64(i8* align 1 %34, i8* align 1 %1, i64 %2, i1 false) #20
  %35 = add i64 %20, %2
  %36 = load i8, i8* %4, align 8, !tbaa !3
  %37 = and i8 %36, 1
  %38 = icmp eq i8 %37, 0
  br i1 %38, label %41, label %39

39:                                               ; preds = %32
  %40 = getelementptr inbounds %"class.std::__1::basic_string", %"class.std::__1::basic_string"* %0, i64 0, i32 0, i32 0, i32 0, i32 0, i32 0, i32 1
  store i64 %35, i64* %40, align 8, !tbaa !3
  br label %44

41:                                               ; preds = %32
  %42 = trunc i64 %35 to i8
  %43 = shl i8 %42, 1
  store i8 %43, i8* %4, align 8, !tbaa !3
  br label %44

44:                                               ; preds = %39, %41
  %45 = getelementptr inbounds i8, i8* %33, i64 %35
  br label %86

46:                                               ; preds = %18
  %47 = add i64 %20, %2
  %48 = sub i64 %47, %19
  %49 = sub i64 -18, %19
  %50 = icmp ult i64 %49, %48
  br i1 %50, label %51, label %53

51:                                               ; preds = %46
  %52 = bitcast %"class.std::__1::basic_string"* %0 to %"class.std::__1::__basic_string_common"*
  tail call void @_ZNKSt3__121__basic_string_commonILb1EE20__throw_length_errorEv(%"class.std::__1::__basic_string_common"* %52) #19
  unreachable

53:                                               ; preds = %46
  br i1 %7, label %57, label %54

54:                                               ; preds = %53
  %55 = getelementptr inbounds %"class.std::__1::basic_string", %"class.std::__1::basic_string"* %0, i64 0, i32 0, i32 0, i32 0, i32 0, i32 0, i32 2
  %56 = load i8*, i8** %55, align 8, !tbaa !3
  br label %60

57:                                               ; preds = %53
  %58 = bitcast %"class.std::__1::basic_string"* %0 to %"struct.std::__1::basic_string<char, std::__1::char_traits<char>, std::__1::allocator<char>>::__short"*
  %59 = getelementptr inbounds %"struct.std::__1::basic_string<char, std::__1::char_traits<char>, std::__1::allocator<char>>::__short", %"struct.std::__1::basic_string<char, std::__1::char_traits<char>, std::__1::allocator<char>>::__short"* %58, i64 0, i32 1, i64 0
  br label %60

60:                                               ; preds = %57, %54
  %61 = phi i8* [ %56, %54 ], [ %59, %57 ]
  %62 = icmp ult i64 %19, 9223372036854775783
  br i1 %62, label %63, label %71

63:                                               ; preds = %60
  %64 = shl nuw i64 %19, 1
  %65 = icmp ult i64 %47, %64
  %66 = select i1 %65, i64 %64, i64 %47
  %67 = add i64 %66, 16
  %68 = and i64 %67, -16
  %69 = icmp ult i64 %66, 23
  %70 = select i1 %69, i64 23, i64 %68
  br label %71

71:                                               ; preds = %63, %60
  %72 = phi i64 [ %70, %63 ], [ -17, %60 ]
  %73 = tail call noalias nonnull i8* @_Znwm(i64 %72) #21
  %74 = icmp eq i64 %20, 0
  br i1 %74, label %76, label %75

75:                                               ; preds = %71
  tail call void @llvm.memcpy.p0i8.p0i8.i64(i8* nonnull align 1 %73, i8* align 1 %61, i64 %20, i1 false) #20
  br label %76

76:                                               ; preds = %75, %71
  %77 = getelementptr inbounds i8, i8* %73, i64 %20
  tail call void @llvm.memcpy.p0i8.p0i8.i64(i8* nonnull align 1 %77, i8* align 1 %1, i64 %2, i1 false) #20
  %78 = icmp eq i64 %19, 22
  br i1 %78, label %80, label %79

79:                                               ; preds = %76
  tail call void @_ZdlPv(i8* %61) #22
  br label %80

80:                                               ; preds = %76, %79
  %81 = getelementptr inbounds %"class.std::__1::basic_string", %"class.std::__1::basic_string"* %0, i64 0, i32 0, i32 0, i32 0, i32 0, i32 0, i32 2
  store i8* %73, i8** %81, align 8, !tbaa !3
  %82 = or i64 %72, 1
  %83 = getelementptr inbounds %"class.std::__1::basic_string", %"class.std::__1::basic_string"* %0, i64 0, i32 0, i32 0, i32 0, i32 0, i32 0, i32 0
  store i64 %82, i64* %83, align 8, !tbaa !3
  %84 = getelementptr inbounds %"class.std::__1::basic_string", %"class.std::__1::basic_string"* %0, i64 0, i32 0, i32 0, i32 0, i32 0, i32 0, i32 1
  store i64 %47, i64* %84, align 8, !tbaa !3
  %85 = getelementptr inbounds i8, i8* %73, i64 %47
  br label %86

86:                                               ; preds = %80, %44
  %87 = phi i8* [ %45, %44 ], [ %85, %80 ]
  store i8 0, i8* %87, align 1, !tbaa !3
  br label %88

88:                                               ; preds = %86, %23
  ret %"class.std::__1::basic_string"* %0
}

; Function Attrs: uwtable
define weak_odr nonnull align 8 dereferenceable(24) %"class.std::__1::basic_string"* @_ZNSt3__112basic_stringIcNS_11char_traitsIcEENS_9allocatorIcEEE6assignERKS5_mm(%"class.std::__1::basic_string"* %0, %"class.std::__1::basic_string"* nonnull align 8 dereferenceable(24) %1, i64 %2, i64 %3) local_unnamed_addr #2 comdat align 2 {
  %5 = bitcast %"class.std::__1::basic_string"* %1 to i8*
  %6 = load i8, i8* %5, align 8, !tbaa !3
  %7 = and i8 %6, 1
  %8 = icmp eq i8 %7, 0
  br i1 %8, label %9, label %13

9:                                                ; preds = %4
  %10 = lshr i8 %6, 1
  %11 = zext i8 %10 to i64
  %12 = icmp ult i64 %11, %2
  br i1 %12, label %17, label %22

13:                                               ; preds = %4
  %14 = getelementptr inbounds %"class.std::__1::basic_string", %"class.std::__1::basic_string"* %1, i64 0, i32 0, i32 0, i32 0, i32 0, i32 0, i32 1
  %15 = load i64, i64* %14, align 8, !tbaa !3
  %16 = icmp ult i64 %15, %2
  br i1 %16, label %17, label %19

17:                                               ; preds = %13, %9
  %18 = bitcast %"class.std::__1::basic_string"* %0 to %"class.std::__1::__basic_string_common"*
  tail call void @_ZNKSt3__121__basic_string_commonILb1EE20__throw_out_of_rangeEv(%"class.std::__1::__basic_string_common"* %18) #19
  unreachable

19:                                               ; preds = %13
  %20 = getelementptr inbounds %"class.std::__1::basic_string", %"class.std::__1::basic_string"* %1, i64 0, i32 0, i32 0, i32 0, i32 0, i32 0, i32 2
  %21 = load i8*, i8** %20, align 8, !tbaa !3
  br label %25

22:                                               ; preds = %9
  %23 = bitcast %"class.std::__1::basic_string"* %1 to %"struct.std::__1::basic_string<char, std::__1::char_traits<char>, std::__1::allocator<char>>::__short"*
  %24 = getelementptr inbounds %"struct.std::__1::basic_string<char, std::__1::char_traits<char>, std::__1::allocator<char>>::__short", %"struct.std::__1::basic_string<char, std::__1::char_traits<char>, std::__1::allocator<char>>::__short"* %23, i64 0, i32 1, i64 0
  br label %25

25:                                               ; preds = %19, %22
  %26 = phi i64 [ %15, %19 ], [ %11, %22 ]
  %27 = phi i8* [ %21, %19 ], [ %24, %22 ]
  %28 = sub i64 %26, %2
  %29 = icmp ult i64 %28, %3
  %30 = select i1 %29, i64 %28, i64 %3
  %31 = getelementptr inbounds i8, i8* %27, i64 %2
  %32 = tail call nonnull align 8 dereferenceable(24) %"class.std::__1::basic_string"* @_ZNSt3__112basic_stringIcNS_11char_traitsIcEENS_9allocatorIcEEE17__assign_externalEPKcm(%"class.std::__1::basic_string"* %0, i8* %31, i64 %30)
  ret %"class.std::__1::basic_string"* %32
}

; Function Attrs: uwtable
define weak_odr i64 @_ZNKSt3__112basic_stringIcNS_11char_traitsIcEENS_9allocatorIcEEE4copyEPcmm(%"class.std::__1::basic_string"* %0, i8* %1, i64 %2, i64 %3) local_unnamed_addr #2 comdat align 2 {
  %5 = bitcast %"class.std::__1::basic_string"* %0 to i8*
  %6 = load i8, i8* %5, align 8, !tbaa !3
  %7 = and i8 %6, 1
  %8 = icmp eq i8 %7, 0
  br i1 %8, label %9, label %13

9:                                                ; preds = %4
  %10 = lshr i8 %6, 1
  %11 = zext i8 %10 to i64
  %12 = icmp ult i64 %11, %3
  br i1 %12, label %17, label %25

13:                                               ; preds = %4
  %14 = getelementptr inbounds %"class.std::__1::basic_string", %"class.std::__1::basic_string"* %0, i64 0, i32 0, i32 0, i32 0, i32 0, i32 0, i32 1
  %15 = load i64, i64* %14, align 8, !tbaa !3
  %16 = icmp ult i64 %15, %3
  br i1 %16, label %17, label %19

17:                                               ; preds = %13, %9
  %18 = bitcast %"class.std::__1::basic_string"* %0 to %"class.std::__1::__basic_string_common"*
  tail call void @_ZNKSt3__121__basic_string_commonILb1EE20__throw_out_of_rangeEv(%"class.std::__1::__basic_string_common"* %18) #19
  unreachable

19:                                               ; preds = %13
  %20 = sub i64 %15, %3
  %21 = icmp ult i64 %20, %2
  %22 = select i1 %21, i64 %20, i64 %2
  %23 = getelementptr inbounds %"class.std::__1::basic_string", %"class.std::__1::basic_string"* %0, i64 0, i32 0, i32 0, i32 0, i32 0, i32 0, i32 2
  %24 = load i8*, i8** %23, align 8, !tbaa !3
  br label %31

25:                                               ; preds = %9
  %26 = sub i64 %11, %3
  %27 = icmp ult i64 %26, %2
  %28 = select i1 %27, i64 %26, i64 %2
  %29 = bitcast %"class.std::__1::basic_string"* %0 to %"struct.std::__1::basic_string<char, std::__1::char_traits<char>, std::__1::allocator<char>>::__short"*
  %30 = getelementptr inbounds %"struct.std::__1::basic_string<char, std::__1::char_traits<char>, std::__1::allocator<char>>::__short", %"struct.std::__1::basic_string<char, std::__1::char_traits<char>, std::__1::allocator<char>>::__short"* %29, i64 0, i32 1, i64 0
  br label %31

31:                                               ; preds = %19, %25
  %32 = phi i64 [ %22, %19 ], [ %28, %25 ]
  %33 = phi i8* [ %24, %19 ], [ %30, %25 ]
  %34 = icmp eq i64 %32, 0
  br i1 %34, label %37, label %35

35:                                               ; preds = %31
  %36 = getelementptr inbounds i8, i8* %33, i64 %3
  tail call void @llvm.memcpy.p0i8.p0i8.i64(i8* align 1 %1, i8* align 1 %36, i64 %32, i1 false) #20
  br label %37

37:                                               ; preds = %31, %35
  ret i64 %32
}

; Function Attrs: uwtable
define weak_odr void @_ZNSt3__112basic_stringIcNS_11char_traitsIcEENS_9allocatorIcEEEC2ERKS5_mmRKS4_(%"class.std::__1::basic_string"* %0, %"class.std::__1::basic_string"* nonnull align 8 dereferenceable(24) %1, i64 %2, i64 %3, %"class.std::__1::allocator"* nonnull align 1 dereferenceable(1) %4) unnamed_addr #2 comdat($_ZNSt3__112basic_stringIcNS_11char_traitsIcEENS_9allocatorIcEEEC5ERKS5_mmRKS4_) align 2 {
  %6 = bitcast %"class.std::__1::basic_string"* %1 to i8*
  %7 = load i8, i8* %6, align 8, !tbaa !3
  %8 = and i8 %7, 1
  %9 = icmp eq i8 %8, 0
  br i1 %9, label %10, label %14

10:                                               ; preds = %5
  %11 = lshr i8 %7, 1
  %12 = zext i8 %11 to i64
  %13 = icmp ult i64 %12, %2
  br i1 %13, label %18, label %23

14:                                               ; preds = %5
  %15 = getelementptr inbounds %"class.std::__1::basic_string", %"class.std::__1::basic_string"* %1, i64 0, i32 0, i32 0, i32 0, i32 0, i32 0, i32 1
  %16 = load i64, i64* %15, align 8, !tbaa !3
  %17 = icmp ult i64 %16, %2
  br i1 %17, label %18, label %20

18:                                               ; preds = %14, %10
  %19 = bitcast %"class.std::__1::basic_string"* %0 to %"class.std::__1::__basic_string_common"*
  tail call void @_ZNKSt3__121__basic_string_commonILb1EE20__throw_out_of_rangeEv(%"class.std::__1::__basic_string_common"* %19) #19
  unreachable

20:                                               ; preds = %14
  %21 = getelementptr inbounds %"class.std::__1::basic_string", %"class.std::__1::basic_string"* %1, i64 0, i32 0, i32 0, i32 0, i32 0, i32 0, i32 2
  %22 = load i8*, i8** %21, align 8, !tbaa !3
  br label %26

23:                                               ; preds = %10
  %24 = bitcast %"class.std::__1::basic_string"* %1 to %"struct.std::__1::basic_string<char, std::__1::char_traits<char>, std::__1::allocator<char>>::__short"*
  %25 = getelementptr inbounds %"struct.std::__1::basic_string<char, std::__1::char_traits<char>, std::__1::allocator<char>>::__short", %"struct.std::__1::basic_string<char, std::__1::char_traits<char>, std::__1::allocator<char>>::__short"* %24, i64 0, i32 1, i64 0
  br label %26

26:                                               ; preds = %20, %23
  %27 = phi i64 [ %16, %20 ], [ %12, %23 ]
  %28 = phi i8* [ %22, %20 ], [ %25, %23 ]
  %29 = getelementptr inbounds i8, i8* %28, i64 %2
  %30 = sub i64 %27, %2
  %31 = icmp ult i64 %30, %3
  %32 = select i1 %31, i64 %30, i64 %3
  %33 = icmp ugt i64 %32, -17
  br i1 %33, label %34, label %36

34:                                               ; preds = %26
  %35 = bitcast %"class.std::__1::basic_string"* %0 to %"class.std::__1::__basic_string_common"*
  tail call void @_ZNKSt3__121__basic_string_commonILb1EE20__throw_length_errorEv(%"class.std::__1::__basic_string_common"* %35) #19
  unreachable

36:                                               ; preds = %26
  %37 = icmp ult i64 %32, 23
  br i1 %37, label %46, label %38

38:                                               ; preds = %36
  %39 = add nuw i64 %32, 16
  %40 = and i64 %39, -16
  %41 = tail call noalias nonnull i8* @_Znwm(i64 %40) #21
  %42 = getelementptr inbounds %"class.std::__1::basic_string", %"class.std::__1::basic_string"* %0, i64 0, i32 0, i32 0, i32 0, i32 0, i32 0, i32 2
  store i8* %41, i8** %42, align 8, !tbaa !3
  %43 = or i64 %40, 1
  %44 = getelementptr inbounds %"class.std::__1::basic_string", %"class.std::__1::basic_string"* %0, i64 0, i32 0, i32 0, i32 0, i32 0, i32 0, i32 0
  store i64 %43, i64* %44, align 8, !tbaa !3
  %45 = getelementptr inbounds %"class.std::__1::basic_string", %"class.std::__1::basic_string"* %0, i64 0, i32 0, i32 0, i32 0, i32 0, i32 0, i32 1
  store i64 %32, i64* %45, align 8, !tbaa !3
  br label %53

46:                                               ; preds = %36
  %47 = trunc i64 %32 to i8
  %48 = shl nuw nsw i8 %47, 1
  %49 = bitcast %"class.std::__1::basic_string"* %0 to i8*
  store i8 %48, i8* %49, align 8, !tbaa !3
  %50 = bitcast %"class.std::__1::basic_string"* %0 to %"struct.std::__1::basic_string<char, std::__1::char_traits<char>, std::__1::allocator<char>>::__short"*
  %51 = getelementptr inbounds %"struct.std::__1::basic_string<char, std::__1::char_traits<char>, std::__1::allocator<char>>::__short", %"struct.std::__1::basic_string<char, std::__1::char_traits<char>, std::__1::allocator<char>>::__short"* %50, i64 0, i32 1, i64 0
  %52 = icmp eq i64 %32, 0
  br i1 %52, label %55, label %53

53:                                               ; preds = %46, %38
  %54 = phi i8* [ %41, %38 ], [ %51, %46 ]
  tail call void @llvm.memcpy.p0i8.p0i8.i64(i8* nonnull align 1 %54, i8* align 1 %29, i64 %32, i1 false) #20
  br label %55

55:                                               ; preds = %46, %53
  %56 = phi i8* [ %51, %46 ], [ %54, %53 ]
  %57 = getelementptr inbounds i8, i8* %56, i64 %32
  store i8 0, i8* %57, align 1, !tbaa !3
  ret void
}

; Function Attrs: nounwind uwtable
define weak_odr i64 @_ZNKSt3__112basic_stringIcNS_11char_traitsIcEENS_9allocatorIcEEE4findEcm(%"class.std::__1::basic_string"* %0, i8 signext %1, i64 %2) local_unnamed_addr #4 comdat align 2 {
  %4 = bitcast %"class.std::__1::basic_string"* %0 to i8*
  %5 = load i8, i8* %4, align 8, !tbaa !3
  %6 = and i8 %5, 1
  %7 = icmp eq i8 %6, 0
  br i1 %7, label %13, label %8

8:                                                ; preds = %3
  %9 = getelementptr inbounds %"class.std::__1::basic_string", %"class.std::__1::basic_string"* %0, i64 0, i32 0, i32 0, i32 0, i32 0, i32 0, i32 2
  %10 = load i8*, i8** %9, align 8, !tbaa !3
  %11 = getelementptr inbounds %"class.std::__1::basic_string", %"class.std::__1::basic_string"* %0, i64 0, i32 0, i32 0, i32 0, i32 0, i32 0, i32 1
  %12 = load i64, i64* %11, align 8, !tbaa !3
  br label %18

13:                                               ; preds = %3
  %14 = bitcast %"class.std::__1::basic_string"* %0 to %"struct.std::__1::basic_string<char, std::__1::char_traits<char>, std::__1::allocator<char>>::__short"*
  %15 = getelementptr inbounds %"struct.std::__1::basic_string<char, std::__1::char_traits<char>, std::__1::allocator<char>>::__short", %"struct.std::__1::basic_string<char, std::__1::char_traits<char>, std::__1::allocator<char>>::__short"* %14, i64 0, i32 1, i64 0
  %16 = lshr i8 %5, 1
  %17 = zext i8 %16 to i64
  br label %18

18:                                               ; preds = %8, %13
  %19 = phi i8* [ %10, %8 ], [ %15, %13 ]
  %20 = phi i64 [ %12, %8 ], [ %17, %13 ]
  %21 = icmp ugt i64 %20, %2
  br i1 %21, label %22, label %36

22:                                               ; preds = %18
  %23 = sub i64 %20, %2
  %24 = icmp eq i64 %23, 0
  br i1 %24, label %29, label %25

25:                                               ; preds = %22
  %26 = getelementptr inbounds i8, i8* %19, i64 %2
  %27 = zext i8 %1 to i32
  %28 = tail call i8* @memchr(i8* %26, i32 %27, i64 %23) #20
  br label %29

29:                                               ; preds = %25, %22
  %30 = phi i8* [ %28, %25 ], [ null, %22 ]
  %31 = icmp eq i8* %30, null
  %32 = ptrtoint i8* %30 to i64
  %33 = ptrtoint i8* %19 to i64
  %34 = sub i64 %32, %33
  %35 = select i1 %31, i64 -1, i64 %34
  br label %36

36:                                               ; preds = %18, %29
  %37 = phi i64 [ -1, %18 ], [ %35, %29 ]
  ret i64 %37
}

; Function Attrs: inlinehint uwtable
define weak_odr void @_ZNSt3__112basic_stringIcNS_11char_traitsIcEENS_9allocatorIcEEE6__initEmc(%"class.std::__1::basic_string"* %0, i64 %1, i8 signext %2) local_unnamed_addr #5 comdat align 2 {
  %4 = icmp ugt i64 %1, -17
  br i1 %4, label %5, label %7

5:                                                ; preds = %3
  %6 = bitcast %"class.std::__1::basic_string"* %0 to %"class.std::__1::__basic_string_common"*
  tail call void @_ZNKSt3__121__basic_string_commonILb1EE20__throw_length_errorEv(%"class.std::__1::__basic_string_common"* %6) #19
  unreachable

7:                                                ; preds = %3
  %8 = icmp ult i64 %1, 23
  br i1 %8, label %17, label %9

9:                                                ; preds = %7
  %10 = add nuw i64 %1, 16
  %11 = and i64 %10, -16
  %12 = tail call noalias nonnull i8* @_Znwm(i64 %11) #21
  %13 = getelementptr inbounds %"class.std::__1::basic_string", %"class.std::__1::basic_string"* %0, i64 0, i32 0, i32 0, i32 0, i32 0, i32 0, i32 2
  store i8* %12, i8** %13, align 8, !tbaa !3
  %14 = or i64 %11, 1
  %15 = getelementptr inbounds %"class.std::__1::basic_string", %"class.std::__1::basic_string"* %0, i64 0, i32 0, i32 0, i32 0, i32 0, i32 0, i32 0
  store i64 %14, i64* %15, align 8, !tbaa !3
  %16 = getelementptr inbounds %"class.std::__1::basic_string", %"class.std::__1::basic_string"* %0, i64 0, i32 0, i32 0, i32 0, i32 0, i32 0, i32 1
  store i64 %1, i64* %16, align 8, !tbaa !3
  br label %24

17:                                               ; preds = %7
  %18 = trunc i64 %1 to i8
  %19 = shl nuw nsw i8 %18, 1
  %20 = bitcast %"class.std::__1::basic_string"* %0 to i8*
  store i8 %19, i8* %20, align 8, !tbaa !3
  %21 = bitcast %"class.std::__1::basic_string"* %0 to %"struct.std::__1::basic_string<char, std::__1::char_traits<char>, std::__1::allocator<char>>::__short"*
  %22 = getelementptr inbounds %"struct.std::__1::basic_string<char, std::__1::char_traits<char>, std::__1::allocator<char>>::__short", %"struct.std::__1::basic_string<char, std::__1::char_traits<char>, std::__1::allocator<char>>::__short"* %21, i64 0, i32 1, i64 0
  %23 = icmp eq i64 %1, 0
  br i1 %23, label %26, label %24

24:                                               ; preds = %9, %17
  %25 = phi i8* [ %12, %9 ], [ %22, %17 ]
  tail call void @llvm.memset.p0i8.i64(i8* nonnull align 1 %25, i8 %2, i64 %1, i1 false) #20
  br label %26

26:                                               ; preds = %17, %24
  %27 = phi i8* [ %22, %17 ], [ %25, %24 ]
  %28 = getelementptr inbounds i8, i8* %27, i64 %1
  store i8 0, i8* %28, align 1, !tbaa !3
  ret void
}

; Function Attrs: uwtable
define weak_odr nonnull align 8 dereferenceable(24) %"class.std::__1::basic_string"* @_ZNSt3__112basic_stringIcNS_11char_traitsIcEENS_9allocatorIcEEE6insertEmPKc(%"class.std::__1::basic_string"* %0, i64 %1, i8* %2) local_unnamed_addr #2 comdat align 2 {
  %4 = tail call i64 @strlen(i8* nonnull dereferenceable(1) %2) #20
  %5 = tail call nonnull align 8 dereferenceable(24) %"class.std::__1::basic_string"* @_ZNSt3__112basic_stringIcNS_11char_traitsIcEENS_9allocatorIcEEE6insertEmPKcm(%"class.std::__1::basic_string"* %0, i64 %1, i8* %2, i64 %4)
  ret %"class.std::__1::basic_string"* %5
}

; Function Attrs: nounwind uwtable
define weak_odr i64 @_ZNKSt3__112basic_stringIcNS_11char_traitsIcEENS_9allocatorIcEEE12find_last_ofEPKcmm(%"class.std::__1::basic_string"* %0, i8* %1, i64 %2, i64 %3) local_unnamed_addr #4 comdat align 2 {
  %5 = bitcast %"class.std::__1::basic_string"* %0 to i8*
  %6 = load i8, i8* %5, align 8, !tbaa !3
  %7 = and i8 %6, 1
  %8 = icmp eq i8 %7, 0
  br i1 %8, label %14, label %9

9:                                                ; preds = %4
  %10 = getelementptr inbounds %"class.std::__1::basic_string", %"class.std::__1::basic_string"* %0, i64 0, i32 0, i32 0, i32 0, i32 0, i32 0, i32 2
  %11 = load i8*, i8** %10, align 8, !tbaa !3
  %12 = getelementptr inbounds %"class.std::__1::basic_string", %"class.std::__1::basic_string"* %0, i64 0, i32 0, i32 0, i32 0, i32 0, i32 0, i32 1
  %13 = load i64, i64* %12, align 8, !tbaa !3
  br label %19

14:                                               ; preds = %4
  %15 = bitcast %"class.std::__1::basic_string"* %0 to %"struct.std::__1::basic_string<char, std::__1::char_traits<char>, std::__1::allocator<char>>::__short"*
  %16 = getelementptr inbounds %"struct.std::__1::basic_string<char, std::__1::char_traits<char>, std::__1::allocator<char>>::__short", %"struct.std::__1::basic_string<char, std::__1::char_traits<char>, std::__1::allocator<char>>::__short"* %15, i64 0, i32 1, i64 0
  %17 = lshr i8 %6, 1
  %18 = zext i8 %17 to i64
  br label %19

19:                                               ; preds = %9, %14
  %20 = phi i8* [ %11, %9 ], [ %16, %14 ]
  %21 = phi i64 [ %13, %9 ], [ %18, %14 ]
  %22 = icmp eq i64 %3, 0
  br i1 %22, label %41, label %23

23:                                               ; preds = %19
  %24 = icmp ugt i64 %21, %2
  %25 = add i64 %2, 1
  %26 = select i1 %24, i64 %25, i64 %21
  %27 = getelementptr inbounds i8, i8* %20, i64 %26
  br label %28

28:                                               ; preds = %31, %23
  %29 = phi i8* [ %27, %23 ], [ %32, %31 ]
  %30 = icmp eq i8* %29, %20
  br i1 %30, label %41, label %31

31:                                               ; preds = %28
  %32 = getelementptr inbounds i8, i8* %29, i64 -1
  %33 = load i8, i8* %32, align 1, !tbaa !3
  %34 = zext i8 %33 to i32
  %35 = tail call i8* @memchr(i8* %1, i32 %34, i64 %3) #20
  %36 = icmp eq i8* %35, null
  br i1 %36, label %28, label %37

37:                                               ; preds = %31
  %38 = ptrtoint i8* %32 to i64
  %39 = ptrtoint i8* %20 to i64
  %40 = sub i64 %38, %39
  br label %41

41:                                               ; preds = %28, %19, %37
  %42 = phi i64 [ -1, %19 ], [ %40, %37 ], [ -1, %28 ]
  ret i64 %42
}

; Function Attrs: uwtable
define weak_odr void @_ZNSt3__112basic_stringIcNS_11char_traitsIcEENS_9allocatorIcEEE9push_backEc(%"class.std::__1::basic_string"* %0, i8 signext %1) local_unnamed_addr #2 comdat align 2 personality i32 (...)* @__gxx_personality_v0 {
  %3 = bitcast %"class.std::__1::basic_string"* %0 to i8*
  %4 = load i8, i8* %3, align 8, !tbaa !3
  %5 = and i8 %4, 1
  %6 = icmp eq i8 %5, 0
  br i1 %6, label %15, label %7

7:                                                ; preds = %2
  %8 = getelementptr inbounds %"class.std::__1::basic_string", %"class.std::__1::basic_string"* %0, i64 0, i32 0, i32 0, i32 0, i32 0, i32 0, i32 0
  %9 = load i64, i64* %8, align 8, !tbaa !3
  %10 = and i64 %9, -2
  %11 = add i64 %10, -1
  %12 = getelementptr inbounds %"class.std::__1::basic_string", %"class.std::__1::basic_string"* %0, i64 0, i32 0, i32 0, i32 0, i32 0, i32 0, i32 1
  %13 = load i64, i64* %12, align 8, !tbaa !3
  %14 = icmp eq i64 %13, %11
  br i1 %14, label %20, label %52

15:                                               ; preds = %2
  %16 = lshr i8 %4, 1
  %17 = icmp eq i8 %16, 22
  %18 = bitcast %"class.std::__1::basic_string"* %0 to %"struct.std::__1::basic_string<char, std::__1::char_traits<char>, std::__1::allocator<char>>::__short"*
  %19 = getelementptr inbounds %"struct.std::__1::basic_string<char, std::__1::char_traits<char>, std::__1::allocator<char>>::__short", %"struct.std::__1::basic_string<char, std::__1::char_traits<char>, std::__1::allocator<char>>::__short"* %18, i64 0, i32 1, i64 0
  br i1 %17, label %28, label %55

20:                                               ; preds = %7
  %21 = icmp eq i64 %11, -17
  br i1 %21, label %22, label %24

22:                                               ; preds = %20
  %23 = bitcast %"class.std::__1::basic_string"* %0 to %"class.std::__1::__basic_string_common"*
  tail call void @_ZNKSt3__121__basic_string_commonILb1EE20__throw_length_errorEv(%"class.std::__1::__basic_string_common"* %23) #19
  unreachable

24:                                               ; preds = %20
  %25 = getelementptr inbounds %"class.std::__1::basic_string", %"class.std::__1::basic_string"* %0, i64 0, i32 0, i32 0, i32 0, i32 0, i32 0, i32 2
  %26 = load i8*, i8** %25, align 8, !tbaa !3
  %27 = icmp ult i64 %11, 9223372036854775783
  br i1 %27, label %28, label %40

28:                                               ; preds = %15, %24
  %29 = phi i8* [ %26, %24 ], [ %19, %15 ]
  %30 = phi i64 [ %11, %24 ], [ 22, %15 ]
  %31 = phi i64 [ %13, %24 ], [ 22, %15 ]
  %32 = add nuw nsw i64 %30, 1
  %33 = shl nuw i64 %30, 1
  %34 = icmp ult i64 %32, %33
  %35 = select i1 %34, i64 %33, i64 %32
  %36 = add nuw i64 %35, 16
  %37 = and i64 %36, -16
  %38 = icmp ult i64 %35, 23
  %39 = select i1 %38, i64 23, i64 %37
  br label %40

40:                                               ; preds = %28, %24
  %41 = phi i8* [ %29, %28 ], [ %26, %24 ]
  %42 = phi i64 [ %30, %28 ], [ %11, %24 ]
  %43 = phi i64 [ %31, %28 ], [ %13, %24 ]
  %44 = phi i64 [ %39, %28 ], [ -17, %24 ]
  %45 = tail call noalias nonnull i8* @_Znwm(i64 %44) #21
  tail call void @llvm.memcpy.p0i8.p0i8.i64(i8* nonnull align 1 %45, i8* align 1 %41, i64 %42, i1 false) #20
  %46 = icmp eq i64 %42, 22
  br i1 %46, label %48, label %47

47:                                               ; preds = %40
  tail call void @_ZdlPv(i8* %41) #22
  br label %48

48:                                               ; preds = %40, %47
  %49 = getelementptr inbounds %"class.std::__1::basic_string", %"class.std::__1::basic_string"* %0, i64 0, i32 0, i32 0, i32 0, i32 0, i32 0, i32 2
  store i8* %45, i8** %49, align 8, !tbaa !3
  %50 = or i64 %44, 1
  %51 = getelementptr inbounds %"class.std::__1::basic_string", %"class.std::__1::basic_string"* %0, i64 0, i32 0, i32 0, i32 0, i32 0, i32 0, i32 0
  store i64 %50, i64* %51, align 8, !tbaa !3
  br label %59

52:                                               ; preds = %7
  %53 = getelementptr inbounds %"class.std::__1::basic_string", %"class.std::__1::basic_string"* %0, i64 0, i32 0, i32 0, i32 0, i32 0, i32 0, i32 2
  %54 = load i8*, i8** %53, align 8, !tbaa !3
  br label %59

55:                                               ; preds = %15
  %56 = zext i8 %16 to i64
  %57 = add i8 %4, 2
  %58 = and i8 %57, -2
  store i8 %58, i8* %3, align 8, !tbaa !3
  br label %64

59:                                               ; preds = %48, %52
  %60 = phi i64 [ %13, %52 ], [ %43, %48 ]
  %61 = phi i8* [ %54, %52 ], [ %45, %48 ]
  %62 = add i64 %60, 1
  %63 = getelementptr inbounds %"class.std::__1::basic_string", %"class.std::__1::basic_string"* %0, i64 0, i32 0, i32 0, i32 0, i32 0, i32 0, i32 1
  store i64 %62, i64* %63, align 8, !tbaa !3
  br label %64

64:                                               ; preds = %59, %55
  %65 = phi i64 [ %56, %55 ], [ %60, %59 ]
  %66 = phi i8* [ %19, %55 ], [ %61, %59 ]
  %67 = getelementptr inbounds i8, i8* %66, i64 %65
  store i8 %1, i8* %67, align 1, !tbaa !3
  %68 = getelementptr inbounds i8, i8* %67, i64 1
  store i8 0, i8* %68, align 1, !tbaa !3
  ret void
}

; Function Attrs: uwtable
define weak_odr nonnull align 8 dereferenceable(24) %"class.std::__1::basic_string"* @_ZNSt3__112basic_stringIcNS_11char_traitsIcEENS_9allocatorIcEEE6appendEmc(%"class.std::__1::basic_string"* %0, i64 %1, i8 signext %2) local_unnamed_addr #2 comdat align 2 personality i32 (...)* @__gxx_personality_v0 {
  %4 = icmp eq i64 %1, 0
  br i1 %4, label %89, label %5

5:                                                ; preds = %3
  %6 = bitcast %"class.std::__1::basic_string"* %0 to i8*
  %7 = load i8, i8* %6, align 8, !tbaa !3
  %8 = and i8 %7, 1
  %9 = icmp eq i8 %8, 0
  br i1 %9, label %18, label %10

10:                                               ; preds = %5
  %11 = getelementptr inbounds %"class.std::__1::basic_string", %"class.std::__1::basic_string"* %0, i64 0, i32 0, i32 0, i32 0, i32 0, i32 0, i32 0
  %12 = load i64, i64* %11, align 8, !tbaa !3
  %13 = and i64 %12, -2
  %14 = add i64 %13, -1
  %15 = getelementptr inbounds %"class.std::__1::basic_string", %"class.std::__1::basic_string"* %0, i64 0, i32 0, i32 0, i32 0, i32 0, i32 0, i32 1
  %16 = load i64, i64* %15, align 8, !tbaa !3
  %17 = trunc i64 %12 to i8
  br label %21

18:                                               ; preds = %5
  %19 = lshr i8 %7, 1
  %20 = zext i8 %19 to i64
  br label %21

21:                                               ; preds = %10, %18
  %22 = phi i8 [ %17, %10 ], [ %7, %18 ]
  %23 = phi i64 [ %14, %10 ], [ 22, %18 ]
  %24 = phi i64 [ %16, %10 ], [ %20, %18 ]
  %25 = sub i64 %23, %24
  %26 = icmp ult i64 %25, %1
  br i1 %26, label %27, label %65

27:                                               ; preds = %21
  %28 = add i64 %24, %1
  %29 = sub i64 %28, %23
  %30 = sub i64 -17, %23
  %31 = icmp ult i64 %30, %29
  br i1 %31, label %32, label %34

32:                                               ; preds = %27
  %33 = bitcast %"class.std::__1::basic_string"* %0 to %"class.std::__1::__basic_string_common"*
  tail call void @_ZNKSt3__121__basic_string_commonILb1EE20__throw_length_errorEv(%"class.std::__1::__basic_string_common"* %33) #19
  unreachable

34:                                               ; preds = %27
  br i1 %9, label %38, label %35

35:                                               ; preds = %34
  %36 = getelementptr inbounds %"class.std::__1::basic_string", %"class.std::__1::basic_string"* %0, i64 0, i32 0, i32 0, i32 0, i32 0, i32 0, i32 2
  %37 = load i8*, i8** %36, align 8, !tbaa !3
  br label %41

38:                                               ; preds = %34
  %39 = bitcast %"class.std::__1::basic_string"* %0 to %"struct.std::__1::basic_string<char, std::__1::char_traits<char>, std::__1::allocator<char>>::__short"*
  %40 = getelementptr inbounds %"struct.std::__1::basic_string<char, std::__1::char_traits<char>, std::__1::allocator<char>>::__short", %"struct.std::__1::basic_string<char, std::__1::char_traits<char>, std::__1::allocator<char>>::__short"* %39, i64 0, i32 1, i64 0
  br label %41

41:                                               ; preds = %38, %35
  %42 = phi i8* [ %37, %35 ], [ %40, %38 ]
  %43 = icmp ult i64 %23, 9223372036854775783
  br i1 %43, label %44, label %52

44:                                               ; preds = %41
  %45 = shl nuw i64 %23, 1
  %46 = icmp ult i64 %28, %45
  %47 = select i1 %46, i64 %45, i64 %28
  %48 = add i64 %47, 16
  %49 = and i64 %48, -16
  %50 = icmp ult i64 %47, 23
  %51 = select i1 %50, i64 23, i64 %49
  br label %52

52:                                               ; preds = %44, %41
  %53 = phi i64 [ %51, %44 ], [ -17, %41 ]
  %54 = tail call noalias nonnull i8* @_Znwm(i64 %53) #21
  %55 = icmp eq i64 %24, 0
  br i1 %55, label %57, label %56

56:                                               ; preds = %52
  tail call void @llvm.memcpy.p0i8.p0i8.i64(i8* nonnull align 1 %54, i8* align 1 %42, i64 %24, i1 false) #20
  br label %57

57:                                               ; preds = %56, %52
  %58 = icmp eq i64 %23, 22
  br i1 %58, label %60, label %59

59:                                               ; preds = %57
  tail call void @_ZdlPv(i8* %42) #22
  br label %60

60:                                               ; preds = %57, %59
  %61 = getelementptr inbounds %"class.std::__1::basic_string", %"class.std::__1::basic_string"* %0, i64 0, i32 0, i32 0, i32 0, i32 0, i32 0, i32 2
  store i8* %54, i8** %61, align 8, !tbaa !3
  %62 = or i64 %53, 1
  %63 = getelementptr inbounds %"class.std::__1::basic_string", %"class.std::__1::basic_string"* %0, i64 0, i32 0, i32 0, i32 0, i32 0, i32 0, i32 0
  store i64 %62, i64* %63, align 8, !tbaa !3
  %64 = trunc i64 %62 to i8
  br label %65

65:                                               ; preds = %60, %21
  %66 = phi i8 [ %64, %60 ], [ %22, %21 ]
  %67 = and i8 %66, 1
  %68 = icmp eq i8 %67, 0
  br i1 %68, label %72, label %69

69:                                               ; preds = %65
  %70 = getelementptr inbounds %"class.std::__1::basic_string", %"class.std::__1::basic_string"* %0, i64 0, i32 0, i32 0, i32 0, i32 0, i32 0, i32 2
  %71 = load i8*, i8** %70, align 8, !tbaa !3
  br label %75

72:                                               ; preds = %65
  %73 = bitcast %"class.std::__1::basic_string"* %0 to %"struct.std::__1::basic_string<char, std::__1::char_traits<char>, std::__1::allocator<char>>::__short"*
  %74 = getelementptr inbounds %"struct.std::__1::basic_string<char, std::__1::char_traits<char>, std::__1::allocator<char>>::__short", %"struct.std::__1::basic_string<char, std::__1::char_traits<char>, std::__1::allocator<char>>::__short"* %73, i64 0, i32 1, i64 0
  br label %75

75:                                               ; preds = %69, %72
  %76 = phi i8* [ %71, %69 ], [ %74, %72 ]
  %77 = getelementptr inbounds i8, i8* %76, i64 %24
  tail call void @llvm.memset.p0i8.i64(i8* align 1 %77, i8 %2, i64 %1, i1 false) #20
  %78 = add i64 %24, %1
  %79 = load i8, i8* %6, align 8, !tbaa !3
  %80 = and i8 %79, 1
  %81 = icmp eq i8 %80, 0
  br i1 %81, label %84, label %82

82:                                               ; preds = %75
  %83 = getelementptr inbounds %"class.std::__1::basic_string", %"class.std::__1::basic_string"* %0, i64 0, i32 0, i32 0, i32 0, i32 0, i32 0, i32 1
  store i64 %78, i64* %83, align 8, !tbaa !3
  br label %87

84:                                               ; preds = %75
  %85 = trunc i64 %78 to i8
  %86 = shl i8 %85, 1
  store i8 %86, i8* %6, align 8, !tbaa !3
  br label %87

87:                                               ; preds = %82, %84
  %88 = getelementptr inbounds i8, i8* %76, i64 %78
  store i8 0, i8* %88, align 1, !tbaa !3
  br label %89

89:                                               ; preds = %3, %87
  ret %"class.std::__1::basic_string"* %0
}

; Function Attrs: nounwind uwtable
define weak_odr i64 @_ZNKSt3__112basic_stringIcNS_11char_traitsIcEENS_9allocatorIcEEE5rfindEcm(%"class.std::__1::basic_string"* %0, i8 signext %1, i64 %2) local_unnamed_addr #4 comdat align 2 {
  %4 = bitcast %"class.std::__1::basic_string"* %0 to i8*
  %5 = load i8, i8* %4, align 8, !tbaa !3
  %6 = and i8 %5, 1
  %7 = icmp eq i8 %6, 0
  br i1 %7, label %13, label %8

8:                                                ; preds = %3
  %9 = getelementptr inbounds %"class.std::__1::basic_string", %"class.std::__1::basic_string"* %0, i64 0, i32 0, i32 0, i32 0, i32 0, i32 0, i32 2
  %10 = load i8*, i8** %9, align 8, !tbaa !3
  %11 = getelementptr inbounds %"class.std::__1::basic_string", %"class.std::__1::basic_string"* %0, i64 0, i32 0, i32 0, i32 0, i32 0, i32 0, i32 1
  %12 = load i64, i64* %11, align 8, !tbaa !3
  br label %18

13:                                               ; preds = %3
  %14 = bitcast %"class.std::__1::basic_string"* %0 to %"struct.std::__1::basic_string<char, std::__1::char_traits<char>, std::__1::allocator<char>>::__short"*
  %15 = getelementptr inbounds %"struct.std::__1::basic_string<char, std::__1::char_traits<char>, std::__1::allocator<char>>::__short", %"struct.std::__1::basic_string<char, std::__1::char_traits<char>, std::__1::allocator<char>>::__short"* %14, i64 0, i32 1, i64 0
  %16 = lshr i8 %5, 1
  %17 = zext i8 %16 to i64
  br label %18

18:                                               ; preds = %8, %13
  %19 = phi i8* [ %10, %8 ], [ %15, %13 ]
  %20 = phi i64 [ %12, %8 ], [ %17, %13 ]
  %21 = icmp eq i64 %20, 0
  br i1 %21, label %38, label %22

22:                                               ; preds = %18
  %23 = icmp ugt i64 %20, %2
  %24 = add i64 %2, 1
  %25 = select i1 %23, i64 %24, i64 %20
  %26 = getelementptr inbounds i8, i8* %19, i64 %25
  br label %27

27:                                               ; preds = %30, %22
  %28 = phi i8* [ %26, %22 ], [ %31, %30 ]
  %29 = icmp eq i8* %28, %19
  br i1 %29, label %38, label %30

30:                                               ; preds = %27
  %31 = getelementptr inbounds i8, i8* %28, i64 -1
  %32 = load i8, i8* %31, align 1, !tbaa !3
  %33 = icmp eq i8 %32, %1
  br i1 %33, label %34, label %27

34:                                               ; preds = %30
  %35 = ptrtoint i8* %31 to i64
  %36 = ptrtoint i8* %19 to i64
  %37 = sub i64 %35, %36
  br label %38

38:                                               ; preds = %27, %18, %34
  %39 = phi i64 [ %37, %34 ], [ -1, %18 ], [ -1, %27 ]
  ret i64 %39
}

; Function Attrs: uwtable
define weak_odr nonnull align 8 dereferenceable(24) %"class.std::__1::basic_string"* @_ZNSt3__112basic_stringIcNS_11char_traitsIcEENS_9allocatorIcEEE6assignEmc(%"class.std::__1::basic_string"* %0, i64 %1, i8 signext %2) local_unnamed_addr #2 comdat align 2 personality i32 (...)* @__gxx_personality_v0 {
  %4 = bitcast %"class.std::__1::basic_string"* %0 to i8*
  %5 = load i8, i8* %4, align 8, !tbaa !3
  %6 = and i8 %5, 1
  %7 = icmp eq i8 %6, 0
  br i1 %7, label %8, label %10

8:                                                ; preds = %3
  %9 = icmp ugt i64 %1, 22
  br i1 %9, label %17, label %58

10:                                               ; preds = %3
  %11 = getelementptr inbounds %"class.std::__1::basic_string", %"class.std::__1::basic_string"* %0, i64 0, i32 0, i32 0, i32 0, i32 0, i32 0, i32 0
  %12 = load i64, i64* %11, align 8, !tbaa !3
  %13 = and i64 %12, -2
  %14 = add i64 %13, -1
  %15 = icmp ult i64 %14, %1
  %16 = trunc i64 %12 to i8
  br i1 %15, label %20, label %58

17:                                               ; preds = %8
  %18 = add i64 %1, -22
  %19 = icmp ugt i64 %18, -39
  br i1 %19, label %24, label %26

20:                                               ; preds = %10
  %21 = sub i64 %1, %14
  %22 = sub i64 -16, %13
  %23 = icmp ult i64 %22, %21
  br i1 %23, label %24, label %29

24:                                               ; preds = %20, %17
  %25 = bitcast %"class.std::__1::basic_string"* %0 to %"class.std::__1::__basic_string_common"*
  tail call void @_ZNKSt3__121__basic_string_commonILb1EE20__throw_length_errorEv(%"class.std::__1::__basic_string_common"* %25) #19
  unreachable

26:                                               ; preds = %17
  %27 = bitcast %"class.std::__1::basic_string"* %0 to %"struct.std::__1::basic_string<char, std::__1::char_traits<char>, std::__1::allocator<char>>::__short"*
  %28 = getelementptr inbounds %"struct.std::__1::basic_string<char, std::__1::char_traits<char>, std::__1::allocator<char>>::__short", %"struct.std::__1::basic_string<char, std::__1::char_traits<char>, std::__1::allocator<char>>::__short"* %27, i64 0, i32 1, i64 0
  br label %35

29:                                               ; preds = %20
  %30 = getelementptr inbounds %"class.std::__1::basic_string", %"class.std::__1::basic_string"* %0, i64 0, i32 0, i32 0, i32 0, i32 0, i32 0, i32 2
  %31 = load i8*, i8** %30, align 8, !tbaa !3
  %32 = icmp ult i64 %14, 9223372036854775783
  br i1 %32, label %35, label %33

33:                                               ; preds = %29
  %34 = tail call noalias nonnull dereferenceable(18446744073709551599) i8* @_Znwm(i64 -17) #21
  br label %47

35:                                               ; preds = %29, %26
  %36 = phi i8* [ %28, %26 ], [ %31, %29 ]
  %37 = phi i64 [ 22, %26 ], [ %14, %29 ]
  %38 = shl nuw i64 %37, 1
  %39 = icmp ugt i64 %38, %1
  %40 = select i1 %39, i64 %38, i64 %1
  %41 = add i64 %40, 16
  %42 = and i64 %41, -16
  %43 = icmp ult i64 %40, 23
  %44 = select i1 %43, i64 23, i64 %42
  %45 = tail call noalias nonnull i8* @_Znwm(i64 %44) #21
  %46 = icmp eq i64 %37, 22
  br i1 %46, label %51, label %47

47:                                               ; preds = %33, %35
  %48 = phi i8* [ %34, %33 ], [ %45, %35 ]
  %49 = phi i64 [ -17, %33 ], [ %44, %35 ]
  %50 = phi i8* [ %31, %33 ], [ %36, %35 ]
  tail call void @_ZdlPv(i8* %50) #22
  br label %51

51:                                               ; preds = %35, %47
  %52 = phi i8* [ %45, %35 ], [ %48, %47 ]
  %53 = phi i64 [ %44, %35 ], [ %49, %47 ]
  %54 = getelementptr inbounds %"class.std::__1::basic_string", %"class.std::__1::basic_string"* %0, i64 0, i32 0, i32 0, i32 0, i32 0, i32 0, i32 2
  store i8* %52, i8** %54, align 8, !tbaa !3
  %55 = or i64 %53, 1
  %56 = getelementptr inbounds %"class.std::__1::basic_string", %"class.std::__1::basic_string"* %0, i64 0, i32 0, i32 0, i32 0, i32 0, i32 0, i32 0
  store i64 %55, i64* %56, align 8, !tbaa !3
  %57 = trunc i64 %55 to i8
  br label %58

58:                                               ; preds = %10, %51, %8
  %59 = phi i8 [ %16, %10 ], [ %57, %51 ], [ %5, %8 ]
  %60 = and i8 %59, 1
  %61 = icmp eq i8 %60, 0
  br i1 %61, label %65, label %62

62:                                               ; preds = %58
  %63 = getelementptr inbounds %"class.std::__1::basic_string", %"class.std::__1::basic_string"* %0, i64 0, i32 0, i32 0, i32 0, i32 0, i32 0, i32 2
  %64 = load i8*, i8** %63, align 8, !tbaa !3
  br label %68

65:                                               ; preds = %58
  %66 = bitcast %"class.std::__1::basic_string"* %0 to %"struct.std::__1::basic_string<char, std::__1::char_traits<char>, std::__1::allocator<char>>::__short"*
  %67 = getelementptr inbounds %"struct.std::__1::basic_string<char, std::__1::char_traits<char>, std::__1::allocator<char>>::__short", %"struct.std::__1::basic_string<char, std::__1::char_traits<char>, std::__1::allocator<char>>::__short"* %66, i64 0, i32 1, i64 0
  br label %68

68:                                               ; preds = %62, %65
  %69 = phi i8* [ %64, %62 ], [ %67, %65 ]
  %70 = icmp eq i64 %1, 0
  br i1 %70, label %72, label %71

71:                                               ; preds = %68
  tail call void @llvm.memset.p0i8.i64(i8* align 1 %69, i8 %2, i64 %1, i1 false) #20
  br label %72

72:                                               ; preds = %68, %71
  %73 = getelementptr inbounds i8, i8* %69, i64 %1
  store i8 0, i8* %73, align 1, !tbaa !3
  %74 = load i8, i8* %4, align 8, !tbaa !3
  %75 = and i8 %74, 1
  %76 = icmp eq i8 %75, 0
  br i1 %76, label %79, label %77

77:                                               ; preds = %72
  %78 = getelementptr inbounds %"class.std::__1::basic_string", %"class.std::__1::basic_string"* %0, i64 0, i32 0, i32 0, i32 0, i32 0, i32 0, i32 1
  store i64 %1, i64* %78, align 8, !tbaa !3
  br label %82

79:                                               ; preds = %72
  %80 = trunc i64 %1 to i8
  %81 = shl i8 %80, 1
  store i8 %81, i8* %4, align 8, !tbaa !3
  br label %82

82:                                               ; preds = %77, %79
  ret %"class.std::__1::basic_string"* %0
}

; Function Attrs: uwtable
define weak_odr nonnull align 8 dereferenceable(24) %"class.std::__1::basic_string"* @_ZNSt3__112basic_stringIcNS_11char_traitsIcEENS_9allocatorIcEEE5eraseEmm(%"class.std::__1::basic_string"* %0, i64 %1, i64 %2) local_unnamed_addr #2 comdat align 2 {
  %4 = bitcast %"class.std::__1::basic_string"* %0 to i8*
  %5 = load i8, i8* %4, align 8, !tbaa !3
  %6 = and i8 %5, 1
  %7 = icmp eq i8 %6, 0
  br i1 %7, label %11, label %8

8:                                                ; preds = %3
  %9 = getelementptr inbounds %"class.std::__1::basic_string", %"class.std::__1::basic_string"* %0, i64 0, i32 0, i32 0, i32 0, i32 0, i32 0, i32 1
  %10 = load i64, i64* %9, align 8, !tbaa !3
  br label %14

11:                                               ; preds = %3
  %12 = lshr i8 %5, 1
  %13 = zext i8 %12 to i64
  br label %14

14:                                               ; preds = %8, %11
  %15 = phi i64 [ %10, %8 ], [ %13, %11 ]
  %16 = icmp ult i64 %15, %1
  br i1 %16, label %17, label %19

17:                                               ; preds = %14
  %18 = bitcast %"class.std::__1::basic_string"* %0 to %"class.std::__1::__basic_string_common"*
  tail call void @_ZNKSt3__121__basic_string_commonILb1EE20__throw_out_of_rangeEv(%"class.std::__1::__basic_string_common"* %18) #19
  unreachable

19:                                               ; preds = %14
  switch i64 %2, label %31 [
    i64 -1, label %20
    i64 0, label %66
  ]

20:                                               ; preds = %19
  br i1 %7, label %26, label %21

21:                                               ; preds = %20
  %22 = getelementptr inbounds %"class.std::__1::basic_string", %"class.std::__1::basic_string"* %0, i64 0, i32 0, i32 0, i32 0, i32 0, i32 0, i32 2
  %23 = load i8*, i8** %22, align 8, !tbaa !3
  %24 = getelementptr inbounds i8, i8* %23, i64 %1
  store i8 0, i8* %24, align 1, !tbaa !3
  %25 = getelementptr inbounds %"class.std::__1::basic_string", %"class.std::__1::basic_string"* %0, i64 0, i32 0, i32 0, i32 0, i32 0, i32 0, i32 1
  store i64 %1, i64* %25, align 8, !tbaa !3
  br label %66

26:                                               ; preds = %20
  %27 = bitcast %"class.std::__1::basic_string"* %0 to %"struct.std::__1::basic_string<char, std::__1::char_traits<char>, std::__1::allocator<char>>::__short"*
  %28 = getelementptr inbounds %"struct.std::__1::basic_string<char, std::__1::char_traits<char>, std::__1::allocator<char>>::__short", %"struct.std::__1::basic_string<char, std::__1::char_traits<char>, std::__1::allocator<char>>::__short"* %27, i64 0, i32 1, i64 %1
  store i8 0, i8* %28, align 1, !tbaa !3
  %29 = trunc i64 %1 to i8
  %30 = shl i8 %29, 1
  store i8 %30, i8* %4, align 8, !tbaa !3
  br label %66

31:                                               ; preds = %19
  br i1 %7, label %37, label %32

32:                                               ; preds = %31
  %33 = getelementptr inbounds %"class.std::__1::basic_string", %"class.std::__1::basic_string"* %0, i64 0, i32 0, i32 0, i32 0, i32 0, i32 0, i32 1
  %34 = load i64, i64* %33, align 8, !tbaa !3
  %35 = getelementptr inbounds %"class.std::__1::basic_string", %"class.std::__1::basic_string"* %0, i64 0, i32 0, i32 0, i32 0, i32 0, i32 0, i32 2
  %36 = load i8*, i8** %35, align 8, !tbaa !3
  br label %42

37:                                               ; preds = %31
  %38 = lshr i8 %5, 1
  %39 = zext i8 %38 to i64
  %40 = bitcast %"class.std::__1::basic_string"* %0 to %"struct.std::__1::basic_string<char, std::__1::char_traits<char>, std::__1::allocator<char>>::__short"*
  %41 = getelementptr inbounds %"struct.std::__1::basic_string<char, std::__1::char_traits<char>, std::__1::allocator<char>>::__short", %"struct.std::__1::basic_string<char, std::__1::char_traits<char>, std::__1::allocator<char>>::__short"* %40, i64 0, i32 1, i64 0
  br label %42

42:                                               ; preds = %37, %32
  %43 = phi i64 [ %34, %32 ], [ %39, %37 ]
  %44 = phi i8* [ %36, %32 ], [ %41, %37 ]
  %45 = sub i64 %43, %1
  %46 = icmp ult i64 %45, %2
  %47 = select i1 %46, i64 %45, i64 %2
  %48 = sub i64 %45, %47
  %49 = icmp eq i64 %48, 0
  br i1 %49, label %54, label %50

50:                                               ; preds = %42
  %51 = getelementptr inbounds i8, i8* %44, i64 %1
  %52 = getelementptr inbounds i8, i8* %51, i64 %47
  tail call void @llvm.memmove.p0i8.p0i8.i64(i8* align 1 %51, i8* align 1 %52, i64 %48, i1 false) #20
  %53 = load i8, i8* %4, align 8, !tbaa !3
  br label %54

54:                                               ; preds = %50, %42
  %55 = phi i8 [ %5, %42 ], [ %53, %50 ]
  %56 = sub i64 %43, %47
  %57 = and i8 %55, 1
  %58 = icmp eq i8 %57, 0
  br i1 %58, label %61, label %59

59:                                               ; preds = %54
  %60 = getelementptr inbounds %"class.std::__1::basic_string", %"class.std::__1::basic_string"* %0, i64 0, i32 0, i32 0, i32 0, i32 0, i32 0, i32 1
  store i64 %56, i64* %60, align 8, !tbaa !3
  br label %64

61:                                               ; preds = %54
  %62 = trunc i64 %56 to i8
  %63 = shl i8 %62, 1
  store i8 %63, i8* %4, align 8, !tbaa !3
  br label %64

64:                                               ; preds = %61, %59
  %65 = getelementptr inbounds i8, i8* %44, i64 %56
  store i8 0, i8* %65, align 1, !tbaa !3
  br label %66

66:                                               ; preds = %19, %64, %26, %21
  ret %"class.std::__1::basic_string"* %0
}

; Function Attrs: uwtable
define weak_odr nonnull align 8 dereferenceable(24) %"class.std::__1::basic_string"* @_ZNSt3__112basic_stringIcNS_11char_traitsIcEENS_9allocatorIcEEE6appendERKS5_mm(%"class.std::__1::basic_string"* %0, %"class.std::__1::basic_string"* nonnull align 8 dereferenceable(24) %1, i64 %2, i64 %3) local_unnamed_addr #2 comdat align 2 {
  %5 = bitcast %"class.std::__1::basic_string"* %1 to i8*
  %6 = load i8, i8* %5, align 8, !tbaa !3
  %7 = and i8 %6, 1
  %8 = icmp eq i8 %7, 0
  br i1 %8, label %9, label %13

9:                                                ; preds = %4
  %10 = lshr i8 %6, 1
  %11 = zext i8 %10 to i64
  %12 = icmp ult i64 %11, %2
  br i1 %12, label %17, label %22

13:                                               ; preds = %4
  %14 = getelementptr inbounds %"class.std::__1::basic_string", %"class.std::__1::basic_string"* %1, i64 0, i32 0, i32 0, i32 0, i32 0, i32 0, i32 1
  %15 = load i64, i64* %14, align 8, !tbaa !3
  %16 = icmp ult i64 %15, %2
  br i1 %16, label %17, label %19

17:                                               ; preds = %13, %9
  %18 = bitcast %"class.std::__1::basic_string"* %0 to %"class.std::__1::__basic_string_common"*
  tail call void @_ZNKSt3__121__basic_string_commonILb1EE20__throw_out_of_rangeEv(%"class.std::__1::__basic_string_common"* %18) #19
  unreachable

19:                                               ; preds = %13
  %20 = getelementptr inbounds %"class.std::__1::basic_string", %"class.std::__1::basic_string"* %1, i64 0, i32 0, i32 0, i32 0, i32 0, i32 0, i32 2
  %21 = load i8*, i8** %20, align 8, !tbaa !3
  br label %25

22:                                               ; preds = %9
  %23 = bitcast %"class.std::__1::basic_string"* %1 to %"struct.std::__1::basic_string<char, std::__1::char_traits<char>, std::__1::allocator<char>>::__short"*
  %24 = getelementptr inbounds %"struct.std::__1::basic_string<char, std::__1::char_traits<char>, std::__1::allocator<char>>::__short", %"struct.std::__1::basic_string<char, std::__1::char_traits<char>, std::__1::allocator<char>>::__short"* %23, i64 0, i32 1, i64 0
  br label %25

25:                                               ; preds = %19, %22
  %26 = phi i64 [ %15, %19 ], [ %11, %22 ]
  %27 = phi i8* [ %21, %19 ], [ %24, %22 ]
  %28 = getelementptr inbounds i8, i8* %27, i64 %2
  %29 = sub i64 %26, %2
  %30 = icmp ult i64 %29, %3
  %31 = select i1 %30, i64 %29, i64 %3
  %32 = tail call nonnull align 8 dereferenceable(24) %"class.std::__1::basic_string"* @_ZNSt3__112basic_stringIcNS_11char_traitsIcEENS_9allocatorIcEEE6appendEPKcm(%"class.std::__1::basic_string"* %0, i8* %28, i64 %31)
  ret %"class.std::__1::basic_string"* %32
}

; Function Attrs: nounwind uwtable
define weak_odr i32 @_ZNKSt3__112basic_stringIcNS_11char_traitsIcEENS_9allocatorIcEEE7compareEPKc(%"class.std::__1::basic_string"* %0, i8* %1) local_unnamed_addr #4 comdat align 2 personality i8* bitcast (i32 (...)* @__gxx_personality_v0 to i8*) {
  %3 = tail call i64 @strlen(i8* nonnull dereferenceable(1) %1) #20
  %4 = bitcast %"class.std::__1::basic_string"* %0 to i8*
  %5 = load i8, i8* %4, align 8, !tbaa !3
  %6 = and i8 %5, 1
  %7 = icmp eq i8 %6, 0
  %8 = icmp eq i64 %3, -1
  br i1 %7, label %9, label %10

9:                                                ; preds = %2
  br i1 %8, label %11, label %19

10:                                               ; preds = %2
  br i1 %8, label %11, label %14

11:                                               ; preds = %10, %9
  %12 = bitcast %"class.std::__1::basic_string"* %0 to %"class.std::__1::__basic_string_common"*
  invoke void @_ZNKSt3__121__basic_string_commonILb1EE20__throw_out_of_rangeEv(%"class.std::__1::__basic_string_common"* %12) #19
          to label %13 unwind label %39

13:                                               ; preds = %11
  unreachable

14:                                               ; preds = %10
  %15 = getelementptr inbounds %"class.std::__1::basic_string", %"class.std::__1::basic_string"* %0, i64 0, i32 0, i32 0, i32 0, i32 0, i32 0, i32 1
  %16 = load i64, i64* %15, align 8, !tbaa !3
  %17 = getelementptr inbounds %"class.std::__1::basic_string", %"class.std::__1::basic_string"* %0, i64 0, i32 0, i32 0, i32 0, i32 0, i32 0, i32 2
  %18 = load i8*, i8** %17, align 8, !tbaa !3
  br label %24

19:                                               ; preds = %9
  %20 = lshr i8 %5, 1
  %21 = zext i8 %20 to i64
  %22 = bitcast %"class.std::__1::basic_string"* %0 to %"struct.std::__1::basic_string<char, std::__1::char_traits<char>, std::__1::allocator<char>>::__short"*
  %23 = getelementptr inbounds %"struct.std::__1::basic_string<char, std::__1::char_traits<char>, std::__1::allocator<char>>::__short", %"struct.std::__1::basic_string<char, std::__1::char_traits<char>, std::__1::allocator<char>>::__short"* %22, i64 0, i32 1, i64 0
  br label %24

24:                                               ; preds = %19, %14
  %25 = phi i64 [ %16, %14 ], [ %21, %19 ]
  %26 = phi i8* [ %18, %14 ], [ %23, %19 ]
  %27 = icmp ugt i64 %25, %3
  %28 = select i1 %27, i64 %3, i64 %25
  %29 = icmp eq i64 %28, 0
  br i1 %29, label %33, label %30

30:                                               ; preds = %24
  %31 = tail call i32 @memcmp(i8* %26, i8* %1, i64 %28) #20
  %32 = icmp eq i32 %31, 0
  br i1 %32, label %33, label %37

33:                                               ; preds = %30, %24
  %34 = icmp ult i64 %25, %3
  %35 = zext i1 %27 to i32
  %36 = select i1 %34, i32 -1, i32 %35
  br label %37

37:                                               ; preds = %33, %30
  %38 = phi i32 [ %36, %33 ], [ %31, %30 ]
  ret i32 %38

39:                                               ; preds = %11
  %40 = landingpad { i8*, i32 }
          catch i8* null
  %41 = extractvalue { i8*, i32 } %40, 0
  tail call void @__clang_call_terminate(i8* %41) #23
  unreachable
}

; Function Attrs: uwtable
define weak_odr i32 @_ZNKSt3__112basic_stringIcNS_11char_traitsIcEENS_9allocatorIcEEE7compareEmmPKcm(%"class.std::__1::basic_string"* %0, i64 %1, i64 %2, i8* %3, i64 %4) local_unnamed_addr #2 comdat align 2 {
  %6 = bitcast %"class.std::__1::basic_string"* %0 to i8*
  %7 = load i8, i8* %6, align 8, !tbaa !3
  %8 = and i8 %7, 1
  %9 = icmp eq i8 %8, 0
  br i1 %9, label %10, label %16

10:                                               ; preds = %5
  %11 = lshr i8 %7, 1
  %12 = zext i8 %11 to i64
  %13 = icmp ult i64 %12, %1
  %14 = icmp eq i64 %4, -1
  %15 = or i1 %14, %13
  br i1 %15, label %22, label %30

16:                                               ; preds = %5
  %17 = getelementptr inbounds %"class.std::__1::basic_string", %"class.std::__1::basic_string"* %0, i64 0, i32 0, i32 0, i32 0, i32 0, i32 0, i32 1
  %18 = load i64, i64* %17, align 8, !tbaa !3
  %19 = icmp ult i64 %18, %1
  %20 = icmp eq i64 %4, -1
  %21 = or i1 %20, %19
  br i1 %21, label %22, label %24

22:                                               ; preds = %16, %10
  %23 = bitcast %"class.std::__1::basic_string"* %0 to %"class.std::__1::__basic_string_common"*
  tail call void @_ZNKSt3__121__basic_string_commonILb1EE20__throw_out_of_rangeEv(%"class.std::__1::__basic_string_common"* %23) #19
  unreachable

24:                                               ; preds = %16
  %25 = sub i64 %18, %1
  %26 = icmp ult i64 %25, %2
  %27 = select i1 %26, i64 %25, i64 %2
  %28 = getelementptr inbounds %"class.std::__1::basic_string", %"class.std::__1::basic_string"* %0, i64 0, i32 0, i32 0, i32 0, i32 0, i32 0, i32 2
  %29 = load i8*, i8** %28, align 8, !tbaa !3
  br label %36

30:                                               ; preds = %10
  %31 = sub i64 %12, %1
  %32 = icmp ult i64 %31, %2
  %33 = select i1 %32, i64 %31, i64 %2
  %34 = bitcast %"class.std::__1::basic_string"* %0 to %"struct.std::__1::basic_string<char, std::__1::char_traits<char>, std::__1::allocator<char>>::__short"*
  %35 = getelementptr inbounds %"struct.std::__1::basic_string<char, std::__1::char_traits<char>, std::__1::allocator<char>>::__short", %"struct.std::__1::basic_string<char, std::__1::char_traits<char>, std::__1::allocator<char>>::__short"* %34, i64 0, i32 1, i64 0
  br label %36

36:                                               ; preds = %24, %30
  %37 = phi i64 [ %27, %24 ], [ %33, %30 ]
  %38 = phi i8* [ %29, %24 ], [ %35, %30 ]
  %39 = icmp ugt i64 %37, %4
  %40 = select i1 %39, i64 %4, i64 %37
  %41 = icmp eq i64 %40, 0
  br i1 %41, label %46, label %42

42:                                               ; preds = %36
  %43 = getelementptr inbounds i8, i8* %38, i64 %1
  %44 = tail call i32 @memcmp(i8* %43, i8* %3, i64 %40) #20
  %45 = icmp eq i32 %44, 0
  br i1 %45, label %46, label %50

46:                                               ; preds = %36, %42
  %47 = icmp ult i64 %37, %4
  %48 = zext i1 %39 to i32
  %49 = select i1 %47, i32 -1, i32 %48
  ret i32 %49

50:                                               ; preds = %42
  ret i32 %44
}

declare i32 @__gxx_personality_v0(...)

; Function Attrs: noinline noreturn nounwind
define linkonce_odr hidden void @__clang_call_terminate(i8* %0) local_unnamed_addr #7 comdat {
  %2 = tail call i8* @__cxa_begin_catch(i8* %0) #20
  tail call void @_ZSt9terminatev() #23
  unreachable
}

declare i8* @__cxa_begin_catch(i8*) local_unnamed_addr

declare void @_ZSt9terminatev() local_unnamed_addr

; Function Attrs: uwtable
define weak_odr i32 @_ZNKSt3__112basic_stringIcNS_11char_traitsIcEENS_9allocatorIcEEE7compareEmmPKc(%"class.std::__1::basic_string"* %0, i64 %1, i64 %2, i8* %3) local_unnamed_addr #2 comdat align 2 {
  %5 = tail call i64 @strlen(i8* nonnull dereferenceable(1) %3) #20
  %6 = bitcast %"class.std::__1::basic_string"* %0 to i8*
  %7 = load i8, i8* %6, align 8, !tbaa !3
  %8 = and i8 %7, 1
  %9 = icmp eq i8 %8, 0
  br i1 %9, label %10, label %16

10:                                               ; preds = %4
  %11 = lshr i8 %7, 1
  %12 = zext i8 %11 to i64
  %13 = icmp ult i64 %12, %1
  %14 = icmp eq i64 %5, -1
  %15 = or i1 %14, %13
  br i1 %15, label %22, label %30

16:                                               ; preds = %4
  %17 = getelementptr inbounds %"class.std::__1::basic_string", %"class.std::__1::basic_string"* %0, i64 0, i32 0, i32 0, i32 0, i32 0, i32 0, i32 1
  %18 = load i64, i64* %17, align 8, !tbaa !3
  %19 = icmp ult i64 %18, %1
  %20 = icmp eq i64 %5, -1
  %21 = or i1 %20, %19
  br i1 %21, label %22, label %24

22:                                               ; preds = %16, %10
  %23 = bitcast %"class.std::__1::basic_string"* %0 to %"class.std::__1::__basic_string_common"*
  tail call void @_ZNKSt3__121__basic_string_commonILb1EE20__throw_out_of_rangeEv(%"class.std::__1::__basic_string_common"* %23) #19
  unreachable

24:                                               ; preds = %16
  %25 = sub i64 %18, %1
  %26 = icmp ult i64 %25, %2
  %27 = select i1 %26, i64 %25, i64 %2
  %28 = getelementptr inbounds %"class.std::__1::basic_string", %"class.std::__1::basic_string"* %0, i64 0, i32 0, i32 0, i32 0, i32 0, i32 0, i32 2
  %29 = load i8*, i8** %28, align 8, !tbaa !3
  br label %36

30:                                               ; preds = %10
  %31 = sub i64 %12, %1
  %32 = icmp ult i64 %31, %2
  %33 = select i1 %32, i64 %31, i64 %2
  %34 = bitcast %"class.std::__1::basic_string"* %0 to %"struct.std::__1::basic_string<char, std::__1::char_traits<char>, std::__1::allocator<char>>::__short"*
  %35 = getelementptr inbounds %"struct.std::__1::basic_string<char, std::__1::char_traits<char>, std::__1::allocator<char>>::__short", %"struct.std::__1::basic_string<char, std::__1::char_traits<char>, std::__1::allocator<char>>::__short"* %34, i64 0, i32 1, i64 0
  br label %36

36:                                               ; preds = %30, %24
  %37 = phi i64 [ %27, %24 ], [ %33, %30 ]
  %38 = phi i8* [ %29, %24 ], [ %35, %30 ]
  %39 = icmp ugt i64 %37, %5
  %40 = select i1 %39, i64 %5, i64 %37
  %41 = icmp eq i64 %40, 0
  br i1 %41, label %46, label %42

42:                                               ; preds = %36
  %43 = getelementptr inbounds i8, i8* %38, i64 %1
  %44 = tail call i32 @memcmp(i8* %43, i8* %3, i64 %40) #20
  %45 = icmp eq i32 %44, 0
  br i1 %45, label %46, label %50

46:                                               ; preds = %42, %36
  %47 = icmp ult i64 %37, %5
  %48 = zext i1 %39 to i32
  %49 = select i1 %47, i32 -1, i32 %48
  br label %50

50:                                               ; preds = %42, %46
  %51 = phi i32 [ %49, %46 ], [ %44, %42 ]
  ret i32 %51
}

; Function Attrs: uwtable
define weak_odr nonnull align 1 dereferenceable(1) i8* @_ZNSt3__112basic_stringIcNS_11char_traitsIcEENS_9allocatorIcEEE2atEm(%"class.std::__1::basic_string"* %0, i64 %1) local_unnamed_addr #2 comdat align 2 {
  %3 = bitcast %"class.std::__1::basic_string"* %0 to i8*
  %4 = load i8, i8* %3, align 8, !tbaa !3
  %5 = and i8 %4, 1
  %6 = icmp eq i8 %5, 0
  br i1 %6, label %7, label %11

7:                                                ; preds = %2
  %8 = lshr i8 %4, 1
  %9 = zext i8 %8 to i64
  %10 = icmp ugt i64 %9, %1
  br i1 %10, label %20, label %15

11:                                               ; preds = %2
  %12 = getelementptr inbounds %"class.std::__1::basic_string", %"class.std::__1::basic_string"* %0, i64 0, i32 0, i32 0, i32 0, i32 0, i32 0, i32 1
  %13 = load i64, i64* %12, align 8, !tbaa !3
  %14 = icmp ugt i64 %13, %1
  br i1 %14, label %17, label %15

15:                                               ; preds = %11, %7
  %16 = bitcast %"class.std::__1::basic_string"* %0 to %"class.std::__1::__basic_string_common"*
  tail call void @_ZNKSt3__121__basic_string_commonILb1EE20__throw_out_of_rangeEv(%"class.std::__1::__basic_string_common"* %16) #19
  unreachable

17:                                               ; preds = %11
  %18 = getelementptr inbounds %"class.std::__1::basic_string", %"class.std::__1::basic_string"* %0, i64 0, i32 0, i32 0, i32 0, i32 0, i32 0, i32 2
  %19 = load i8*, i8** %18, align 8, !tbaa !3
  br label %23

20:                                               ; preds = %7
  %21 = bitcast %"class.std::__1::basic_string"* %0 to %"struct.std::__1::basic_string<char, std::__1::char_traits<char>, std::__1::allocator<char>>::__short"*
  %22 = getelementptr inbounds %"struct.std::__1::basic_string<char, std::__1::char_traits<char>, std::__1::allocator<char>>::__short", %"struct.std::__1::basic_string<char, std::__1::char_traits<char>, std::__1::allocator<char>>::__short"* %21, i64 0, i32 1, i64 0
  br label %23

23:                                               ; preds = %17, %20
  %24 = phi i8* [ %19, %17 ], [ %22, %20 ]
  %25 = getelementptr inbounds i8, i8* %24, i64 %1
  ret i8* %25
}

; Function Attrs: uwtable
define weak_odr nonnull align 8 dereferenceable(24) %"class.std::__1::basic_string"* @_ZNSt3__112basic_stringIcNS_11char_traitsIcEENS_9allocatorIcEEE6assignEPKc(%"class.std::__1::basic_string"* %0, i8* %1) local_unnamed_addr #2 comdat align 2 {
  %3 = tail call i64 @strlen(i8* nonnull dereferenceable(1) %1) #20
  %4 = tail call nonnull align 8 dereferenceable(24) %"class.std::__1::basic_string"* @_ZNSt3__112basic_stringIcNS_11char_traitsIcEENS_9allocatorIcEEE17__assign_externalEPKcm(%"class.std::__1::basic_string"* %0, i8* nonnull %1, i64 %3)
  ret %"class.std::__1::basic_string"* %4
}

; Function Attrs: nounwind uwtable
define weak_odr i64 @_ZNKSt3__112basic_stringIcNS_11char_traitsIcEENS_9allocatorIcEEE4findEPKcmm(%"class.std::__1::basic_string"* %0, i8* %1, i64 %2, i64 %3) local_unnamed_addr #4 comdat align 2 {
  %5 = bitcast %"class.std::__1::basic_string"* %0 to i8*
  %6 = load i8, i8* %5, align 8, !tbaa !3
  %7 = and i8 %6, 1
  %8 = icmp eq i8 %7, 0
  br i1 %8, label %14, label %9

9:                                                ; preds = %4
  %10 = getelementptr inbounds %"class.std::__1::basic_string", %"class.std::__1::basic_string"* %0, i64 0, i32 0, i32 0, i32 0, i32 0, i32 0, i32 2
  %11 = load i8*, i8** %10, align 8, !tbaa !3
  %12 = getelementptr inbounds %"class.std::__1::basic_string", %"class.std::__1::basic_string"* %0, i64 0, i32 0, i32 0, i32 0, i32 0, i32 0, i32 1
  %13 = load i64, i64* %12, align 8, !tbaa !3
  br label %19

14:                                               ; preds = %4
  %15 = bitcast %"class.std::__1::basic_string"* %0 to %"struct.std::__1::basic_string<char, std::__1::char_traits<char>, std::__1::allocator<char>>::__short"*
  %16 = getelementptr inbounds %"struct.std::__1::basic_string<char, std::__1::char_traits<char>, std::__1::allocator<char>>::__short", %"struct.std::__1::basic_string<char, std::__1::char_traits<char>, std::__1::allocator<char>>::__short"* %15, i64 0, i32 1, i64 0
  %17 = lshr i8 %6, 1
  %18 = zext i8 %17 to i64
  br label %19

19:                                               ; preds = %9, %14
  %20 = phi i8* [ %11, %9 ], [ %16, %14 ]
  %21 = phi i64 [ %13, %9 ], [ %18, %14 ]
  %22 = icmp ult i64 %21, %2
  br i1 %22, label %61, label %23

23:                                               ; preds = %19
  %24 = icmp eq i64 %3, 0
  br i1 %24, label %61, label %25

25:                                               ; preds = %23
  %26 = getelementptr inbounds i8, i8* %20, i64 %2
  %27 = getelementptr inbounds i8, i8* %20, i64 %21
  %28 = ptrtoint i8* %27 to i64
  %29 = ptrtoint i8* %26 to i64
  %30 = sub i64 %28, %29
  %31 = icmp slt i64 %30, %3
  br i1 %31, label %54, label %32

32:                                               ; preds = %25
  %33 = load i8, i8* %1, align 1, !tbaa !3
  %34 = zext i8 %33 to i32
  br label %35

35:                                               ; preds = %49, %32
  %36 = phi i64 [ %52, %49 ], [ %30, %32 ]
  %37 = phi i8* [ %50, %49 ], [ %26, %32 ]
  %38 = sub nsw i64 %36, %3
  %39 = add nsw i64 %38, 1
  %40 = icmp eq i64 %39, 0
  br i1 %40, label %54, label %41

41:                                               ; preds = %35
  %42 = tail call i8* @memchr(i8* %37, i32 %34, i64 %39) #20
  %43 = icmp eq i8* %42, null
  br i1 %43, label %54, label %44

44:                                               ; preds = %41
  %45 = tail call i32 @bcmp(i8* nonnull %42, i8* nonnull %1, i64 %3) #20
  %46 = icmp eq i32 %45, 0
  br i1 %46, label %47, label %49

47:                                               ; preds = %44
  %48 = ptrtoint i8* %42 to i64
  br label %54

49:                                               ; preds = %44
  %50 = getelementptr inbounds i8, i8* %42, i64 1
  %51 = ptrtoint i8* %50 to i64
  %52 = sub i64 %28, %51
  %53 = icmp slt i64 %52, %3
  br i1 %53, label %54, label %35

54:                                               ; preds = %49, %41, %35, %47, %25
  %55 = phi i64 [ %28, %25 ], [ %48, %47 ], [ %28, %35 ], [ %28, %41 ], [ %28, %49 ]
  %56 = phi i8* [ %27, %25 ], [ %42, %47 ], [ %27, %35 ], [ %27, %41 ], [ %27, %49 ]
  %57 = icmp eq i8* %56, %27
  %58 = ptrtoint i8* %20 to i64
  %59 = sub i64 %55, %58
  %60 = select i1 %57, i64 -1, i64 %59
  br label %61

61:                                               ; preds = %19, %23, %54
  %62 = phi i64 [ -1, %19 ], [ %2, %23 ], [ %60, %54 ]
  ret i64 %62
}

; Function Attrs: uwtable
define weak_odr i32 @_ZNKSt3__112basic_stringIcNS_11char_traitsIcEENS_9allocatorIcEEE7compareEmmRKS5_mm(%"class.std::__1::basic_string"* %0, i64 %1, i64 %2, %"class.std::__1::basic_string"* nonnull align 8 dereferenceable(24) %3, i64 %4, i64 %5) local_unnamed_addr #2 comdat align 2 personality i32 (...)* @__gxx_personality_v0 {
  %7 = bitcast %"class.std::__1::basic_string"* %3 to i8*
  %8 = load i8, i8* %7, align 8, !tbaa !3
  %9 = and i8 %8, 1
  %10 = icmp eq i8 %9, 0
  %11 = getelementptr inbounds %"class.std::__1::basic_string", %"class.std::__1::basic_string"* %3, i64 0, i32 0, i32 0, i32 0, i32 0, i32 0, i32 2
  %12 = load i8*, i8** %11, align 8
  %13 = getelementptr inbounds %"class.std::__1::basic_string", %"class.std::__1::basic_string"* %3, i64 0, i32 0, i32 0, i32 0, i32 0, i32 0, i32 1
  %14 = load i64, i64* %13, align 8
  %15 = bitcast %"class.std::__1::basic_string"* %3 to %"struct.std::__1::basic_string<char, std::__1::char_traits<char>, std::__1::allocator<char>>::__short"*
  %16 = getelementptr inbounds %"struct.std::__1::basic_string<char, std::__1::char_traits<char>, std::__1::allocator<char>>::__short", %"struct.std::__1::basic_string<char, std::__1::char_traits<char>, std::__1::allocator<char>>::__short"* %15, i64 0, i32 1, i64 0
  %17 = lshr i8 %8, 1
  %18 = zext i8 %17 to i64
  %19 = select i1 %10, i8* %16, i8* %12
  %20 = select i1 %10, i64 %18, i64 %14
  %21 = bitcast %"class.std::__1::basic_string"* %0 to i8*
  %22 = load i8, i8* %21, align 8, !tbaa !3
  %23 = and i8 %22, 1
  %24 = icmp eq i8 %23, 0
  br i1 %24, label %30, label %25

25:                                               ; preds = %6
  %26 = getelementptr inbounds %"class.std::__1::basic_string", %"class.std::__1::basic_string"* %0, i64 0, i32 0, i32 0, i32 0, i32 0, i32 0, i32 2
  %27 = load i8*, i8** %26, align 8, !tbaa !3
  %28 = getelementptr inbounds %"class.std::__1::basic_string", %"class.std::__1::basic_string"* %0, i64 0, i32 0, i32 0, i32 0, i32 0, i32 0, i32 1
  %29 = load i64, i64* %28, align 8, !tbaa !3
  br label %35

30:                                               ; preds = %6
  %31 = bitcast %"class.std::__1::basic_string"* %0 to %"struct.std::__1::basic_string<char, std::__1::char_traits<char>, std::__1::allocator<char>>::__short"*
  %32 = getelementptr inbounds %"struct.std::__1::basic_string<char, std::__1::char_traits<char>, std::__1::allocator<char>>::__short", %"struct.std::__1::basic_string<char, std::__1::char_traits<char>, std::__1::allocator<char>>::__short"* %31, i64 0, i32 1, i64 0
  %33 = lshr i8 %22, 1
  %34 = zext i8 %33 to i64
  br label %35

35:                                               ; preds = %30, %25
  %36 = phi i8* [ %27, %25 ], [ %32, %30 ]
  %37 = phi i64 [ %29, %25 ], [ %34, %30 ]
  %38 = icmp ult i64 %37, %1
  br i1 %38, label %39, label %40

39:                                               ; preds = %35
  tail call void @_ZNSt3__120__throw_out_of_rangeEPKc(i8* getelementptr inbounds ([20 x i8], [20 x i8]* @.str.16, i64 0, i64 0)) #19
  unreachable

40:                                               ; preds = %35
  %41 = getelementptr inbounds i8, i8* %36, i64 %1
  %42 = sub i64 %37, %1
  %43 = icmp ult i64 %42, %2
  %44 = select i1 %43, i64 %42, i64 %2
  %45 = icmp ult i64 %20, %4
  br i1 %45, label %46, label %47

46:                                               ; preds = %40
  tail call void @_ZNSt3__120__throw_out_of_rangeEPKc(i8* getelementptr inbounds ([20 x i8], [20 x i8]* @.str.16, i64 0, i64 0)) #19
  unreachable

47:                                               ; preds = %40
  %48 = sub i64 %20, %4
  %49 = icmp ult i64 %48, %5
  %50 = select i1 %49, i64 %48, i64 %5
  %51 = icmp ugt i64 %44, %50
  %52 = select i1 %51, i64 %50, i64 %44
  %53 = icmp eq i64 %52, 0
  br i1 %53, label %58, label %54

54:                                               ; preds = %47
  %55 = getelementptr inbounds i8, i8* %19, i64 %4
  %56 = tail call i32 @memcmp(i8* %41, i8* %55, i64 %52) #20
  %57 = icmp eq i32 %56, 0
  br i1 %57, label %58, label %63

58:                                               ; preds = %54, %47
  %59 = icmp eq i64 %44, %50
  br i1 %59, label %63, label %60

60:                                               ; preds = %58
  %61 = icmp ult i64 %44, %50
  %62 = select i1 %61, i32 -1, i32 1
  br label %63

63:                                               ; preds = %54, %58, %60
  %64 = phi i32 [ %56, %54 ], [ %62, %60 ], [ 0, %58 ]
  ret i32 %64
}

; Function Attrs: uwtable
define weak_odr nonnull align 8 dereferenceable(24) %"class.std::__1::basic_string"* @_ZNSt3__112basic_stringIcNS_11char_traitsIcEENS_9allocatorIcEEEaSERKS5_(%"class.std::__1::basic_string"* %0, %"class.std::__1::basic_string"* nonnull align 8 dereferenceable(24) %1) local_unnamed_addr #2 comdat align 2 personality i32 (...)* @__gxx_personality_v0 {
  %3 = icmp eq %"class.std::__1::basic_string"* %0, %1
  br i1 %3, label %107, label %4

4:                                                ; preds = %2
  %5 = bitcast %"class.std::__1::basic_string"* %0 to i8*
  %6 = load i8, i8* %5, align 8, !tbaa !3
  %7 = and i8 %6, 1
  %8 = icmp eq i8 %7, 0
  %9 = bitcast %"class.std::__1::basic_string"* %1 to i8*
  %10 = load i8, i8* %9, align 8, !tbaa !3
  %11 = and i8 %10, 1
  %12 = icmp eq i8 %11, 0
  br i1 %8, label %13, label %46

13:                                               ; preds = %4
  br i1 %12, label %14, label %15

14:                                               ; preds = %13
  tail call void @llvm.memcpy.p0i8.p0i8.i64(i8* nonnull align 8 dereferenceable(24) %5, i8* nonnull align 8 dereferenceable(24) %9, i64 24, i1 false), !tbaa.struct !6
  br label %107

15:                                               ; preds = %13
  %16 = getelementptr inbounds %"class.std::__1::basic_string", %"class.std::__1::basic_string"* %1, i64 0, i32 0, i32 0, i32 0, i32 0, i32 0, i32 2
  %17 = load i8*, i8** %16, align 8, !tbaa !3
  %18 = getelementptr inbounds %"class.std::__1::basic_string", %"class.std::__1::basic_string"* %1, i64 0, i32 0, i32 0, i32 0, i32 0, i32 0, i32 1
  %19 = load i64, i64* %18, align 8, !tbaa !3
  %20 = icmp ult i64 %19, 23
  br i1 %20, label %21, label %30

21:                                               ; preds = %15
  %22 = bitcast %"class.std::__1::basic_string"* %0 to %"struct.std::__1::basic_string<char, std::__1::char_traits<char>, std::__1::allocator<char>>::__short"*
  %23 = trunc i64 %19 to i8
  %24 = shl nuw nsw i8 %23, 1
  store i8 %24, i8* %5, align 8, !tbaa !3
  %25 = icmp eq i64 %19, 0
  br i1 %25, label %28, label %26

26:                                               ; preds = %21
  %27 = getelementptr inbounds %"struct.std::__1::basic_string<char, std::__1::char_traits<char>, std::__1::allocator<char>>::__short", %"struct.std::__1::basic_string<char, std::__1::char_traits<char>, std::__1::allocator<char>>::__short"* %22, i64 0, i32 1, i64 0
  tail call void @llvm.memcpy.p0i8.p0i8.i64(i8* nonnull align 1 %27, i8* align 1 %17, i64 %19, i1 false) #20
  br label %28

28:                                               ; preds = %26, %21
  %29 = getelementptr inbounds %"struct.std::__1::basic_string<char, std::__1::char_traits<char>, std::__1::allocator<char>>::__short", %"struct.std::__1::basic_string<char, std::__1::char_traits<char>, std::__1::allocator<char>>::__short"* %22, i64 0, i32 1, i64 %19
  store i8 0, i8* %29, align 1, !tbaa !3
  br label %107

30:                                               ; preds = %15
  %31 = add i64 %19, -22
  %32 = icmp ugt i64 %31, -40
  br i1 %32, label %33, label %35

33:                                               ; preds = %30
  %34 = bitcast %"class.std::__1::basic_string"* %0 to %"class.std::__1::__basic_string_common"*
  tail call void @_ZNKSt3__121__basic_string_commonILb1EE20__throw_length_errorEv(%"class.std::__1::__basic_string_common"* %34) #19
  unreachable

35:                                               ; preds = %30
  %36 = icmp ugt i64 %19, 44
  %37 = select i1 %36, i64 %19, i64 44
  %38 = add nuw i64 %37, 16
  %39 = and i64 %38, -16
  %40 = tail call noalias nonnull i8* @_Znwm(i64 %39) #21
  tail call void @llvm.memcpy.p0i8.p0i8.i64(i8* nonnull align 1 %40, i8* align 1 %17, i64 %19, i1 false) #20
  %41 = getelementptr inbounds %"class.std::__1::basic_string", %"class.std::__1::basic_string"* %0, i64 0, i32 0, i32 0, i32 0, i32 0, i32 0, i32 2
  store i8* %40, i8** %41, align 8, !tbaa !3
  %42 = or i64 %39, 1
  %43 = getelementptr inbounds %"class.std::__1::basic_string", %"class.std::__1::basic_string"* %0, i64 0, i32 0, i32 0, i32 0, i32 0, i32 0, i32 0
  store i64 %42, i64* %43, align 8, !tbaa !3
  %44 = getelementptr inbounds %"class.std::__1::basic_string", %"class.std::__1::basic_string"* %0, i64 0, i32 0, i32 0, i32 0, i32 0, i32 0, i32 1
  store i64 %19, i64* %44, align 8, !tbaa !3
  %45 = getelementptr inbounds i8, i8* %40, i64 %19
  store i8 0, i8* %45, align 1, !tbaa !3
  br label %107

46:                                               ; preds = %4
  %47 = getelementptr inbounds %"class.std::__1::basic_string", %"class.std::__1::basic_string"* %1, i64 0, i32 0, i32 0, i32 0, i32 0, i32 0, i32 2
  %48 = load i8*, i8** %47, align 8
  %49 = getelementptr inbounds %"class.std::__1::basic_string", %"class.std::__1::basic_string"* %1, i64 0, i32 0, i32 0, i32 0, i32 0, i32 0, i32 1
  %50 = load i64, i64* %49, align 8
  %51 = bitcast %"class.std::__1::basic_string"* %1 to %"struct.std::__1::basic_string<char, std::__1::char_traits<char>, std::__1::allocator<char>>::__short"*
  %52 = getelementptr inbounds %"struct.std::__1::basic_string<char, std::__1::char_traits<char>, std::__1::allocator<char>>::__short", %"struct.std::__1::basic_string<char, std::__1::char_traits<char>, std::__1::allocator<char>>::__short"* %51, i64 0, i32 1, i64 0
  %53 = lshr i8 %10, 1
  %54 = zext i8 %53 to i64
  %55 = select i1 %12, i8* %52, i8* %48
  %56 = select i1 %12, i64 %54, i64 %50
  %57 = getelementptr inbounds %"class.std::__1::basic_string", %"class.std::__1::basic_string"* %0, i64 0, i32 0, i32 0, i32 0, i32 0, i32 0, i32 0
  %58 = load i64, i64* %57, align 8, !tbaa !3
  %59 = and i64 %58, -2
  %60 = icmp ugt i64 %59, %56
  br i1 %60, label %61, label %69

61:                                               ; preds = %46
  %62 = getelementptr inbounds %"class.std::__1::basic_string", %"class.std::__1::basic_string"* %0, i64 0, i32 0, i32 0, i32 0, i32 0, i32 0, i32 2
  %63 = load i8*, i8** %62, align 8, !tbaa !3
  %64 = getelementptr inbounds %"class.std::__1::basic_string", %"class.std::__1::basic_string"* %0, i64 0, i32 0, i32 0, i32 0, i32 0, i32 0, i32 1
  store i64 %56, i64* %64, align 8, !tbaa !3
  %65 = icmp eq i64 %56, 0
  br i1 %65, label %67, label %66

66:                                               ; preds = %61
  tail call void @llvm.memcpy.p0i8.p0i8.i64(i8* align 1 %63, i8* align 1 %55, i64 %56, i1 false) #20
  br label %67

67:                                               ; preds = %66, %61
  %68 = getelementptr inbounds i8, i8* %63, i64 %56
  store i8 0, i8* %68, align 1, !tbaa !3
  br label %107

69:                                               ; preds = %46
  %70 = getelementptr inbounds %"class.std::__1::basic_string", %"class.std::__1::basic_string"* %0, i64 0, i32 0, i32 0, i32 0, i32 0, i32 0, i32 1
  %71 = add i64 %59, -1
  %72 = add i64 %56, 1
  %73 = sub i64 %72, %59
  %74 = sub i64 -17, %59
  %75 = icmp ult i64 %74, %73
  br i1 %75, label %76, label %78

76:                                               ; preds = %69
  %77 = bitcast %"class.std::__1::basic_string"* %0 to %"class.std::__1::__basic_string_common"*
  tail call void @_ZNKSt3__121__basic_string_commonILb1EE20__throw_length_errorEv(%"class.std::__1::__basic_string_common"* %77) #19
  unreachable

78:                                               ; preds = %69
  %79 = and i64 %58, 1
  %80 = icmp eq i64 %79, 0
  br i1 %80, label %84, label %81

81:                                               ; preds = %78
  %82 = getelementptr inbounds %"class.std::__1::basic_string", %"class.std::__1::basic_string"* %0, i64 0, i32 0, i32 0, i32 0, i32 0, i32 0, i32 2
  %83 = load i8*, i8** %82, align 8, !tbaa !3
  br label %87

84:                                               ; preds = %78
  %85 = bitcast %"class.std::__1::basic_string"* %0 to %"struct.std::__1::basic_string<char, std::__1::char_traits<char>, std::__1::allocator<char>>::__short"*
  %86 = getelementptr inbounds %"struct.std::__1::basic_string<char, std::__1::char_traits<char>, std::__1::allocator<char>>::__short", %"struct.std::__1::basic_string<char, std::__1::char_traits<char>, std::__1::allocator<char>>::__short"* %85, i64 0, i32 1, i64 0
  br label %87

87:                                               ; preds = %84, %81
  %88 = phi i8* [ %83, %81 ], [ %86, %84 ]
  %89 = icmp ult i64 %71, 9223372036854775783
  br i1 %89, label %90, label %98

90:                                               ; preds = %87
  %91 = shl nuw i64 %71, 1
  %92 = icmp ugt i64 %91, %56
  %93 = select i1 %92, i64 %91, i64 %56
  %94 = add i64 %93, 16
  %95 = and i64 %94, -16
  %96 = icmp ult i64 %93, 23
  %97 = select i1 %96, i64 23, i64 %95
  br label %98

98:                                               ; preds = %90, %87
  %99 = phi i64 [ %97, %90 ], [ -17, %87 ]
  %100 = tail call noalias nonnull i8* @_Znwm(i64 %99) #21
  %101 = icmp eq i64 %56, 0
  br i1 %101, label %103, label %102

102:                                              ; preds = %98
  tail call void @llvm.memcpy.p0i8.p0i8.i64(i8* nonnull align 1 %100, i8* align 1 %55, i64 %56, i1 false) #20
  br label %103

103:                                              ; preds = %102, %98
  tail call void @_ZdlPv(i8* %88) #22
  %104 = getelementptr inbounds %"class.std::__1::basic_string", %"class.std::__1::basic_string"* %0, i64 0, i32 0, i32 0, i32 0, i32 0, i32 0, i32 2
  store i8* %100, i8** %104, align 8, !tbaa !3
  %105 = or i64 %99, 1
  store i64 %105, i64* %57, align 8, !tbaa !3
  store i64 %56, i64* %70, align 8, !tbaa !3
  %106 = getelementptr inbounds i8, i8* %100, i64 %56
  store i8 0, i8* %106, align 1, !tbaa !3
  br label %107

107:                                              ; preds = %103, %67, %35, %28, %14, %2
  ret %"class.std::__1::basic_string"* %0
}

; Function Attrs: uwtable
define weak_odr nonnull align 8 dereferenceable(24) %"class.std::__1::basic_string"* @_ZNSt3__112basic_stringIcNS_11char_traitsIcEENS_9allocatorIcEEE6appendEPKc(%"class.std::__1::basic_string"* %0, i8* %1) local_unnamed_addr #2 comdat align 2 {
  %3 = tail call i64 @strlen(i8* nonnull dereferenceable(1) %1) #20
  %4 = tail call nonnull align 8 dereferenceable(24) %"class.std::__1::basic_string"* @_ZNSt3__112basic_stringIcNS_11char_traitsIcEENS_9allocatorIcEEE6appendEPKcm(%"class.std::__1::basic_string"* %0, i8* %1, i64 %3)
  ret %"class.std::__1::basic_string"* %4
}

; Function Attrs: uwtable
define weak_odr nonnull align 8 dereferenceable(24) %"class.std::__1::basic_string"* @_ZNSt3__112basic_stringIcNS_11char_traitsIcEENS_9allocatorIcEEE7replaceEmmRKS5_mm(%"class.std::__1::basic_string"* %0, i64 %1, i64 %2, %"class.std::__1::basic_string"* nonnull align 8 dereferenceable(24) %3, i64 %4, i64 %5) local_unnamed_addr #2 comdat align 2 {
  %7 = bitcast %"class.std::__1::basic_string"* %3 to i8*
  %8 = load i8, i8* %7, align 8, !tbaa !3
  %9 = and i8 %8, 1
  %10 = icmp eq i8 %9, 0
  br i1 %10, label %11, label %15

11:                                               ; preds = %6
  %12 = lshr i8 %8, 1
  %13 = zext i8 %12 to i64
  %14 = icmp ult i64 %13, %4
  br i1 %14, label %19, label %24

15:                                               ; preds = %6
  %16 = getelementptr inbounds %"class.std::__1::basic_string", %"class.std::__1::basic_string"* %3, i64 0, i32 0, i32 0, i32 0, i32 0, i32 0, i32 1
  %17 = load i64, i64* %16, align 8, !tbaa !3
  %18 = icmp ult i64 %17, %4
  br i1 %18, label %19, label %21

19:                                               ; preds = %15, %11
  %20 = bitcast %"class.std::__1::basic_string"* %0 to %"class.std::__1::__basic_string_common"*
  tail call void @_ZNKSt3__121__basic_string_commonILb1EE20__throw_out_of_rangeEv(%"class.std::__1::__basic_string_common"* %20) #19
  unreachable

21:                                               ; preds = %15
  %22 = getelementptr inbounds %"class.std::__1::basic_string", %"class.std::__1::basic_string"* %3, i64 0, i32 0, i32 0, i32 0, i32 0, i32 0, i32 2
  %23 = load i8*, i8** %22, align 8, !tbaa !3
  br label %27

24:                                               ; preds = %11
  %25 = bitcast %"class.std::__1::basic_string"* %3 to %"struct.std::__1::basic_string<char, std::__1::char_traits<char>, std::__1::allocator<char>>::__short"*
  %26 = getelementptr inbounds %"struct.std::__1::basic_string<char, std::__1::char_traits<char>, std::__1::allocator<char>>::__short", %"struct.std::__1::basic_string<char, std::__1::char_traits<char>, std::__1::allocator<char>>::__short"* %25, i64 0, i32 1, i64 0
  br label %27

27:                                               ; preds = %21, %24
  %28 = phi i64 [ %17, %21 ], [ %13, %24 ]
  %29 = phi i8* [ %23, %21 ], [ %26, %24 ]
  %30 = getelementptr inbounds i8, i8* %29, i64 %4
  %31 = sub i64 %28, %4
  %32 = icmp ult i64 %31, %5
  %33 = select i1 %32, i64 %31, i64 %5
  %34 = tail call nonnull align 8 dereferenceable(24) %"class.std::__1::basic_string"* @_ZNSt3__112basic_stringIcNS_11char_traitsIcEENS_9allocatorIcEEE7replaceEmmPKcm(%"class.std::__1::basic_string"* %0, i64 %1, i64 %2, i8* %30, i64 %33)
  ret %"class.std::__1::basic_string"* %34
}

; Function Attrs: uwtable
define weak_odr i8* @_ZNSt3__112basic_stringIcNS_11char_traitsIcEENS_9allocatorIcEEE6insertENS_11__wrap_iterIPKcEEc(%"class.std::__1::basic_string"* %0, i8* %1, i8 signext %2) local_unnamed_addr #2 comdat align 2 personality i32 (...)* @__gxx_personality_v0 {
  %4 = ptrtoint i8* %1 to i64
  %5 = bitcast %"class.std::__1::basic_string"* %0 to i8*
  %6 = load i8, i8* %5, align 8, !tbaa !3
  %7 = and i8 %6, 1
  %8 = icmp eq i8 %7, 0
  br i1 %8, label %9, label %17

9:                                                ; preds = %3
  %10 = bitcast %"class.std::__1::basic_string"* %0 to %"struct.std::__1::basic_string<char, std::__1::char_traits<char>, std::__1::allocator<char>>::__short"*
  %11 = getelementptr inbounds %"struct.std::__1::basic_string<char, std::__1::char_traits<char>, std::__1::allocator<char>>::__short", %"struct.std::__1::basic_string<char, std::__1::char_traits<char>, std::__1::allocator<char>>::__short"* %10, i64 0, i32 1, i64 0
  %12 = ptrtoint i8* %11 to i64
  %13 = sub i64 %4, %12
  %14 = lshr i8 %6, 1
  %15 = zext i8 %14 to i64
  %16 = icmp eq i8 %14, 22
  br i1 %16, label %36, label %70

17:                                               ; preds = %3
  %18 = getelementptr inbounds %"class.std::__1::basic_string", %"class.std::__1::basic_string"* %0, i64 0, i32 0, i32 0, i32 0, i32 0, i32 0, i32 2
  %19 = bitcast i8** %18 to i64*
  %20 = load i64, i64* %19, align 8, !tbaa !3
  %21 = sub i64 %4, %20
  %22 = getelementptr inbounds %"class.std::__1::basic_string", %"class.std::__1::basic_string"* %0, i64 0, i32 0, i32 0, i32 0, i32 0, i32 0, i32 1
  %23 = load i64, i64* %22, align 8, !tbaa !3
  %24 = getelementptr inbounds %"class.std::__1::basic_string", %"class.std::__1::basic_string"* %0, i64 0, i32 0, i32 0, i32 0, i32 0, i32 0, i32 0
  %25 = load i64, i64* %24, align 8, !tbaa !3
  %26 = and i64 %25, -2
  %27 = add i64 %26, -1
  %28 = icmp eq i64 %27, %23
  %29 = inttoptr i64 %20 to i8*
  br i1 %28, label %30, label %70

30:                                               ; preds = %17
  %31 = icmp eq i64 %26, -16
  br i1 %31, label %32, label %34

32:                                               ; preds = %30
  %33 = bitcast %"class.std::__1::basic_string"* %0 to %"class.std::__1::__basic_string_common"*
  tail call void @_ZNKSt3__121__basic_string_commonILb1EE20__throw_length_errorEv(%"class.std::__1::__basic_string_common"* %33) #19
  unreachable

34:                                               ; preds = %30
  %35 = icmp ult i64 %23, 9223372036854775783
  br i1 %35, label %36, label %48

36:                                               ; preds = %9, %34
  %37 = phi i8* [ %29, %34 ], [ %11, %9 ]
  %38 = phi i64 [ %23, %34 ], [ 22, %9 ]
  %39 = phi i64 [ %21, %34 ], [ %13, %9 ]
  %40 = add nuw nsw i64 %38, 1
  %41 = shl nuw i64 %38, 1
  %42 = icmp ult i64 %40, %41
  %43 = select i1 %42, i64 %41, i64 %40
  %44 = add nuw i64 %43, 16
  %45 = and i64 %44, -16
  %46 = icmp ult i64 %43, 23
  %47 = select i1 %46, i64 23, i64 %45
  br label %48

48:                                               ; preds = %36, %34
  %49 = phi i8* [ %37, %36 ], [ %29, %34 ]
  %50 = phi i64 [ %38, %36 ], [ %23, %34 ]
  %51 = phi i64 [ %39, %36 ], [ %21, %34 ]
  %52 = phi i64 [ %47, %36 ], [ -17, %34 ]
  %53 = tail call noalias nonnull i8* @_Znwm(i64 %52) #21
  %54 = icmp eq i64 %51, 0
  br i1 %54, label %56, label %55

55:                                               ; preds = %48
  tail call void @llvm.memcpy.p0i8.p0i8.i64(i8* nonnull align 1 %53, i8* align 1 %49, i64 %51, i1 false) #20
  br label %56

56:                                               ; preds = %55, %48
  %57 = sub i64 %50, %51
  %58 = icmp eq i64 %57, 0
  br i1 %58, label %63, label %59

59:                                               ; preds = %56
  %60 = getelementptr inbounds i8, i8* %53, i64 %51
  %61 = getelementptr inbounds i8, i8* %60, i64 1
  %62 = getelementptr inbounds i8, i8* %49, i64 %51
  tail call void @llvm.memcpy.p0i8.p0i8.i64(i8* nonnull align 1 %61, i8* align 1 %62, i64 %57, i1 false) #20
  br label %63

63:                                               ; preds = %59, %56
  %64 = icmp eq i64 %50, 22
  br i1 %64, label %66, label %65

65:                                               ; preds = %63
  tail call void @_ZdlPv(i8* %49) #22
  br label %66

66:                                               ; preds = %63, %65
  %67 = getelementptr inbounds %"class.std::__1::basic_string", %"class.std::__1::basic_string"* %0, i64 0, i32 0, i32 0, i32 0, i32 0, i32 0, i32 2
  store i8* %53, i8** %67, align 8, !tbaa !3
  %68 = or i64 %52, 1
  %69 = getelementptr inbounds %"class.std::__1::basic_string", %"class.std::__1::basic_string"* %0, i64 0, i32 0, i32 0, i32 0, i32 0, i32 0, i32 0
  store i64 %68, i64* %69, align 8, !tbaa !3
  br label %79

70:                                               ; preds = %17, %9
  %71 = phi i64 [ %15, %9 ], [ %23, %17 ]
  %72 = phi i64 [ %13, %9 ], [ %21, %17 ]
  %73 = phi i8* [ %11, %9 ], [ %29, %17 ]
  %74 = sub i64 %71, %72
  %75 = icmp eq i64 %74, 0
  br i1 %75, label %79, label %76

76:                                               ; preds = %70
  %77 = getelementptr inbounds i8, i8* %73, i64 %72
  %78 = getelementptr inbounds i8, i8* %77, i64 1
  tail call void @llvm.memmove.p0i8.p0i8.i64(i8* nonnull align 1 %78, i8* align 1 %77, i64 %74, i1 false) #20
  br label %79

79:                                               ; preds = %76, %70, %66
  %80 = phi i64 [ %50, %66 ], [ %71, %70 ], [ %71, %76 ]
  %81 = phi i64 [ %51, %66 ], [ %72, %70 ], [ %72, %76 ]
  %82 = phi i8* [ %53, %66 ], [ %73, %70 ], [ %73, %76 ]
  %83 = getelementptr inbounds i8, i8* %82, i64 %81
  store i8 %2, i8* %83, align 1, !tbaa !3
  %84 = add i64 %80, 1
  %85 = getelementptr inbounds i8, i8* %82, i64 %84
  store i8 0, i8* %85, align 1, !tbaa !3
  %86 = load i8, i8* %5, align 8, !tbaa !3
  %87 = and i8 %86, 1
  %88 = icmp eq i8 %87, 0
  br i1 %88, label %91, label %89

89:                                               ; preds = %79
  %90 = getelementptr inbounds %"class.std::__1::basic_string", %"class.std::__1::basic_string"* %0, i64 0, i32 0, i32 0, i32 0, i32 0, i32 0, i32 1
  store i64 %84, i64* %90, align 8, !tbaa !3
  br label %94

91:                                               ; preds = %79
  %92 = trunc i64 %84 to i8
  %93 = shl i8 %92, 1
  store i8 %93, i8* %5, align 8, !tbaa !3
  br label %94

94:                                               ; preds = %89, %91
  %95 = phi i8 [ %86, %89 ], [ %93, %91 ]
  %96 = and i8 %95, 1
  %97 = icmp eq i8 %96, 0
  br i1 %97, label %101, label %98

98:                                               ; preds = %94
  %99 = getelementptr inbounds %"class.std::__1::basic_string", %"class.std::__1::basic_string"* %0, i64 0, i32 0, i32 0, i32 0, i32 0, i32 0, i32 2
  %100 = load i8*, i8** %99, align 8, !tbaa !3
  br label %104

101:                                              ; preds = %94
  %102 = bitcast %"class.std::__1::basic_string"* %0 to %"struct.std::__1::basic_string<char, std::__1::char_traits<char>, std::__1::allocator<char>>::__short"*
  %103 = getelementptr inbounds %"struct.std::__1::basic_string<char, std::__1::char_traits<char>, std::__1::allocator<char>>::__short", %"struct.std::__1::basic_string<char, std::__1::char_traits<char>, std::__1::allocator<char>>::__short"* %102, i64 0, i32 1, i64 0
  br label %104

104:                                              ; preds = %98, %101
  %105 = phi i8* [ %100, %98 ], [ %103, %101 ]
  %106 = getelementptr inbounds i8, i8* %105, i64 %81
  ret i8* %106
}

; Function Attrs: uwtable
define weak_odr void @_ZNSt3__112basic_stringIcNS_11char_traitsIcEENS_9allocatorIcEEE6resizeEmc(%"class.std::__1::basic_string"* %0, i64 %1, i8 signext %2) local_unnamed_addr #2 comdat align 2 {
  %4 = bitcast %"class.std::__1::basic_string"* %0 to i8*
  %5 = load i8, i8* %4, align 8, !tbaa !3
  %6 = and i8 %5, 1
  %7 = icmp eq i8 %6, 0
  br i1 %7, label %8, label %12

8:                                                ; preds = %3
  %9 = lshr i8 %5, 1
  %10 = zext i8 %9 to i64
  %11 = icmp ult i64 %10, %1
  br i1 %11, label %16, label %24

12:                                               ; preds = %3
  %13 = getelementptr inbounds %"class.std::__1::basic_string", %"class.std::__1::basic_string"* %0, i64 0, i32 0, i32 0, i32 0, i32 0, i32 0, i32 1
  %14 = load i64, i64* %13, align 8, !tbaa !3
  %15 = icmp ult i64 %14, %1
  br i1 %15, label %16, label %20

16:                                               ; preds = %12, %8
  %17 = phi i64 [ %14, %12 ], [ %10, %8 ]
  %18 = sub i64 %1, %17
  %19 = tail call nonnull align 8 dereferenceable(24) %"class.std::__1::basic_string"* @_ZNSt3__112basic_stringIcNS_11char_traitsIcEENS_9allocatorIcEEE6appendEmc(%"class.std::__1::basic_string"* nonnull %0, i64 %18, i8 signext %2)
  br label %29

20:                                               ; preds = %12
  %21 = getelementptr inbounds %"class.std::__1::basic_string", %"class.std::__1::basic_string"* %0, i64 0, i32 0, i32 0, i32 0, i32 0, i32 0, i32 2
  %22 = load i8*, i8** %21, align 8, !tbaa !3
  %23 = getelementptr inbounds i8, i8* %22, i64 %1
  store i8 0, i8* %23, align 1, !tbaa !3
  store i64 %1, i64* %13, align 8, !tbaa !3
  br label %29

24:                                               ; preds = %8
  %25 = bitcast %"class.std::__1::basic_string"* %0 to %"struct.std::__1::basic_string<char, std::__1::char_traits<char>, std::__1::allocator<char>>::__short"*
  %26 = getelementptr inbounds %"struct.std::__1::basic_string<char, std::__1::char_traits<char>, std::__1::allocator<char>>::__short", %"struct.std::__1::basic_string<char, std::__1::char_traits<char>, std::__1::allocator<char>>::__short"* %25, i64 0, i32 1, i64 %1
  store i8 0, i8* %26, align 1, !tbaa !3
  %27 = trunc i64 %1 to i8
  %28 = shl i8 %27, 1
  store i8 %28, i8* %4, align 8, !tbaa !3
  br label %29

29:                                               ; preds = %24, %20, %16
  ret void
}

; Function Attrs: uwtable
define weak_odr nonnull align 8 dereferenceable(24) %"class.std::__1::basic_string"* @_ZNSt3__112basic_stringIcNS_11char_traitsIcEENS_9allocatorIcEEE6insertEmRKS5_mm(%"class.std::__1::basic_string"* %0, i64 %1, %"class.std::__1::basic_string"* nonnull align 8 dereferenceable(24) %2, i64 %3, i64 %4) local_unnamed_addr #2 comdat align 2 {
  %6 = bitcast %"class.std::__1::basic_string"* %2 to i8*
  %7 = load i8, i8* %6, align 8, !tbaa !3
  %8 = and i8 %7, 1
  %9 = icmp eq i8 %8, 0
  br i1 %9, label %10, label %14

10:                                               ; preds = %5
  %11 = lshr i8 %7, 1
  %12 = zext i8 %11 to i64
  %13 = icmp ult i64 %12, %3
  br i1 %13, label %18, label %23

14:                                               ; preds = %5
  %15 = getelementptr inbounds %"class.std::__1::basic_string", %"class.std::__1::basic_string"* %2, i64 0, i32 0, i32 0, i32 0, i32 0, i32 0, i32 1
  %16 = load i64, i64* %15, align 8, !tbaa !3
  %17 = icmp ult i64 %16, %3
  br i1 %17, label %18, label %20

18:                                               ; preds = %14, %10
  %19 = bitcast %"class.std::__1::basic_string"* %0 to %"class.std::__1::__basic_string_common"*
  tail call void @_ZNKSt3__121__basic_string_commonILb1EE20__throw_out_of_rangeEv(%"class.std::__1::__basic_string_common"* %19) #19
  unreachable

20:                                               ; preds = %14
  %21 = getelementptr inbounds %"class.std::__1::basic_string", %"class.std::__1::basic_string"* %2, i64 0, i32 0, i32 0, i32 0, i32 0, i32 0, i32 2
  %22 = load i8*, i8** %21, align 8, !tbaa !3
  br label %26

23:                                               ; preds = %10
  %24 = bitcast %"class.std::__1::basic_string"* %2 to %"struct.std::__1::basic_string<char, std::__1::char_traits<char>, std::__1::allocator<char>>::__short"*
  %25 = getelementptr inbounds %"struct.std::__1::basic_string<char, std::__1::char_traits<char>, std::__1::allocator<char>>::__short", %"struct.std::__1::basic_string<char, std::__1::char_traits<char>, std::__1::allocator<char>>::__short"* %24, i64 0, i32 1, i64 0
  br label %26

26:                                               ; preds = %20, %23
  %27 = phi i64 [ %16, %20 ], [ %12, %23 ]
  %28 = phi i8* [ %22, %20 ], [ %25, %23 ]
  %29 = getelementptr inbounds i8, i8* %28, i64 %3
  %30 = sub i64 %27, %3
  %31 = icmp ult i64 %30, %4
  %32 = select i1 %31, i64 %30, i64 %4
  %33 = tail call nonnull align 8 dereferenceable(24) %"class.std::__1::basic_string"* @_ZNSt3__112basic_stringIcNS_11char_traitsIcEENS_9allocatorIcEEE6insertEmPKcm(%"class.std::__1::basic_string"* %0, i64 %1, i8* %29, i64 %32)
  ret %"class.std::__1::basic_string"* %33
}

; Function Attrs: uwtable
define weak_odr nonnull align 8 dereferenceable(24) %"class.std::__1::basic_string.3"* @_ZNSt3__112basic_stringIwNS_11char_traitsIwEENS_9allocatorIwEEE7replaceEmmPKwm(%"class.std::__1::basic_string.3"* %0, i64 %1, i64 %2, i32* %3, i64 %4) local_unnamed_addr #2 comdat align 2 {
  %6 = bitcast %"class.std::__1::basic_string.3"* %0 to i8*
  %7 = load i8, i8* %6, align 8, !tbaa !3
  %8 = and i8 %7, 1
  %9 = icmp eq i8 %8, 0
  br i1 %9, label %10, label %14

10:                                               ; preds = %5
  %11 = lshr i8 %7, 1
  %12 = zext i8 %11 to i64
  %13 = icmp ult i64 %12, %1
  br i1 %13, label %18, label %20

14:                                               ; preds = %5
  %15 = getelementptr inbounds %"class.std::__1::basic_string.3", %"class.std::__1::basic_string.3"* %0, i64 0, i32 0, i32 0, i32 0, i32 0, i32 0, i32 1
  %16 = load i64, i64* %15, align 8, !tbaa !3
  %17 = icmp ult i64 %16, %1
  br i1 %17, label %18, label %27

18:                                               ; preds = %14, %10
  %19 = bitcast %"class.std::__1::basic_string.3"* %0 to %"class.std::__1::__basic_string_common"*
  tail call void @_ZNKSt3__121__basic_string_commonILb1EE20__throw_out_of_rangeEv(%"class.std::__1::__basic_string_common"* %19) #19
  unreachable

20:                                               ; preds = %10
  %21 = sub i64 %12, %1
  %22 = icmp ult i64 %21, %2
  %23 = select i1 %22, i64 %21, i64 %2
  %24 = sub nsw i64 4, %12
  %25 = add i64 %24, %23
  %26 = icmp ult i64 %25, %4
  br i1 %26, label %116, label %41

27:                                               ; preds = %14
  %28 = sub i64 %16, %1
  %29 = icmp ult i64 %28, %2
  %30 = select i1 %29, i64 %28, i64 %2
  %31 = getelementptr inbounds %"class.std::__1::basic_string.3", %"class.std::__1::basic_string.3"* %0, i64 0, i32 0, i32 0, i32 0, i32 0, i32 0, i32 0
  %32 = load i64, i64* %31, align 8, !tbaa !3
  %33 = and i64 %32, -2
  %34 = add i64 %33, -1
  %35 = sub i64 %30, %16
  %36 = add i64 %35, %34
  %37 = icmp ult i64 %36, %4
  br i1 %37, label %116, label %38

38:                                               ; preds = %27
  %39 = getelementptr inbounds %"class.std::__1::basic_string.3", %"class.std::__1::basic_string.3"* %0, i64 0, i32 0, i32 0, i32 0, i32 0, i32 0, i32 2
  %40 = load i32*, i32** %39, align 8, !tbaa !3
  br label %44

41:                                               ; preds = %20
  %42 = bitcast %"class.std::__1::basic_string.3"* %0 to %"struct.std::__1::basic_string<wchar_t, std::__1::char_traits<wchar_t>, std::__1::allocator<wchar_t>>::__short"*
  %43 = getelementptr inbounds %"struct.std::__1::basic_string<wchar_t, std::__1::char_traits<wchar_t>, std::__1::allocator<wchar_t>>::__short", %"struct.std::__1::basic_string<wchar_t, std::__1::char_traits<wchar_t>, std::__1::allocator<wchar_t>>::__short"* %42, i64 0, i32 1, i64 0
  br label %44

44:                                               ; preds = %38, %41
  %45 = phi i64 [ %30, %38 ], [ %23, %41 ]
  %46 = phi i64 [ %28, %38 ], [ %21, %41 ]
  %47 = phi i64 [ %16, %38 ], [ %12, %41 ]
  %48 = phi i32* [ %40, %38 ], [ %43, %41 ]
  %49 = icmp eq i64 %45, %4
  br i1 %49, label %92, label %50

50:                                               ; preds = %44
  %51 = sub i64 %46, %45
  %52 = icmp eq i64 %51, 0
  br i1 %52, label %92, label %53

53:                                               ; preds = %50
  %54 = icmp ugt i64 %45, %4
  %55 = getelementptr inbounds i32, i32* %48, i64 %1
  br i1 %54, label %56, label %60

56:                                               ; preds = %53
  %57 = icmp eq i64 %4, 0
  br i1 %57, label %88, label %58

58:                                               ; preds = %56
  %59 = tail call i32* @wmemmove(i32* %55, i32* %3, i64 %4) #20
  br label %88

60:                                               ; preds = %53
  %61 = icmp ult i32* %55, %3
  %62 = getelementptr inbounds i32, i32* %48, i64 %47
  %63 = icmp ugt i32* %62, %3
  %64 = and i1 %61, %63
  br i1 %64, label %65, label %79

65:                                               ; preds = %60
  %66 = getelementptr inbounds i32, i32* %55, i64 %45
  %67 = icmp ugt i32* %66, %3
  br i1 %67, label %71, label %68

68:                                               ; preds = %65
  %69 = sub i64 %4, %45
  %70 = getelementptr inbounds i32, i32* %3, i64 %69
  br label %79

71:                                               ; preds = %65
  %72 = icmp eq i64 %45, 0
  br i1 %72, label %75, label %73

73:                                               ; preds = %71
  %74 = tail call i32* @wmemmove(i32* %55, i32* %3, i64 %45) #20
  br label %75

75:                                               ; preds = %71, %73
  %76 = add i64 %45, %1
  %77 = getelementptr inbounds i32, i32* %3, i64 %4
  %78 = sub i64 %4, %45
  br label %79

79:                                               ; preds = %68, %75, %60
  %80 = phi i64 [ 0, %75 ], [ %45, %68 ], [ %45, %60 ]
  %81 = phi i64 [ %78, %75 ], [ %4, %68 ], [ %4, %60 ]
  %82 = phi i32* [ %77, %75 ], [ %70, %68 ], [ %3, %60 ]
  %83 = phi i64 [ %76, %75 ], [ %1, %68 ], [ %1, %60 ]
  %84 = getelementptr inbounds i32, i32* %48, i64 %83
  %85 = getelementptr inbounds i32, i32* %84, i64 %81
  %86 = getelementptr inbounds i32, i32* %84, i64 %80
  %87 = tail call i32* @wmemmove(i32* %85, i32* %86, i64 %51) #20
  br label %92

88:                                               ; preds = %58, %56
  %89 = getelementptr inbounds i32, i32* %55, i64 %4
  %90 = getelementptr inbounds i32, i32* %55, i64 %45
  %91 = tail call i32* @wmemmove(i32* %89, i32* %90, i64 %51) #20
  br label %101

92:                                               ; preds = %79, %50, %44
  %93 = phi i64 [ %4, %44 ], [ %80, %79 ], [ %45, %50 ]
  %94 = phi i64 [ %4, %44 ], [ %81, %79 ], [ %4, %50 ]
  %95 = phi i32* [ %3, %44 ], [ %82, %79 ], [ %3, %50 ]
  %96 = phi i64 [ %1, %44 ], [ %83, %79 ], [ %1, %50 ]
  %97 = icmp eq i64 %94, 0
  br i1 %97, label %101, label %98

98:                                               ; preds = %92
  %99 = getelementptr inbounds i32, i32* %48, i64 %96
  %100 = tail call i32* @wmemmove(i32* %99, i32* %95, i64 %94) #20
  br label %101

101:                                              ; preds = %98, %92, %88
  %102 = phi i64 [ %45, %88 ], [ %93, %92 ], [ %93, %98 ]
  %103 = phi i64 [ %4, %88 ], [ 0, %92 ], [ %94, %98 ]
  %104 = sub i64 %103, %102
  %105 = add i64 %104, %47
  %106 = load i8, i8* %6, align 8, !tbaa !3
  %107 = and i8 %106, 1
  %108 = icmp eq i8 %107, 0
  br i1 %108, label %111, label %109

109:                                              ; preds = %101
  %110 = getelementptr inbounds %"class.std::__1::basic_string.3", %"class.std::__1::basic_string.3"* %0, i64 0, i32 0, i32 0, i32 0, i32 0, i32 0, i32 1
  store i64 %105, i64* %110, align 8, !tbaa !3
  br label %114

111:                                              ; preds = %101
  %112 = trunc i64 %105 to i8
  %113 = shl i8 %112, 1
  store i8 %113, i8* %6, align 8, !tbaa !3
  br label %114

114:                                              ; preds = %109, %111
  %115 = getelementptr inbounds i32, i32* %48, i64 %105
  store i32 0, i32* %115, align 4, !tbaa !7
  br label %123

116:                                              ; preds = %27, %20
  %117 = phi i64 [ %34, %27 ], [ 4, %20 ]
  %118 = phi i64 [ %16, %27 ], [ %12, %20 ]
  %119 = phi i64 [ %30, %27 ], [ %23, %20 ]
  %120 = add i64 %118, %4
  %121 = add i64 %117, %119
  %122 = sub i64 %120, %121
  tail call void @_ZNSt3__112basic_stringIwNS_11char_traitsIwEENS_9allocatorIwEEE21__grow_by_and_replaceEmmmmmmPKw(%"class.std::__1::basic_string.3"* nonnull %0, i64 %117, i64 %122, i64 %118, i64 %1, i64 %119, i64 %4, i32* %3)
  br label %123

123:                                              ; preds = %116, %114
  ret %"class.std::__1::basic_string.3"* %0
}

; Function Attrs: uwtable
define weak_odr void @_ZNSt3__112basic_stringIwNS_11char_traitsIwEENS_9allocatorIwEEE21__grow_by_and_replaceEmmmmmmPKw(%"class.std::__1::basic_string.3"* %0, i64 %1, i64 %2, i64 %3, i64 %4, i64 %5, i64 %6, i32* %7) local_unnamed_addr #2 comdat align 2 personality i32 (...)* @__gxx_personality_v0 {
  %9 = sub i64 4611686018427387886, %1
  %10 = icmp ult i64 %9, %2
  br i1 %10, label %11, label %13

11:                                               ; preds = %8
  %12 = bitcast %"class.std::__1::basic_string.3"* %0 to %"class.std::__1::__basic_string_common"*
  tail call void @_ZNKSt3__121__basic_string_commonILb1EE20__throw_length_errorEv(%"class.std::__1::__basic_string_common"* %12) #19
  unreachable

13:                                               ; preds = %8
  %14 = bitcast %"class.std::__1::basic_string.3"* %0 to i8*
  %15 = load i8, i8* %14, align 8, !tbaa !3
  %16 = and i8 %15, 1
  %17 = icmp eq i8 %16, 0
  br i1 %17, label %21, label %18

18:                                               ; preds = %13
  %19 = getelementptr inbounds %"class.std::__1::basic_string.3", %"class.std::__1::basic_string.3"* %0, i64 0, i32 0, i32 0, i32 0, i32 0, i32 0, i32 2
  %20 = load i32*, i32** %19, align 8, !tbaa !3
  br label %24

21:                                               ; preds = %13
  %22 = bitcast %"class.std::__1::basic_string.3"* %0 to %"struct.std::__1::basic_string<wchar_t, std::__1::char_traits<wchar_t>, std::__1::allocator<wchar_t>>::__short"*
  %23 = getelementptr inbounds %"struct.std::__1::basic_string<wchar_t, std::__1::char_traits<wchar_t>, std::__1::allocator<wchar_t>>::__short", %"struct.std::__1::basic_string<wchar_t, std::__1::char_traits<wchar_t>, std::__1::allocator<wchar_t>>::__short"* %22, i64 0, i32 1, i64 0
  br label %24

24:                                               ; preds = %18, %21
  %25 = phi i32* [ %20, %18 ], [ %23, %21 ]
  %26 = icmp ult i64 %1, 2305843009213693927
  br i1 %26, label %27, label %38

27:                                               ; preds = %24
  %28 = add i64 %2, %1
  %29 = shl nuw nsw i64 %1, 1
  %30 = icmp ult i64 %28, %29
  %31 = select i1 %30, i64 %29, i64 %28
  %32 = add i64 %31, 4
  %33 = and i64 %32, -4
  %34 = icmp ult i64 %31, 5
  %35 = select i1 %34, i64 5, i64 %33
  %36 = icmp ugt i64 %35, 4611686018427387903
  br i1 %36, label %37, label %38

37:                                               ; preds = %27
  tail call void @_ZNSt3__120__throw_length_errorEPKc(i8* getelementptr inbounds ([68 x i8], [68 x i8]* @.str.13, i64 0, i64 0)) #19
  unreachable

38:                                               ; preds = %24, %27
  %39 = phi i64 [ %35, %27 ], [ 4611686018427387887, %24 ]
  %40 = shl nuw i64 %39, 2
  %41 = tail call noalias nonnull i8* @_Znwm(i64 %40) #21
  %42 = bitcast i8* %41 to i32*
  %43 = icmp eq i64 %4, 0
  br i1 %43, label %46, label %44

44:                                               ; preds = %38
  %45 = tail call i32* @wmemcpy(i32* nonnull %42, i32* %25, i64 %4) #20
  br label %46

46:                                               ; preds = %38, %44
  %47 = icmp eq i64 %6, 0
  br i1 %47, label %51, label %48

48:                                               ; preds = %46
  %49 = getelementptr inbounds i32, i32* %42, i64 %4
  %50 = tail call i32* @wmemcpy(i32* nonnull %49, i32* %7, i64 %6) #20
  br label %51

51:                                               ; preds = %46, %48
  %52 = sub i64 %3, %5
  %53 = sub i64 %52, %4
  %54 = icmp eq i64 %53, 0
  br i1 %54, label %61, label %55

55:                                               ; preds = %51
  %56 = getelementptr inbounds i32, i32* %42, i64 %4
  %57 = getelementptr inbounds i32, i32* %56, i64 %6
  %58 = getelementptr inbounds i32, i32* %25, i64 %4
  %59 = getelementptr inbounds i32, i32* %58, i64 %5
  %60 = tail call i32* @wmemcpy(i32* nonnull %57, i32* %59, i64 %53) #20
  br label %61

61:                                               ; preds = %51, %55
  %62 = icmp eq i64 %1, 4
  br i1 %62, label %65, label %63

63:                                               ; preds = %61
  %64 = bitcast i32* %25 to i8*
  tail call void @_ZdlPv(i8* %64) #22
  br label %65

65:                                               ; preds = %61, %63
  %66 = getelementptr inbounds %"class.std::__1::basic_string.3", %"class.std::__1::basic_string.3"* %0, i64 0, i32 0, i32 0, i32 0, i32 0, i32 0, i32 2
  %67 = bitcast i32** %66 to i8**
  store i8* %41, i8** %67, align 8, !tbaa !3
  %68 = or i64 %39, 1
  %69 = getelementptr inbounds %"class.std::__1::basic_string.3", %"class.std::__1::basic_string.3"* %0, i64 0, i32 0, i32 0, i32 0, i32 0, i32 0, i32 0
  store i64 %68, i64* %69, align 8, !tbaa !3
  %70 = add i64 %52, %6
  %71 = getelementptr inbounds %"class.std::__1::basic_string.3", %"class.std::__1::basic_string.3"* %0, i64 0, i32 0, i32 0, i32 0, i32 0, i32 0, i32 1
  store i64 %70, i64* %71, align 8, !tbaa !3
  %72 = getelementptr inbounds i32, i32* %42, i64 %70
  store i32 0, i32* %72, align 4, !tbaa !7
  ret void
}

; Function Attrs: nounwind uwtable
define weak_odr i64 @_ZNKSt3__112basic_stringIwNS_11char_traitsIwEENS_9allocatorIwEEE5rfindEPKwmm(%"class.std::__1::basic_string.3"* %0, i32* %1, i64 %2, i64 %3) local_unnamed_addr #4 comdat align 2 personality i32 (...)* @__gxx_personality_v0 {
  %5 = bitcast %"class.std::__1::basic_string.3"* %0 to i8*
  %6 = load i8, i8* %5, align 8, !tbaa !3
  %7 = and i8 %6, 1
  %8 = icmp eq i8 %7, 0
  br i1 %8, label %14, label %9

9:                                                ; preds = %4
  %10 = getelementptr inbounds %"class.std::__1::basic_string.3", %"class.std::__1::basic_string.3"* %0, i64 0, i32 0, i32 0, i32 0, i32 0, i32 0, i32 2
  %11 = load i32*, i32** %10, align 8, !tbaa !3
  %12 = getelementptr inbounds %"class.std::__1::basic_string.3", %"class.std::__1::basic_string.3"* %0, i64 0, i32 0, i32 0, i32 0, i32 0, i32 0, i32 1
  %13 = load i64, i64* %12, align 8, !tbaa !3
  br label %19

14:                                               ; preds = %4
  %15 = bitcast %"class.std::__1::basic_string.3"* %0 to %"struct.std::__1::basic_string<wchar_t, std::__1::char_traits<wchar_t>, std::__1::allocator<wchar_t>>::__short"*
  %16 = getelementptr inbounds %"struct.std::__1::basic_string<wchar_t, std::__1::char_traits<wchar_t>, std::__1::allocator<wchar_t>>::__short", %"struct.std::__1::basic_string<wchar_t, std::__1::char_traits<wchar_t>, std::__1::allocator<wchar_t>>::__short"* %15, i64 0, i32 1, i64 0
  %17 = lshr i8 %6, 1
  %18 = zext i8 %17 to i64
  br label %19

19:                                               ; preds = %9, %14
  %20 = phi i32* [ %11, %9 ], [ %16, %14 ]
  %21 = phi i64 [ %13, %9 ], [ %18, %14 ]
  %22 = icmp ult i64 %21, %2
  %23 = select i1 %22, i64 %21, i64 %2
  %24 = sub i64 %21, %23
  %25 = icmp ugt i64 %24, %3
  %26 = add i64 %23, %3
  %27 = select i1 %25, i64 %26, i64 %21
  %28 = getelementptr inbounds i32, i32* %20, i64 %27
  %29 = icmp eq i64 %3, 0
  %30 = icmp slt i64 %27, %3
  %31 = or i1 %29, %30
  br i1 %31, label %56, label %32

32:                                               ; preds = %19
  %33 = getelementptr inbounds i32, i32* %1, i64 %3
  %34 = add nsw i64 %3, -1
  %35 = getelementptr inbounds i32, i32* %20, i64 %34
  %36 = getelementptr inbounds i32, i32* %33, i64 -1
  br label %37

37:                                               ; preds = %45, %32
  %38 = phi i32* [ %28, %32 ], [ %41, %45 ]
  %39 = icmp eq i32* %35, %38
  br i1 %39, label %56, label %40

40:                                               ; preds = %37
  %41 = getelementptr inbounds i32, i32* %38, i64 -1
  %42 = load i32, i32* %41, align 4, !tbaa !7
  %43 = load i32, i32* %36, align 4, !tbaa !7
  %44 = icmp eq i32 %42, %43
  br i1 %44, label %46, label %45

45:                                               ; preds = %50, %40
  br label %37

46:                                               ; preds = %40, %50
  %47 = phi i32* [ %51, %50 ], [ %41, %40 ]
  %48 = phi i32* [ %53, %50 ], [ %36, %40 ]
  %49 = icmp eq i32* %48, %1
  br i1 %49, label %56, label %50

50:                                               ; preds = %46
  %51 = getelementptr inbounds i32, i32* %47, i64 -1
  %52 = load i32, i32* %51, align 4, !tbaa !7
  %53 = getelementptr inbounds i32, i32* %48, i64 -1
  %54 = load i32, i32* %53, align 4, !tbaa !7
  %55 = icmp eq i32 %52, %54
  br i1 %55, label %46, label %45

56:                                               ; preds = %37, %46, %19
  %57 = phi i32* [ %28, %19 ], [ %47, %46 ], [ %28, %37 ]
  %58 = icmp ne i64 %3, 0
  %59 = icmp eq i32* %57, %28
  %60 = and i1 %58, %59
  %61 = ptrtoint i32* %57 to i64
  %62 = ptrtoint i32* %20 to i64
  %63 = sub i64 %61, %62
  %64 = ashr exact i64 %63, 2
  %65 = select i1 %60, i64 -1, i64 %64
  ret i64 %65
}

; Function Attrs: inlinehint uwtable
define weak_odr void @_ZNSt3__112basic_stringIwNS_11char_traitsIwEENS_9allocatorIwEEE6__initEPKwmm(%"class.std::__1::basic_string.3"* %0, i32* %1, i64 %2, i64 %3) local_unnamed_addr #5 comdat align 2 {
  %5 = icmp ugt i64 %3, 4611686018427387887
  br i1 %5, label %6, label %8

6:                                                ; preds = %4
  %7 = bitcast %"class.std::__1::basic_string.3"* %0 to %"class.std::__1::__basic_string_common"*
  tail call void @_ZNKSt3__121__basic_string_commonILb1EE20__throw_length_errorEv(%"class.std::__1::__basic_string_common"* %7) #19
  unreachable

8:                                                ; preds = %4
  %9 = icmp ult i64 %3, 5
  br i1 %9, label %10, label %16

10:                                               ; preds = %8
  %11 = trunc i64 %2 to i8
  %12 = shl i8 %11, 1
  %13 = bitcast %"class.std::__1::basic_string.3"* %0 to i8*
  store i8 %12, i8* %13, align 8, !tbaa !3
  %14 = bitcast %"class.std::__1::basic_string.3"* %0 to %"struct.std::__1::basic_string<wchar_t, std::__1::char_traits<wchar_t>, std::__1::allocator<wchar_t>>::__short"*
  %15 = getelementptr inbounds %"struct.std::__1::basic_string<wchar_t, std::__1::char_traits<wchar_t>, std::__1::allocator<wchar_t>>::__short", %"struct.std::__1::basic_string<wchar_t, std::__1::char_traits<wchar_t>, std::__1::allocator<wchar_t>>::__short"* %14, i64 0, i32 1, i64 0
  br label %30

16:                                               ; preds = %8
  %17 = add nuw nsw i64 %3, 4
  %18 = and i64 %17, -4
  %19 = icmp ugt i64 %18, 4611686018427387903
  br i1 %19, label %20, label %21

20:                                               ; preds = %16
  tail call void @_ZNSt3__120__throw_length_errorEPKc(i8* getelementptr inbounds ([68 x i8], [68 x i8]* @.str.13, i64 0, i64 0)) #19
  unreachable

21:                                               ; preds = %16
  %22 = shl nuw i64 %18, 2
  %23 = tail call noalias nonnull i8* @_Znwm(i64 %22) #21
  %24 = bitcast i8* %23 to i32*
  %25 = getelementptr inbounds %"class.std::__1::basic_string.3", %"class.std::__1::basic_string.3"* %0, i64 0, i32 0, i32 0, i32 0, i32 0, i32 0, i32 2
  %26 = bitcast i32** %25 to i8**
  store i8* %23, i8** %26, align 8, !tbaa !3
  %27 = or i64 %18, 1
  %28 = getelementptr inbounds %"class.std::__1::basic_string.3", %"class.std::__1::basic_string.3"* %0, i64 0, i32 0, i32 0, i32 0, i32 0, i32 0, i32 0
  store i64 %27, i64* %28, align 8, !tbaa !3
  %29 = getelementptr inbounds %"class.std::__1::basic_string.3", %"class.std::__1::basic_string.3"* %0, i64 0, i32 0, i32 0, i32 0, i32 0, i32 0, i32 1
  store i64 %2, i64* %29, align 8, !tbaa !3
  br label %30

30:                                               ; preds = %21, %10
  %31 = phi i32* [ %15, %10 ], [ %24, %21 ]
  %32 = icmp eq i64 %2, 0
  br i1 %32, label %35, label %33

33:                                               ; preds = %30
  %34 = tail call i32* @wmemcpy(i32* nonnull %31, i32* %1, i64 %2) #20
  br label %35

35:                                               ; preds = %30, %33
  %36 = getelementptr inbounds i32, i32* %31, i64 %2
  store i32 0, i32* %36, align 4, !tbaa !7
  ret void
}

; Function Attrs: uwtable
define weak_odr void @_ZNSt3__112basic_stringIwNS_11char_traitsIwEENS_9allocatorIwEEEC2ERKS5_(%"class.std::__1::basic_string.3"* %0, %"class.std::__1::basic_string.3"* nonnull align 8 dereferenceable(24) %1) unnamed_addr #2 comdat($_ZNSt3__112basic_stringIwNS_11char_traitsIwEENS_9allocatorIwEEEC5ERKS5_) align 2 {
  %3 = bitcast %"class.std::__1::basic_string.3"* %1 to i8*
  %4 = load i8, i8* %3, align 8, !tbaa !3
  %5 = and i8 %4, 1
  %6 = icmp eq i8 %5, 0
  br i1 %6, label %7, label %9

7:                                                ; preds = %2
  %8 = bitcast %"class.std::__1::basic_string.3"* %0 to i8*
  tail call void @llvm.memcpy.p0i8.p0i8.i64(i8* nonnull align 8 dereferenceable(24) %8, i8* nonnull align 8 dereferenceable(24) %3, i64 24, i1 false), !tbaa.struct !6
  br label %43

9:                                                ; preds = %2
  %10 = getelementptr inbounds %"class.std::__1::basic_string.3", %"class.std::__1::basic_string.3"* %1, i64 0, i32 0, i32 0, i32 0, i32 0, i32 0, i32 2
  %11 = load i32*, i32** %10, align 8, !tbaa !3
  %12 = getelementptr inbounds %"class.std::__1::basic_string.3", %"class.std::__1::basic_string.3"* %1, i64 0, i32 0, i32 0, i32 0, i32 0, i32 0, i32 1
  %13 = load i64, i64* %12, align 8, !tbaa !3
  %14 = icmp ult i64 %13, 5
  br i1 %14, label %15, label %21

15:                                               ; preds = %9
  %16 = bitcast %"class.std::__1::basic_string.3"* %0 to %"struct.std::__1::basic_string<wchar_t, std::__1::char_traits<wchar_t>, std::__1::allocator<wchar_t>>::__short"*
  %17 = getelementptr inbounds %"struct.std::__1::basic_string<wchar_t, std::__1::char_traits<wchar_t>, std::__1::allocator<wchar_t>>::__short", %"struct.std::__1::basic_string<wchar_t, std::__1::char_traits<wchar_t>, std::__1::allocator<wchar_t>>::__short"* %16, i64 0, i32 1, i64 0
  %18 = trunc i64 %13 to i8
  %19 = shl nuw nsw i8 %18, 1
  %20 = bitcast %"class.std::__1::basic_string.3"* %0 to i8*
  store i8 %19, i8* %20, align 8, !tbaa !3
  br label %39

21:                                               ; preds = %9
  %22 = icmp ugt i64 %13, 4611686018427387887
  br i1 %22, label %23, label %25

23:                                               ; preds = %21
  %24 = bitcast %"class.std::__1::basic_string.3"* %0 to %"class.std::__1::__basic_string_common"*
  tail call void @_ZNKSt3__121__basic_string_commonILb1EE20__throw_length_errorEv(%"class.std::__1::__basic_string_common"* %24) #19
  unreachable

25:                                               ; preds = %21
  %26 = add nuw nsw i64 %13, 4
  %27 = and i64 %26, -4
  %28 = icmp ugt i64 %27, 4611686018427387903
  br i1 %28, label %29, label %30

29:                                               ; preds = %25
  tail call void @_ZNSt3__120__throw_length_errorEPKc(i8* getelementptr inbounds ([68 x i8], [68 x i8]* @.str.13, i64 0, i64 0)) #19
  unreachable

30:                                               ; preds = %25
  %31 = shl nuw i64 %27, 2
  %32 = tail call noalias nonnull i8* @_Znwm(i64 %31) #21
  %33 = bitcast i8* %32 to i32*
  %34 = getelementptr inbounds %"class.std::__1::basic_string.3", %"class.std::__1::basic_string.3"* %0, i64 0, i32 0, i32 0, i32 0, i32 0, i32 0, i32 2
  %35 = bitcast i32** %34 to i8**
  store i8* %32, i8** %35, align 8, !tbaa !3
  %36 = or i64 %27, 1
  %37 = getelementptr inbounds %"class.std::__1::basic_string.3", %"class.std::__1::basic_string.3"* %0, i64 0, i32 0, i32 0, i32 0, i32 0, i32 0, i32 0
  store i64 %36, i64* %37, align 8, !tbaa !3
  %38 = getelementptr inbounds %"class.std::__1::basic_string.3", %"class.std::__1::basic_string.3"* %0, i64 0, i32 0, i32 0, i32 0, i32 0, i32 0, i32 1
  store i64 %13, i64* %38, align 8, !tbaa !3
  br label %39

39:                                               ; preds = %15, %30
  %40 = phi i32* [ %17, %15 ], [ %33, %30 ]
  %41 = add nuw nsw i64 %13, 1
  %42 = tail call i32* @wmemcpy(i32* nonnull %40, i32* %11, i64 %41) #20
  br label %43

43:                                               ; preds = %39, %7
  ret void
}

; Function Attrs: uwtable
define weak_odr nonnull align 8 dereferenceable(24) %"class.std::__1::basic_string.3"* @_ZNSt3__112basic_stringIwNS_11char_traitsIwEENS_9allocatorIwEEE7replaceEmmPKw(%"class.std::__1::basic_string.3"* %0, i64 %1, i64 %2, i32* %3) local_unnamed_addr #2 comdat align 2 {
  %5 = tail call i64 @wcslen(i32* %3) #20
  %6 = tail call nonnull align 8 dereferenceable(24) %"class.std::__1::basic_string.3"* @_ZNSt3__112basic_stringIwNS_11char_traitsIwEENS_9allocatorIwEEE7replaceEmmPKwm(%"class.std::__1::basic_string.3"* %0, i64 %1, i64 %2, i32* %3, i64 %5)
  ret %"class.std::__1::basic_string.3"* %6
}

; Function Attrs: uwtable
define weak_odr void @_ZNSt3__112basic_stringIwNS_11char_traitsIwEENS_9allocatorIwEEEC2ERKS5_RKS4_(%"class.std::__1::basic_string.3"* %0, %"class.std::__1::basic_string.3"* nonnull align 8 dereferenceable(24) %1, %"class.std::__1::allocator.9"* nonnull align 1 dereferenceable(1) %2) unnamed_addr #2 comdat($_ZNSt3__112basic_stringIwNS_11char_traitsIwEENS_9allocatorIwEEEC5ERKS5_RKS4_) align 2 {
  %4 = bitcast %"class.std::__1::basic_string.3"* %1 to i8*
  %5 = load i8, i8* %4, align 8, !tbaa !3
  %6 = and i8 %5, 1
  %7 = icmp eq i8 %6, 0
  br i1 %7, label %8, label %10

8:                                                ; preds = %3
  %9 = bitcast %"class.std::__1::basic_string.3"* %0 to i8*
  tail call void @llvm.memcpy.p0i8.p0i8.i64(i8* nonnull align 8 dereferenceable(24) %9, i8* nonnull align 8 dereferenceable(24) %4, i64 24, i1 false), !tbaa.struct !6
  br label %44

10:                                               ; preds = %3
  %11 = getelementptr inbounds %"class.std::__1::basic_string.3", %"class.std::__1::basic_string.3"* %1, i64 0, i32 0, i32 0, i32 0, i32 0, i32 0, i32 2
  %12 = load i32*, i32** %11, align 8, !tbaa !3
  %13 = getelementptr inbounds %"class.std::__1::basic_string.3", %"class.std::__1::basic_string.3"* %1, i64 0, i32 0, i32 0, i32 0, i32 0, i32 0, i32 1
  %14 = load i64, i64* %13, align 8, !tbaa !3
  %15 = icmp ult i64 %14, 5
  br i1 %15, label %16, label %22

16:                                               ; preds = %10
  %17 = bitcast %"class.std::__1::basic_string.3"* %0 to %"struct.std::__1::basic_string<wchar_t, std::__1::char_traits<wchar_t>, std::__1::allocator<wchar_t>>::__short"*
  %18 = getelementptr inbounds %"struct.std::__1::basic_string<wchar_t, std::__1::char_traits<wchar_t>, std::__1::allocator<wchar_t>>::__short", %"struct.std::__1::basic_string<wchar_t, std::__1::char_traits<wchar_t>, std::__1::allocator<wchar_t>>::__short"* %17, i64 0, i32 1, i64 0
  %19 = trunc i64 %14 to i8
  %20 = shl nuw nsw i8 %19, 1
  %21 = bitcast %"class.std::__1::basic_string.3"* %0 to i8*
  store i8 %20, i8* %21, align 8, !tbaa !3
  br label %40

22:                                               ; preds = %10
  %23 = icmp ugt i64 %14, 4611686018427387887
  br i1 %23, label %24, label %26

24:                                               ; preds = %22
  %25 = bitcast %"class.std::__1::basic_string.3"* %0 to %"class.std::__1::__basic_string_common"*
  tail call void @_ZNKSt3__121__basic_string_commonILb1EE20__throw_length_errorEv(%"class.std::__1::__basic_string_common"* %25) #19
  unreachable

26:                                               ; preds = %22
  %27 = add nuw nsw i64 %14, 4
  %28 = and i64 %27, -4
  %29 = icmp ugt i64 %28, 4611686018427387903
  br i1 %29, label %30, label %31

30:                                               ; preds = %26
  tail call void @_ZNSt3__120__throw_length_errorEPKc(i8* getelementptr inbounds ([68 x i8], [68 x i8]* @.str.13, i64 0, i64 0)) #19
  unreachable

31:                                               ; preds = %26
  %32 = shl nuw i64 %28, 2
  %33 = tail call noalias nonnull i8* @_Znwm(i64 %32) #21
  %34 = bitcast i8* %33 to i32*
  %35 = getelementptr inbounds %"class.std::__1::basic_string.3", %"class.std::__1::basic_string.3"* %0, i64 0, i32 0, i32 0, i32 0, i32 0, i32 0, i32 2
  %36 = bitcast i32** %35 to i8**
  store i8* %33, i8** %36, align 8, !tbaa !3
  %37 = or i64 %28, 1
  %38 = getelementptr inbounds %"class.std::__1::basic_string.3", %"class.std::__1::basic_string.3"* %0, i64 0, i32 0, i32 0, i32 0, i32 0, i32 0, i32 0
  store i64 %37, i64* %38, align 8, !tbaa !3
  %39 = getelementptr inbounds %"class.std::__1::basic_string.3", %"class.std::__1::basic_string.3"* %0, i64 0, i32 0, i32 0, i32 0, i32 0, i32 0, i32 1
  store i64 %14, i64* %39, align 8, !tbaa !3
  br label %40

40:                                               ; preds = %16, %31
  %41 = phi i32* [ %18, %16 ], [ %34, %31 ]
  %42 = add nuw nsw i64 %14, 1
  %43 = tail call i32* @wmemcpy(i32* nonnull %41, i32* %12, i64 %42) #20
  br label %44

44:                                               ; preds = %40, %8
  ret void
}

; Function Attrs: nounwind uwtable
define weak_odr i64 @_ZNKSt3__112basic_stringIwNS_11char_traitsIwEENS_9allocatorIwEEE16find_last_not_ofEPKwmm(%"class.std::__1::basic_string.3"* %0, i32* %1, i64 %2, i64 %3) local_unnamed_addr #4 comdat align 2 {
  %5 = bitcast %"class.std::__1::basic_string.3"* %0 to i8*
  %6 = load i8, i8* %5, align 8, !tbaa !3
  %7 = and i8 %6, 1
  %8 = icmp eq i8 %7, 0
  br i1 %8, label %14, label %9

9:                                                ; preds = %4
  %10 = getelementptr inbounds %"class.std::__1::basic_string.3", %"class.std::__1::basic_string.3"* %0, i64 0, i32 0, i32 0, i32 0, i32 0, i32 0, i32 2
  %11 = load i32*, i32** %10, align 8, !tbaa !3
  %12 = getelementptr inbounds %"class.std::__1::basic_string.3", %"class.std::__1::basic_string.3"* %0, i64 0, i32 0, i32 0, i32 0, i32 0, i32 0, i32 1
  %13 = load i64, i64* %12, align 8, !tbaa !3
  br label %19

14:                                               ; preds = %4
  %15 = bitcast %"class.std::__1::basic_string.3"* %0 to %"struct.std::__1::basic_string<wchar_t, std::__1::char_traits<wchar_t>, std::__1::allocator<wchar_t>>::__short"*
  %16 = getelementptr inbounds %"struct.std::__1::basic_string<wchar_t, std::__1::char_traits<wchar_t>, std::__1::allocator<wchar_t>>::__short", %"struct.std::__1::basic_string<wchar_t, std::__1::char_traits<wchar_t>, std::__1::allocator<wchar_t>>::__short"* %15, i64 0, i32 1, i64 0
  %17 = lshr i8 %6, 1
  %18 = zext i8 %17 to i64
  br label %19

19:                                               ; preds = %9, %14
  %20 = phi i32* [ %11, %9 ], [ %16, %14 ]
  %21 = phi i64 [ %13, %9 ], [ %18, %14 ]
  %22 = icmp ugt i64 %21, %2
  %23 = add i64 %2, 1
  %24 = select i1 %22, i64 %23, i64 %21
  %25 = getelementptr inbounds i32, i32* %20, i64 %24
  %26 = icmp eq i64 %3, 0
  br i1 %26, label %27, label %31

27:                                               ; preds = %19
  %28 = icmp eq i64 %24, 0
  br i1 %28, label %45, label %29

29:                                               ; preds = %27
  %30 = getelementptr inbounds i32, i32* %25, i64 -1
  br label %39

31:                                               ; preds = %19, %34
  %32 = phi i32* [ %35, %34 ], [ %25, %19 ]
  %33 = icmp eq i32* %32, %20
  br i1 %33, label %45, label %34

34:                                               ; preds = %31
  %35 = getelementptr inbounds i32, i32* %32, i64 -1
  %36 = load i32, i32* %35, align 4, !tbaa !7
  %37 = tail call i32* @wmemchr(i32* %1, i32 signext %36, i64 %3) #20
  %38 = icmp eq i32* %37, null
  br i1 %38, label %39, label %31

39:                                               ; preds = %34, %29
  %40 = phi i32* [ %30, %29 ], [ %35, %34 ]
  %41 = ptrtoint i32* %40 to i64
  %42 = ptrtoint i32* %20 to i64
  %43 = sub i64 %41, %42
  %44 = ashr exact i64 %43, 2
  br label %45

45:                                               ; preds = %31, %27, %39
  %46 = phi i64 [ %44, %39 ], [ -1, %27 ], [ -1, %31 ]
  ret i64 %46
}

; Function Attrs: inlinehint nounwind uwtable
define weak_odr void @_ZNSt3__112basic_stringIwNS_11char_traitsIwEENS_9allocatorIwEEED2Ev(%"class.std::__1::basic_string.3"* %0) unnamed_addr #6 comdat($_ZNSt3__112basic_stringIwNS_11char_traitsIwEENS_9allocatorIwEEED5Ev) align 2 personality i32 (...)* @__gxx_personality_v0 {
  %2 = bitcast %"class.std::__1::basic_string.3"* %0 to i8*
  %3 = load i8, i8* %2, align 8, !tbaa !3
  %4 = and i8 %3, 1
  %5 = icmp eq i8 %4, 0
  br i1 %5, label %10, label %6

6:                                                ; preds = %1
  %7 = getelementptr inbounds %"class.std::__1::basic_string.3", %"class.std::__1::basic_string.3"* %0, i64 0, i32 0, i32 0, i32 0, i32 0, i32 0, i32 2
  %8 = bitcast i32** %7 to i8**
  %9 = load i8*, i8** %8, align 8, !tbaa !3
  tail call void @_ZdlPv(i8* %9) #22
  br label %10

10:                                               ; preds = %1, %6
  ret void
}

; Function Attrs: nounwind uwtable
define weak_odr i64 @_ZNKSt3__112basic_stringIwNS_11char_traitsIwEENS_9allocatorIwEEE17find_first_not_ofEPKwmm(%"class.std::__1::basic_string.3"* %0, i32* %1, i64 %2, i64 %3) local_unnamed_addr #4 comdat align 2 {
  %5 = bitcast %"class.std::__1::basic_string.3"* %0 to i8*
  %6 = load i8, i8* %5, align 8, !tbaa !3
  %7 = and i8 %6, 1
  %8 = icmp eq i8 %7, 0
  br i1 %8, label %14, label %9

9:                                                ; preds = %4
  %10 = getelementptr inbounds %"class.std::__1::basic_string.3", %"class.std::__1::basic_string.3"* %0, i64 0, i32 0, i32 0, i32 0, i32 0, i32 0, i32 2
  %11 = load i32*, i32** %10, align 8, !tbaa !3
  %12 = getelementptr inbounds %"class.std::__1::basic_string.3", %"class.std::__1::basic_string.3"* %0, i64 0, i32 0, i32 0, i32 0, i32 0, i32 0, i32 1
  %13 = load i64, i64* %12, align 8, !tbaa !3
  br label %19

14:                                               ; preds = %4
  %15 = bitcast %"class.std::__1::basic_string.3"* %0 to %"struct.std::__1::basic_string<wchar_t, std::__1::char_traits<wchar_t>, std::__1::allocator<wchar_t>>::__short"*
